
rv32ud-p-fcmp:     file format elf32-littleriscv


Disassembly of section .text:

80001000 <test_2>:
80001000:	00200193          	li	gp,2
80001004:	00001517          	auipc	a0,0x1
80001008:	ffc50513          	addi	a0,a0,-4 # 80002000 <test_2_data>
8000100c:	00053007          	fld	ft0,0(a0)
80001010:	00853087          	fld	ft1,8(a0)
80001014:	01053107          	fld	ft2,16(a0)
80001018:	01852683          	lw	a3,24(a0)
8000101c:	01c52303          	lw	t1,28(a0)
80001020:	a2102553          	feq.d	a0,ft0,ft1
80001024:	00000393          	li	t2,0
80001028:	001015f3          	fsflags	a1,zero
8000102c:	00000613          	li	a2,0
80001030:	34d51c63          	bne	a0,a3,80001388 <fail>
80001034:	34731a63          	bne	t1,t2,80001388 <fail>
80001038:	34c59863          	bne	a1,a2,80001388 <fail>

8000103c <test_3>:
8000103c:	00300193          	li	gp,3
80001040:	00001517          	auipc	a0,0x1
80001044:	fe050513          	addi	a0,a0,-32 # 80002020 <test_3_data>
80001048:	00053007          	fld	ft0,0(a0)
8000104c:	00853087          	fld	ft1,8(a0)
80001050:	01053107          	fld	ft2,16(a0)
80001054:	01852683          	lw	a3,24(a0)
80001058:	01c52303          	lw	t1,28(a0)
8000105c:	a2100553          	fle.d	a0,ft0,ft1
80001060:	00000393          	li	t2,0
80001064:	001015f3          	fsflags	a1,zero
80001068:	00000613          	li	a2,0
8000106c:	30d51e63          	bne	a0,a3,80001388 <fail>
80001070:	30731c63          	bne	t1,t2,80001388 <fail>
80001074:	30c59a63          	bne	a1,a2,80001388 <fail>

80001078 <test_4>:
80001078:	00400193          	li	gp,4
8000107c:	00001517          	auipc	a0,0x1
80001080:	fc450513          	addi	a0,a0,-60 # 80002040 <test_4_data>
80001084:	00053007          	fld	ft0,0(a0)
80001088:	00853087          	fld	ft1,8(a0)
8000108c:	01053107          	fld	ft2,16(a0)
80001090:	01852683          	lw	a3,24(a0)
80001094:	01c52303          	lw	t1,28(a0)
80001098:	a2101553          	flt.d	a0,ft0,ft1
8000109c:	00000393          	li	t2,0
800010a0:	001015f3          	fsflags	a1,zero
800010a4:	00000613          	li	a2,0
800010a8:	2ed51063          	bne	a0,a3,80001388 <fail>
800010ac:	2c731e63          	bne	t1,t2,80001388 <fail>
800010b0:	2cc59c63          	bne	a1,a2,80001388 <fail>

800010b4 <test_5>:
800010b4:	00500193          	li	gp,5
800010b8:	00001517          	auipc	a0,0x1
800010bc:	fa850513          	addi	a0,a0,-88 # 80002060 <test_5_data>
800010c0:	00053007          	fld	ft0,0(a0)
800010c4:	00853087          	fld	ft1,8(a0)
800010c8:	01053107          	fld	ft2,16(a0)
800010cc:	01852683          	lw	a3,24(a0)
800010d0:	01c52303          	lw	t1,28(a0)
800010d4:	a2102553          	feq.d	a0,ft0,ft1
800010d8:	00000393          	li	t2,0
800010dc:	001015f3          	fsflags	a1,zero
800010e0:	00000613          	li	a2,0
800010e4:	2ad51263          	bne	a0,a3,80001388 <fail>
800010e8:	2a731063          	bne	t1,t2,80001388 <fail>
800010ec:	28c59e63          	bne	a1,a2,80001388 <fail>

800010f0 <test_6>:
800010f0:	00600193          	li	gp,6
800010f4:	00001517          	auipc	a0,0x1
800010f8:	f8c50513          	addi	a0,a0,-116 # 80002080 <test_6_data>
800010fc:	00053007          	fld	ft0,0(a0)
80001100:	00853087          	fld	ft1,8(a0)
80001104:	01053107          	fld	ft2,16(a0)
80001108:	01852683          	lw	a3,24(a0)
8000110c:	01c52303          	lw	t1,28(a0)
80001110:	a2100553          	fle.d	a0,ft0,ft1
80001114:	00000393          	li	t2,0
80001118:	001015f3          	fsflags	a1,zero
8000111c:	00000613          	li	a2,0
80001120:	26d51463          	bne	a0,a3,80001388 <fail>
80001124:	26731263          	bne	t1,t2,80001388 <fail>
80001128:	26c59063          	bne	a1,a2,80001388 <fail>

8000112c <test_7>:
8000112c:	00700193          	li	gp,7
80001130:	00001517          	auipc	a0,0x1
80001134:	f7050513          	addi	a0,a0,-144 # 800020a0 <test_7_data>
80001138:	00053007          	fld	ft0,0(a0)
8000113c:	00853087          	fld	ft1,8(a0)
80001140:	01053107          	fld	ft2,16(a0)
80001144:	01852683          	lw	a3,24(a0)
80001148:	01c52303          	lw	t1,28(a0)
8000114c:	a2101553          	flt.d	a0,ft0,ft1
80001150:	00000393          	li	t2,0
80001154:	001015f3          	fsflags	a1,zero
80001158:	00000613          	li	a2,0
8000115c:	22d51663          	bne	a0,a3,80001388 <fail>
80001160:	22731463          	bne	t1,t2,80001388 <fail>
80001164:	22c59263          	bne	a1,a2,80001388 <fail>

80001168 <test_8>:
80001168:	00800193          	li	gp,8
8000116c:	00001517          	auipc	a0,0x1
80001170:	f5450513          	addi	a0,a0,-172 # 800020c0 <test_8_data>
80001174:	00053007          	fld	ft0,0(a0)
80001178:	00853087          	fld	ft1,8(a0)
8000117c:	01053107          	fld	ft2,16(a0)
80001180:	01852683          	lw	a3,24(a0)
80001184:	01c52303          	lw	t1,28(a0)
80001188:	a2102553          	feq.d	a0,ft0,ft1
8000118c:	00000393          	li	t2,0
80001190:	001015f3          	fsflags	a1,zero
80001194:	00000613          	li	a2,0
80001198:	1ed51863          	bne	a0,a3,80001388 <fail>
8000119c:	1e731663          	bne	t1,t2,80001388 <fail>
800011a0:	1ec59463          	bne	a1,a2,80001388 <fail>

800011a4 <test_9>:
800011a4:	00900193          	li	gp,9
800011a8:	00001517          	auipc	a0,0x1
800011ac:	f3850513          	addi	a0,a0,-200 # 800020e0 <test_9_data>
800011b0:	00053007          	fld	ft0,0(a0)
800011b4:	00853087          	fld	ft1,8(a0)
800011b8:	01053107          	fld	ft2,16(a0)
800011bc:	01852683          	lw	a3,24(a0)
800011c0:	01c52303          	lw	t1,28(a0)
800011c4:	a2102553          	feq.d	a0,ft0,ft1
800011c8:	00000393          	li	t2,0
800011cc:	001015f3          	fsflags	a1,zero
800011d0:	00000613          	li	a2,0
800011d4:	1ad51a63          	bne	a0,a3,80001388 <fail>
800011d8:	1a731863          	bne	t1,t2,80001388 <fail>
800011dc:	1ac59663          	bne	a1,a2,80001388 <fail>

800011e0 <test_10>:
800011e0:	00a00193          	li	gp,10
800011e4:	00001517          	auipc	a0,0x1
800011e8:	f1c50513          	addi	a0,a0,-228 # 80002100 <test_10_data>
800011ec:	00053007          	fld	ft0,0(a0)
800011f0:	00853087          	fld	ft1,8(a0)
800011f4:	01053107          	fld	ft2,16(a0)
800011f8:	01852683          	lw	a3,24(a0)
800011fc:	01c52303          	lw	t1,28(a0)
80001200:	a2102553          	feq.d	a0,ft0,ft1
80001204:	00000393          	li	t2,0
80001208:	001015f3          	fsflags	a1,zero
8000120c:	01000613          	li	a2,16
80001210:	16d51c63          	bne	a0,a3,80001388 <fail>
80001214:	16731a63          	bne	t1,t2,80001388 <fail>
80001218:	16c59863          	bne	a1,a2,80001388 <fail>

8000121c <test_11>:
8000121c:	00b00193          	li	gp,11
80001220:	00001517          	auipc	a0,0x1
80001224:	f0050513          	addi	a0,a0,-256 # 80002120 <test_11_data>
80001228:	00053007          	fld	ft0,0(a0)
8000122c:	00853087          	fld	ft1,8(a0)
80001230:	01053107          	fld	ft2,16(a0)
80001234:	01852683          	lw	a3,24(a0)
80001238:	01c52303          	lw	t1,28(a0)
8000123c:	a2101553          	flt.d	a0,ft0,ft1
80001240:	00000393          	li	t2,0
80001244:	001015f3          	fsflags	a1,zero
80001248:	01000613          	li	a2,16
8000124c:	12d51e63          	bne	a0,a3,80001388 <fail>
80001250:	12731c63          	bne	t1,t2,80001388 <fail>
80001254:	12c59a63          	bne	a1,a2,80001388 <fail>

80001258 <test_12>:
80001258:	00c00193          	li	gp,12
8000125c:	00001517          	auipc	a0,0x1
80001260:	ee450513          	addi	a0,a0,-284 # 80002140 <test_12_data>
80001264:	00053007          	fld	ft0,0(a0)
80001268:	00853087          	fld	ft1,8(a0)
8000126c:	01053107          	fld	ft2,16(a0)
80001270:	01852683          	lw	a3,24(a0)
80001274:	01c52303          	lw	t1,28(a0)
80001278:	a2101553          	flt.d	a0,ft0,ft1
8000127c:	00000393          	li	t2,0
80001280:	001015f3          	fsflags	a1,zero
80001284:	01000613          	li	a2,16
80001288:	10d51063          	bne	a0,a3,80001388 <fail>
8000128c:	0e731e63          	bne	t1,t2,80001388 <fail>
80001290:	0ec59c63          	bne	a1,a2,80001388 <fail>

80001294 <test_13>:
80001294:	00d00193          	li	gp,13
80001298:	00001517          	auipc	a0,0x1
8000129c:	ec850513          	addi	a0,a0,-312 # 80002160 <test_13_data>
800012a0:	00053007          	fld	ft0,0(a0)
800012a4:	00853087          	fld	ft1,8(a0)
800012a8:	01053107          	fld	ft2,16(a0)
800012ac:	01852683          	lw	a3,24(a0)
800012b0:	01c52303          	lw	t1,28(a0)
800012b4:	a2101553          	flt.d	a0,ft0,ft1
800012b8:	00000393          	li	t2,0
800012bc:	001015f3          	fsflags	a1,zero
800012c0:	01000613          	li	a2,16
800012c4:	0cd51263          	bne	a0,a3,80001388 <fail>
800012c8:	0c731063          	bne	t1,t2,80001388 <fail>
800012cc:	0ac59e63          	bne	a1,a2,80001388 <fail>

800012d0 <test_14>:
800012d0:	00e00193          	li	gp,14
800012d4:	00001517          	auipc	a0,0x1
800012d8:	eac50513          	addi	a0,a0,-340 # 80002180 <test_14_data>
800012dc:	00053007          	fld	ft0,0(a0)
800012e0:	00853087          	fld	ft1,8(a0)
800012e4:	01053107          	fld	ft2,16(a0)
800012e8:	01852683          	lw	a3,24(a0)
800012ec:	01c52303          	lw	t1,28(a0)
800012f0:	a2100553          	fle.d	a0,ft0,ft1
800012f4:	00000393          	li	t2,0
800012f8:	001015f3          	fsflags	a1,zero
800012fc:	01000613          	li	a2,16
80001300:	08d51463          	bne	a0,a3,80001388 <fail>
80001304:	08731263          	bne	t1,t2,80001388 <fail>
80001308:	08c59063          	bne	a1,a2,80001388 <fail>

8000130c <test_15>:
8000130c:	00f00193          	li	gp,15
80001310:	00001517          	auipc	a0,0x1
80001314:	e9050513          	addi	a0,a0,-368 # 800021a0 <test_15_data>
80001318:	00053007          	fld	ft0,0(a0)
8000131c:	00853087          	fld	ft1,8(a0)
80001320:	01053107          	fld	ft2,16(a0)
80001324:	01852683          	lw	a3,24(a0)
80001328:	01c52303          	lw	t1,28(a0)
8000132c:	a2100553          	fle.d	a0,ft0,ft1
80001330:	00000393          	li	t2,0
80001334:	001015f3          	fsflags	a1,zero
80001338:	01000613          	li	a2,16
8000133c:	04d51663          	bne	a0,a3,80001388 <fail>
80001340:	04731463          	bne	t1,t2,80001388 <fail>
80001344:	04c59263          	bne	a1,a2,80001388 <fail>

80001348 <test_16>:
80001348:	01000193          	li	gp,16
8000134c:	00001517          	auipc	a0,0x1
80001350:	e7450513          	addi	a0,a0,-396 # 800021c0 <test_16_data>
80001354:	00053007          	fld	ft0,0(a0)
80001358:	00853087          	fld	ft1,8(a0)
8000135c:	01053107          	fld	ft2,16(a0)
80001360:	01852683          	lw	a3,24(a0)
80001364:	01c52303          	lw	t1,28(a0)
80001368:	a2100553          	fle.d	a0,ft0,ft1
8000136c:	00000393          	li	t2,0
80001370:	001015f3          	fsflags	a1,zero
80001374:	01000613          	li	a2,16
80001378:	00d51863          	bne	a0,a3,80001388 <fail>
8000137c:	00731663          	bne	t1,t2,80001388 <fail>
80001380:	00c59463          	bne	a1,a2,80001388 <fail>
80001384:	02301a63          	bne	zero,gp,800013b8 <pass>

80001388 <fail>:
80001388:	0ff0000f          	fence
8000138c:	00001597          	auipc	a1,0x1
80001390:	e5458593          	addi	a1,a1,-428 # 800021e0 <hello>
80001394:	00f00613          	li	a2,15
80001398:	04000893          	li	a7,64
8000139c:	00000073          	ecall
800013a0:	00018063          	beqz	gp,800013a0 <fail+0x18>
800013a4:	00119193          	slli	gp,gp,0x1
800013a8:	0011e193          	ori	gp,gp,1
800013ac:	05d00893          	li	a7,93
800013b0:	00018513          	mv	a0,gp
800013b4:	00000073          	ecall

800013b8 <pass>:
800013b8:	0ff0000f          	fence
800013bc:	00100513          	li	a0,1
800013c0:	00001597          	auipc	a1,0x1
800013c4:	e2058593          	addi	a1,a1,-480 # 800021e0 <hello>
800013c8:	00f00613          	li	a2,15
800013cc:	04000893          	li	a7,64
800013d0:	00000073          	ecall
800013d4:	00100193          	li	gp,1
800013d8:	05d00893          	li	a7,93
800013dc:	00000513          	li	a0,0
800013e0:	00000073          	ecall
800013e4:	c0001073          	unimp

Disassembly of section .data:

80002000 <test_2_data>:
80002000:	5c28f5c3          	.4byte	0x5c28f5c3
80002004:	bff5c28f          	.4byte	0xbff5c28f
80002008:	5c28f5c3          	.4byte	0x5c28f5c3
8000200c:	bff5c28f          	.4byte	0xbff5c28f
80002010:	0000                	.2byte	0x0
80002012:	0000                	.2byte	0x0
80002014:	0000                	.2byte	0x0
80002016:	0000                	.2byte	0x0
80002018:	0001                	.2byte	0x1
8000201a:	0000                	.2byte	0x0
8000201c:	0000                	.2byte	0x0
8000201e:	0000                	.2byte	0x0

80002020 <test_3_data>:
80002020:	5c28f5c3          	.4byte	0x5c28f5c3
80002024:	bff5c28f          	.4byte	0xbff5c28f
80002028:	5c28f5c3          	.4byte	0x5c28f5c3
8000202c:	bff5c28f          	.4byte	0xbff5c28f
80002030:	0000                	.2byte	0x0
80002032:	0000                	.2byte	0x0
80002034:	0000                	.2byte	0x0
80002036:	0000                	.2byte	0x0
80002038:	0001                	.2byte	0x1
8000203a:	0000                	.2byte	0x0
8000203c:	0000                	.2byte	0x0
8000203e:	0000                	.2byte	0x0

80002040 <test_4_data>:
80002040:	5c28f5c3          	.4byte	0x5c28f5c3
80002044:	bff5c28f          	.4byte	0xbff5c28f
80002048:	5c28f5c3          	.4byte	0x5c28f5c3
8000204c:	bff5c28f          	.4byte	0xbff5c28f
80002050:	0000                	.2byte	0x0
80002052:	0000                	.2byte	0x0
80002054:	0000                	.2byte	0x0
80002056:	0000                	.2byte	0x0
80002058:	0000                	.2byte	0x0
8000205a:	0000                	.2byte	0x0
8000205c:	0000                	.2byte	0x0
8000205e:	0000                	.2byte	0x0

80002060 <test_5_data>:
80002060:	51ec                	.2byte	0x51ec
80002062:	1eb8                	.2byte	0x1eb8
80002064:	eb85                	.2byte	0xeb85
80002066:	bff5                	.2byte	0xbff5
80002068:	5c28f5c3          	.4byte	0x5c28f5c3
8000206c:	bff5c28f          	.4byte	0xbff5c28f
80002070:	0000                	.2byte	0x0
80002072:	0000                	.2byte	0x0
80002074:	0000                	.2byte	0x0
80002076:	0000                	.2byte	0x0
80002078:	0000                	.2byte	0x0
8000207a:	0000                	.2byte	0x0
8000207c:	0000                	.2byte	0x0
8000207e:	0000                	.2byte	0x0

80002080 <test_6_data>:
80002080:	51ec                	.2byte	0x51ec
80002082:	1eb8                	.2byte	0x1eb8
80002084:	eb85                	.2byte	0xeb85
80002086:	bff5                	.2byte	0xbff5
80002088:	5c28f5c3          	.4byte	0x5c28f5c3
8000208c:	bff5c28f          	.4byte	0xbff5c28f
80002090:	0000                	.2byte	0x0
80002092:	0000                	.2byte	0x0
80002094:	0000                	.2byte	0x0
80002096:	0000                	.2byte	0x0
80002098:	0001                	.2byte	0x1
8000209a:	0000                	.2byte	0x0
8000209c:	0000                	.2byte	0x0
8000209e:	0000                	.2byte	0x0

800020a0 <test_7_data>:
800020a0:	51ec                	.2byte	0x51ec
800020a2:	1eb8                	.2byte	0x1eb8
800020a4:	eb85                	.2byte	0xeb85
800020a6:	bff5                	.2byte	0xbff5
800020a8:	5c28f5c3          	.4byte	0x5c28f5c3
800020ac:	bff5c28f          	.4byte	0xbff5c28f
800020b0:	0000                	.2byte	0x0
800020b2:	0000                	.2byte	0x0
800020b4:	0000                	.2byte	0x0
800020b6:	0000                	.2byte	0x0
800020b8:	0001                	.2byte	0x1
800020ba:	0000                	.2byte	0x0
800020bc:	0000                	.2byte	0x0
800020be:	0000                	.2byte	0x0

800020c0 <test_8_data>:
800020c0:	ffff                	.2byte	0xffff
800020c2:	ffff                	.2byte	0xffff
800020c4:	ffff                	.2byte	0xffff
800020c6:	7fff                	.2byte	0x7fff
800020c8:	0000                	.2byte	0x0
800020ca:	0000                	.2byte	0x0
800020cc:	0000                	.2byte	0x0
800020ce:	0000                	.2byte	0x0
800020d0:	0000                	.2byte	0x0
800020d2:	0000                	.2byte	0x0
800020d4:	0000                	.2byte	0x0
800020d6:	0000                	.2byte	0x0
800020d8:	0000                	.2byte	0x0
800020da:	0000                	.2byte	0x0
800020dc:	0000                	.2byte	0x0
800020de:	0000                	.2byte	0x0

800020e0 <test_9_data>:
800020e0:	ffff                	.2byte	0xffff
800020e2:	ffff                	.2byte	0xffff
800020e4:	ffff                	.2byte	0xffff
800020e6:	7fff                	.2byte	0x7fff
800020e8:	ffff                	.2byte	0xffff
800020ea:	ffff                	.2byte	0xffff
800020ec:	ffff                	.2byte	0xffff
800020ee:	7fff                	.2byte	0x7fff
800020f0:	0000                	.2byte	0x0
800020f2:	0000                	.2byte	0x0
800020f4:	0000                	.2byte	0x0
800020f6:	0000                	.2byte	0x0
800020f8:	0000                	.2byte	0x0
800020fa:	0000                	.2byte	0x0
800020fc:	0000                	.2byte	0x0
800020fe:	0000                	.2byte	0x0

80002100 <test_10_data>:
80002100:	0001                	.2byte	0x1
80002102:	0000                	.2byte	0x0
80002104:	0000                	.2byte	0x0
80002106:	7ff0                	.2byte	0x7ff0
80002108:	0000                	.2byte	0x0
8000210a:	0000                	.2byte	0x0
8000210c:	0000                	.2byte	0x0
8000210e:	0000                	.2byte	0x0
80002110:	0000                	.2byte	0x0
80002112:	0000                	.2byte	0x0
80002114:	0000                	.2byte	0x0
80002116:	0000                	.2byte	0x0
80002118:	0000                	.2byte	0x0
8000211a:	0000                	.2byte	0x0
8000211c:	0000                	.2byte	0x0
8000211e:	0000                	.2byte	0x0

80002120 <test_11_data>:
80002120:	ffff                	.2byte	0xffff
80002122:	ffff                	.2byte	0xffff
80002124:	ffff                	.2byte	0xffff
80002126:	7fff                	.2byte	0x7fff
80002128:	0000                	.2byte	0x0
8000212a:	0000                	.2byte	0x0
8000212c:	0000                	.2byte	0x0
8000212e:	0000                	.2byte	0x0
80002130:	0000                	.2byte	0x0
80002132:	0000                	.2byte	0x0
80002134:	0000                	.2byte	0x0
80002136:	0000                	.2byte	0x0
80002138:	0000                	.2byte	0x0
8000213a:	0000                	.2byte	0x0
8000213c:	0000                	.2byte	0x0
8000213e:	0000                	.2byte	0x0

80002140 <test_12_data>:
80002140:	ffff                	.2byte	0xffff
80002142:	ffff                	.2byte	0xffff
80002144:	ffff                	.2byte	0xffff
80002146:	7fff                	.2byte	0x7fff
80002148:	ffff                	.2byte	0xffff
8000214a:	ffff                	.2byte	0xffff
8000214c:	ffff                	.2byte	0xffff
8000214e:	7fff                	.2byte	0x7fff
80002150:	0000                	.2byte	0x0
80002152:	0000                	.2byte	0x0
80002154:	0000                	.2byte	0x0
80002156:	0000                	.2byte	0x0
80002158:	0000                	.2byte	0x0
8000215a:	0000                	.2byte	0x0
8000215c:	0000                	.2byte	0x0
8000215e:	0000                	.2byte	0x0

80002160 <test_13_data>:
80002160:	0001                	.2byte	0x1
80002162:	0000                	.2byte	0x0
80002164:	0000                	.2byte	0x0
80002166:	7ff0                	.2byte	0x7ff0
80002168:	0000                	.2byte	0x0
8000216a:	0000                	.2byte	0x0
8000216c:	0000                	.2byte	0x0
8000216e:	0000                	.2byte	0x0
80002170:	0000                	.2byte	0x0
80002172:	0000                	.2byte	0x0
80002174:	0000                	.2byte	0x0
80002176:	0000                	.2byte	0x0
80002178:	0000                	.2byte	0x0
8000217a:	0000                	.2byte	0x0
8000217c:	0000                	.2byte	0x0
8000217e:	0000                	.2byte	0x0

80002180 <test_14_data>:
80002180:	ffff                	.2byte	0xffff
80002182:	ffff                	.2byte	0xffff
80002184:	ffff                	.2byte	0xffff
80002186:	7fff                	.2byte	0x7fff
80002188:	0000                	.2byte	0x0
8000218a:	0000                	.2byte	0x0
8000218c:	0000                	.2byte	0x0
8000218e:	0000                	.2byte	0x0
80002190:	0000                	.2byte	0x0
80002192:	0000                	.2byte	0x0
80002194:	0000                	.2byte	0x0
80002196:	0000                	.2byte	0x0
80002198:	0000                	.2byte	0x0
8000219a:	0000                	.2byte	0x0
8000219c:	0000                	.2byte	0x0
8000219e:	0000                	.2byte	0x0

800021a0 <test_15_data>:
800021a0:	ffff                	.2byte	0xffff
800021a2:	ffff                	.2byte	0xffff
800021a4:	ffff                	.2byte	0xffff
800021a6:	7fff                	.2byte	0x7fff
800021a8:	ffff                	.2byte	0xffff
800021aa:	ffff                	.2byte	0xffff
800021ac:	ffff                	.2byte	0xffff
800021ae:	7fff                	.2byte	0x7fff
800021b0:	0000                	.2byte	0x0
800021b2:	0000                	.2byte	0x0
800021b4:	0000                	.2byte	0x0
800021b6:	0000                	.2byte	0x0
800021b8:	0000                	.2byte	0x0
800021ba:	0000                	.2byte	0x0
800021bc:	0000                	.2byte	0x0
800021be:	0000                	.2byte	0x0

800021c0 <test_16_data>:
800021c0:	0001                	.2byte	0x1
800021c2:	0000                	.2byte	0x0
800021c4:	0000                	.2byte	0x0
800021c6:	7ff0                	.2byte	0x7ff0
800021c8:	0000                	.2byte	0x0
800021ca:	0000                	.2byte	0x0
800021cc:	0000                	.2byte	0x0
800021ce:	0000                	.2byte	0x0
800021d0:	0000                	.2byte	0x0
800021d2:	0000                	.2byte	0x0
800021d4:	0000                	.2byte	0x0
800021d6:	0000                	.2byte	0x0
800021d8:	0000                	.2byte	0x0
800021da:	0000                	.2byte	0x0
800021dc:	0000                	.2byte	0x0
800021de:	0000                	.2byte	0x0

800021e0 <hello>:
800021e0:	6948                	.2byte	0x6948
800021e2:	2074                	.2byte	0x2074
800021e4:	646f6f67          	.4byte	0x646f6f67
800021e8:	7420                	.2byte	0x7420
800021ea:	6172                	.2byte	0x6172
800021ec:	2170                	.2byte	0x2170
800021ee:	000a                	.2byte	0xa

800021f0 <goodbye>:
800021f0:	6948                	.2byte	0x6948
800021f2:	2074                	.2byte	0x2074
800021f4:	6162                	.2byte	0x6162
800021f6:	6464                	.2byte	0x6464
800021f8:	7420                	.2byte	0x7420
800021fa:	6172                	.2byte	0x6172
800021fc:	2170                	.2byte	0x2170
800021fe:	000a                	.2byte	0xa
