
rv32ud-p-fmin:     file format elf32-littleriscv


Disassembly of section .text:

80001000 <test_2>:
80001000:	00200193          	li	gp,2
80001004:	00001517          	auipc	a0,0x1
80001008:	ffc50513          	addi	a0,a0,-4 # 80002000 <test_2_data>
8000100c:	00053007          	fld	ft0,0(a0)
80001010:	00853087          	fld	ft1,8(a0)
80001014:	01053107          	fld	ft2,16(a0)
80001018:	01852683          	lw	a3,24(a0)
8000101c:	01c52303          	lw	t1,28(a0)
80001020:	2a1001d3          	fmin.d	ft3,ft0,ft1
80001024:	00353027          	fsd	ft3,0(a0)
80001028:	00452383          	lw	t2,4(a0)
8000102c:	00052503          	lw	a0,0(a0)
80001030:	001015f3          	fsflags	a1,zero
80001034:	00000613          	li	a2,0
80001038:	48d51a63          	bne	a0,a3,800014cc <fail>
8000103c:	48731863          	bne	t1,t2,800014cc <fail>
80001040:	48c59663          	bne	a1,a2,800014cc <fail>

80001044 <test_3>:
80001044:	00300193          	li	gp,3
80001048:	00001517          	auipc	a0,0x1
8000104c:	fd850513          	addi	a0,a0,-40 # 80002020 <test_3_data>
80001050:	00053007          	fld	ft0,0(a0)
80001054:	00853087          	fld	ft1,8(a0)
80001058:	01053107          	fld	ft2,16(a0)
8000105c:	01852683          	lw	a3,24(a0)
80001060:	01c52303          	lw	t1,28(a0)
80001064:	2a1001d3          	fmin.d	ft3,ft0,ft1
80001068:	00353027          	fsd	ft3,0(a0)
8000106c:	00452383          	lw	t2,4(a0)
80001070:	00052503          	lw	a0,0(a0)
80001074:	001015f3          	fsflags	a1,zero
80001078:	00000613          	li	a2,0
8000107c:	44d51863          	bne	a0,a3,800014cc <fail>
80001080:	44731663          	bne	t1,t2,800014cc <fail>
80001084:	44c59463          	bne	a1,a2,800014cc <fail>

80001088 <test_4>:
80001088:	00400193          	li	gp,4
8000108c:	00001517          	auipc	a0,0x1
80001090:	fb450513          	addi	a0,a0,-76 # 80002040 <test_4_data>
80001094:	00053007          	fld	ft0,0(a0)
80001098:	00853087          	fld	ft1,8(a0)
8000109c:	01053107          	fld	ft2,16(a0)
800010a0:	01852683          	lw	a3,24(a0)
800010a4:	01c52303          	lw	t1,28(a0)
800010a8:	2a1001d3          	fmin.d	ft3,ft0,ft1
800010ac:	00353027          	fsd	ft3,0(a0)
800010b0:	00452383          	lw	t2,4(a0)
800010b4:	00052503          	lw	a0,0(a0)
800010b8:	001015f3          	fsflags	a1,zero
800010bc:	00000613          	li	a2,0
800010c0:	40d51663          	bne	a0,a3,800014cc <fail>
800010c4:	40731463          	bne	t1,t2,800014cc <fail>
800010c8:	40c59263          	bne	a1,a2,800014cc <fail>

800010cc <test_5>:
800010cc:	00500193          	li	gp,5
800010d0:	00001517          	auipc	a0,0x1
800010d4:	f9050513          	addi	a0,a0,-112 # 80002060 <test_5_data>
800010d8:	00053007          	fld	ft0,0(a0)
800010dc:	00853087          	fld	ft1,8(a0)
800010e0:	01053107          	fld	ft2,16(a0)
800010e4:	01852683          	lw	a3,24(a0)
800010e8:	01c52303          	lw	t1,28(a0)
800010ec:	2a1001d3          	fmin.d	ft3,ft0,ft1
800010f0:	00353027          	fsd	ft3,0(a0)
800010f4:	00452383          	lw	t2,4(a0)
800010f8:	00052503          	lw	a0,0(a0)
800010fc:	001015f3          	fsflags	a1,zero
80001100:	00000613          	li	a2,0
80001104:	3cd51463          	bne	a0,a3,800014cc <fail>
80001108:	3c731263          	bne	t1,t2,800014cc <fail>
8000110c:	3cc59063          	bne	a1,a2,800014cc <fail>

80001110 <test_6>:
80001110:	00600193          	li	gp,6
80001114:	00001517          	auipc	a0,0x1
80001118:	f6c50513          	addi	a0,a0,-148 # 80002080 <test_6_data>
8000111c:	00053007          	fld	ft0,0(a0)
80001120:	00853087          	fld	ft1,8(a0)
80001124:	01053107          	fld	ft2,16(a0)
80001128:	01852683          	lw	a3,24(a0)
8000112c:	01c52303          	lw	t1,28(a0)
80001130:	2a1001d3          	fmin.d	ft3,ft0,ft1
80001134:	00353027          	fsd	ft3,0(a0)
80001138:	00452383          	lw	t2,4(a0)
8000113c:	00052503          	lw	a0,0(a0)
80001140:	001015f3          	fsflags	a1,zero
80001144:	00000613          	li	a2,0
80001148:	38d51263          	bne	a0,a3,800014cc <fail>
8000114c:	38731063          	bne	t1,t2,800014cc <fail>
80001150:	36c59e63          	bne	a1,a2,800014cc <fail>

80001154 <test_7>:
80001154:	00700193          	li	gp,7
80001158:	00001517          	auipc	a0,0x1
8000115c:	f4850513          	addi	a0,a0,-184 # 800020a0 <test_7_data>
80001160:	00053007          	fld	ft0,0(a0)
80001164:	00853087          	fld	ft1,8(a0)
80001168:	01053107          	fld	ft2,16(a0)
8000116c:	01852683          	lw	a3,24(a0)
80001170:	01c52303          	lw	t1,28(a0)
80001174:	2a1001d3          	fmin.d	ft3,ft0,ft1
80001178:	00353027          	fsd	ft3,0(a0)
8000117c:	00452383          	lw	t2,4(a0)
80001180:	00052503          	lw	a0,0(a0)
80001184:	001015f3          	fsflags	a1,zero
80001188:	00000613          	li	a2,0
8000118c:	34d51063          	bne	a0,a3,800014cc <fail>
80001190:	32731e63          	bne	t1,t2,800014cc <fail>
80001194:	32c59c63          	bne	a1,a2,800014cc <fail>

80001198 <test_12>:
80001198:	00c00193          	li	gp,12
8000119c:	00001517          	auipc	a0,0x1
800011a0:	f2450513          	addi	a0,a0,-220 # 800020c0 <test_12_data>
800011a4:	00053007          	fld	ft0,0(a0)
800011a8:	00853087          	fld	ft1,8(a0)
800011ac:	01053107          	fld	ft2,16(a0)
800011b0:	01852683          	lw	a3,24(a0)
800011b4:	01c52303          	lw	t1,28(a0)
800011b8:	2a1011d3          	fmax.d	ft3,ft0,ft1
800011bc:	00353027          	fsd	ft3,0(a0)
800011c0:	00452383          	lw	t2,4(a0)
800011c4:	00052503          	lw	a0,0(a0)
800011c8:	001015f3          	fsflags	a1,zero
800011cc:	00000613          	li	a2,0
800011d0:	2ed51e63          	bne	a0,a3,800014cc <fail>
800011d4:	2e731c63          	bne	t1,t2,800014cc <fail>
800011d8:	2ec59a63          	bne	a1,a2,800014cc <fail>

800011dc <test_13>:
800011dc:	00d00193          	li	gp,13
800011e0:	00001517          	auipc	a0,0x1
800011e4:	f0050513          	addi	a0,a0,-256 # 800020e0 <test_13_data>
800011e8:	00053007          	fld	ft0,0(a0)
800011ec:	00853087          	fld	ft1,8(a0)
800011f0:	01053107          	fld	ft2,16(a0)
800011f4:	01852683          	lw	a3,24(a0)
800011f8:	01c52303          	lw	t1,28(a0)
800011fc:	2a1011d3          	fmax.d	ft3,ft0,ft1
80001200:	00353027          	fsd	ft3,0(a0)
80001204:	00452383          	lw	t2,4(a0)
80001208:	00052503          	lw	a0,0(a0)
8000120c:	001015f3          	fsflags	a1,zero
80001210:	00000613          	li	a2,0
80001214:	2ad51c63          	bne	a0,a3,800014cc <fail>
80001218:	2a731a63          	bne	t1,t2,800014cc <fail>
8000121c:	2ac59863          	bne	a1,a2,800014cc <fail>

80001220 <test_14>:
80001220:	00e00193          	li	gp,14
80001224:	00001517          	auipc	a0,0x1
80001228:	edc50513          	addi	a0,a0,-292 # 80002100 <test_14_data>
8000122c:	00053007          	fld	ft0,0(a0)
80001230:	00853087          	fld	ft1,8(a0)
80001234:	01053107          	fld	ft2,16(a0)
80001238:	01852683          	lw	a3,24(a0)
8000123c:	01c52303          	lw	t1,28(a0)
80001240:	2a1011d3          	fmax.d	ft3,ft0,ft1
80001244:	00353027          	fsd	ft3,0(a0)
80001248:	00452383          	lw	t2,4(a0)
8000124c:	00052503          	lw	a0,0(a0)
80001250:	001015f3          	fsflags	a1,zero
80001254:	00000613          	li	a2,0
80001258:	26d51a63          	bne	a0,a3,800014cc <fail>
8000125c:	26731863          	bne	t1,t2,800014cc <fail>
80001260:	26c59663          	bne	a1,a2,800014cc <fail>

80001264 <test_15>:
80001264:	00f00193          	li	gp,15
80001268:	00001517          	auipc	a0,0x1
8000126c:	eb850513          	addi	a0,a0,-328 # 80002120 <test_15_data>
80001270:	00053007          	fld	ft0,0(a0)
80001274:	00853087          	fld	ft1,8(a0)
80001278:	01053107          	fld	ft2,16(a0)
8000127c:	01852683          	lw	a3,24(a0)
80001280:	01c52303          	lw	t1,28(a0)
80001284:	2a1011d3          	fmax.d	ft3,ft0,ft1
80001288:	00353027          	fsd	ft3,0(a0)
8000128c:	00452383          	lw	t2,4(a0)
80001290:	00052503          	lw	a0,0(a0)
80001294:	001015f3          	fsflags	a1,zero
80001298:	00000613          	li	a2,0
8000129c:	22d51863          	bne	a0,a3,800014cc <fail>
800012a0:	22731663          	bne	t1,t2,800014cc <fail>
800012a4:	22c59463          	bne	a1,a2,800014cc <fail>

800012a8 <test_16>:
800012a8:	01000193          	li	gp,16
800012ac:	00001517          	auipc	a0,0x1
800012b0:	e9450513          	addi	a0,a0,-364 # 80002140 <test_16_data>
800012b4:	00053007          	fld	ft0,0(a0)
800012b8:	00853087          	fld	ft1,8(a0)
800012bc:	01053107          	fld	ft2,16(a0)
800012c0:	01852683          	lw	a3,24(a0)
800012c4:	01c52303          	lw	t1,28(a0)
800012c8:	2a1011d3          	fmax.d	ft3,ft0,ft1
800012cc:	00353027          	fsd	ft3,0(a0)
800012d0:	00452383          	lw	t2,4(a0)
800012d4:	00052503          	lw	a0,0(a0)
800012d8:	001015f3          	fsflags	a1,zero
800012dc:	00000613          	li	a2,0
800012e0:	1ed51663          	bne	a0,a3,800014cc <fail>
800012e4:	1e731463          	bne	t1,t2,800014cc <fail>
800012e8:	1ec59263          	bne	a1,a2,800014cc <fail>

800012ec <test_17>:
800012ec:	01100193          	li	gp,17
800012f0:	00001517          	auipc	a0,0x1
800012f4:	e7050513          	addi	a0,a0,-400 # 80002160 <test_17_data>
800012f8:	00053007          	fld	ft0,0(a0)
800012fc:	00853087          	fld	ft1,8(a0)
80001300:	01053107          	fld	ft2,16(a0)
80001304:	01852683          	lw	a3,24(a0)
80001308:	01c52303          	lw	t1,28(a0)
8000130c:	2a1011d3          	fmax.d	ft3,ft0,ft1
80001310:	00353027          	fsd	ft3,0(a0)
80001314:	00452383          	lw	t2,4(a0)
80001318:	00052503          	lw	a0,0(a0)
8000131c:	001015f3          	fsflags	a1,zero
80001320:	00000613          	li	a2,0
80001324:	1ad51463          	bne	a0,a3,800014cc <fail>
80001328:	1a731263          	bne	t1,t2,800014cc <fail>
8000132c:	1ac59063          	bne	a1,a2,800014cc <fail>

80001330 <test_20>:
80001330:	01400193          	li	gp,20
80001334:	00001517          	auipc	a0,0x1
80001338:	e4c50513          	addi	a0,a0,-436 # 80002180 <test_20_data>
8000133c:	00053007          	fld	ft0,0(a0)
80001340:	00853087          	fld	ft1,8(a0)
80001344:	01053107          	fld	ft2,16(a0)
80001348:	01852683          	lw	a3,24(a0)
8000134c:	01c52303          	lw	t1,28(a0)
80001350:	2a1011d3          	fmax.d	ft3,ft0,ft1
80001354:	00353027          	fsd	ft3,0(a0)
80001358:	00452383          	lw	t2,4(a0)
8000135c:	00052503          	lw	a0,0(a0)
80001360:	001015f3          	fsflags	a1,zero
80001364:	01000613          	li	a2,16
80001368:	16d51263          	bne	a0,a3,800014cc <fail>
8000136c:	16731063          	bne	t1,t2,800014cc <fail>
80001370:	14c59e63          	bne	a1,a2,800014cc <fail>

80001374 <test_21>:
80001374:	01500193          	li	gp,21
80001378:	00001517          	auipc	a0,0x1
8000137c:	e2850513          	addi	a0,a0,-472 # 800021a0 <test_21_data>
80001380:	00053007          	fld	ft0,0(a0)
80001384:	00853087          	fld	ft1,8(a0)
80001388:	01053107          	fld	ft2,16(a0)
8000138c:	01852683          	lw	a3,24(a0)
80001390:	01c52303          	lw	t1,28(a0)
80001394:	2a1011d3          	fmax.d	ft3,ft0,ft1
80001398:	00353027          	fsd	ft3,0(a0)
8000139c:	00452383          	lw	t2,4(a0)
800013a0:	00052503          	lw	a0,0(a0)
800013a4:	001015f3          	fsflags	a1,zero
800013a8:	00000613          	li	a2,0
800013ac:	12d51063          	bne	a0,a3,800014cc <fail>
800013b0:	10731e63          	bne	t1,t2,800014cc <fail>
800013b4:	10c59c63          	bne	a1,a2,800014cc <fail>

800013b8 <test_30>:
800013b8:	01e00193          	li	gp,30
800013bc:	00001517          	auipc	a0,0x1
800013c0:	e0450513          	addi	a0,a0,-508 # 800021c0 <test_30_data>
800013c4:	00053007          	fld	ft0,0(a0)
800013c8:	00853087          	fld	ft1,8(a0)
800013cc:	01053107          	fld	ft2,16(a0)
800013d0:	01852683          	lw	a3,24(a0)
800013d4:	01c52303          	lw	t1,28(a0)
800013d8:	2a1001d3          	fmin.d	ft3,ft0,ft1
800013dc:	00353027          	fsd	ft3,0(a0)
800013e0:	00452383          	lw	t2,4(a0)
800013e4:	00052503          	lw	a0,0(a0)
800013e8:	001015f3          	fsflags	a1,zero
800013ec:	00000613          	li	a2,0
800013f0:	0cd51e63          	bne	a0,a3,800014cc <fail>
800013f4:	0c731c63          	bne	t1,t2,800014cc <fail>
800013f8:	0cc59a63          	bne	a1,a2,800014cc <fail>

800013fc <test_31>:
800013fc:	01f00193          	li	gp,31
80001400:	00001517          	auipc	a0,0x1
80001404:	de050513          	addi	a0,a0,-544 # 800021e0 <test_31_data>
80001408:	00053007          	fld	ft0,0(a0)
8000140c:	00853087          	fld	ft1,8(a0)
80001410:	01053107          	fld	ft2,16(a0)
80001414:	01852683          	lw	a3,24(a0)
80001418:	01c52303          	lw	t1,28(a0)
8000141c:	2a1001d3          	fmin.d	ft3,ft0,ft1
80001420:	00353027          	fsd	ft3,0(a0)
80001424:	00452383          	lw	t2,4(a0)
80001428:	00052503          	lw	a0,0(a0)
8000142c:	001015f3          	fsflags	a1,zero
80001430:	00000613          	li	a2,0
80001434:	08d51c63          	bne	a0,a3,800014cc <fail>
80001438:	08731a63          	bne	t1,t2,800014cc <fail>
8000143c:	08c59863          	bne	a1,a2,800014cc <fail>

80001440 <test_32>:
80001440:	02000193          	li	gp,32
80001444:	00001517          	auipc	a0,0x1
80001448:	dbc50513          	addi	a0,a0,-580 # 80002200 <test_32_data>
8000144c:	00053007          	fld	ft0,0(a0)
80001450:	00853087          	fld	ft1,8(a0)
80001454:	01053107          	fld	ft2,16(a0)
80001458:	01852683          	lw	a3,24(a0)
8000145c:	01c52303          	lw	t1,28(a0)
80001460:	2a1011d3          	fmax.d	ft3,ft0,ft1
80001464:	00353027          	fsd	ft3,0(a0)
80001468:	00452383          	lw	t2,4(a0)
8000146c:	00052503          	lw	a0,0(a0)
80001470:	001015f3          	fsflags	a1,zero
80001474:	00000613          	li	a2,0
80001478:	04d51a63          	bne	a0,a3,800014cc <fail>
8000147c:	04731863          	bne	t1,t2,800014cc <fail>
80001480:	04c59663          	bne	a1,a2,800014cc <fail>

80001484 <test_33>:
80001484:	02100193          	li	gp,33
80001488:	00001517          	auipc	a0,0x1
8000148c:	d9850513          	addi	a0,a0,-616 # 80002220 <test_33_data>
80001490:	00053007          	fld	ft0,0(a0)
80001494:	00853087          	fld	ft1,8(a0)
80001498:	01053107          	fld	ft2,16(a0)
8000149c:	01852683          	lw	a3,24(a0)
800014a0:	01c52303          	lw	t1,28(a0)
800014a4:	2a1011d3          	fmax.d	ft3,ft0,ft1
800014a8:	00353027          	fsd	ft3,0(a0)
800014ac:	00452383          	lw	t2,4(a0)
800014b0:	00052503          	lw	a0,0(a0)
800014b4:	001015f3          	fsflags	a1,zero
800014b8:	00000613          	li	a2,0
800014bc:	00d51863          	bne	a0,a3,800014cc <fail>
800014c0:	00731663          	bne	t1,t2,800014cc <fail>
800014c4:	00c59463          	bne	a1,a2,800014cc <fail>
800014c8:	02301a63          	bne	zero,gp,800014fc <pass>

800014cc <fail>:
800014cc:	0ff0000f          	fence
800014d0:	00001597          	auipc	a1,0x1
800014d4:	d7058593          	addi	a1,a1,-656 # 80002240 <hello>
800014d8:	00f00613          	li	a2,15
800014dc:	04000893          	li	a7,64
800014e0:	00000073          	ecall
800014e4:	00018063          	beqz	gp,800014e4 <fail+0x18>
800014e8:	00119193          	slli	gp,gp,0x1
800014ec:	0011e193          	ori	gp,gp,1
800014f0:	05d00893          	li	a7,93
800014f4:	00018513          	mv	a0,gp
800014f8:	00000073          	ecall

800014fc <pass>:
800014fc:	0ff0000f          	fence
80001500:	00100513          	li	a0,1
80001504:	00001597          	auipc	a1,0x1
80001508:	d3c58593          	addi	a1,a1,-708 # 80002240 <hello>
8000150c:	00f00613          	li	a2,15
80001510:	04000893          	li	a7,64
80001514:	00000073          	ecall
80001518:	00100193          	li	gp,1
8000151c:	05d00893          	li	a7,93
80001520:	00000513          	li	a0,0
80001524:	00000073          	ecall
80001528:	c0001073          	unimp

Disassembly of section .data:

80002000 <test_2_data>:
80002000:	0000                	.2byte	0x0
80002002:	0000                	.2byte	0x0
80002004:	0000                	.2byte	0x0
80002006:	4004                	.2byte	0x4004
80002008:	0000                	.2byte	0x0
8000200a:	0000                	.2byte	0x0
8000200c:	0000                	.2byte	0x0
8000200e:	3ff0                	.2byte	0x3ff0
80002010:	0000                	.2byte	0x0
80002012:	0000                	.2byte	0x0
80002014:	0000                	.2byte	0x0
80002016:	0000                	.2byte	0x0
80002018:	0000                	.2byte	0x0
8000201a:	0000                	.2byte	0x0
8000201c:	0000                	.2byte	0x0
8000201e:	3ff0                	.2byte	0x3ff0

80002020 <test_3_data>:
80002020:	6666                	.2byte	0x6666
80002022:	6666                	.2byte	0x6666
80002024:	4c66                	.2byte	0x4c66
80002026:	999ac093          	xori	ra,s5,-1639
8000202a:	9999                	.2byte	0x9999
8000202c:	9999                	.2byte	0x9999
8000202e:	3ff1                	.2byte	0x3ff1
80002030:	0000                	.2byte	0x0
80002032:	0000                	.2byte	0x0
80002034:	0000                	.2byte	0x0
80002036:	0000                	.2byte	0x0
80002038:	6666                	.2byte	0x6666
8000203a:	6666                	.2byte	0x6666
8000203c:	4c66                	.2byte	0x4c66
8000203e:	          	xori	ra,s5,-1639

80002040 <test_4_data>:
80002040:	999a                	.2byte	0x999a
80002042:	9999                	.2byte	0x9999
80002044:	9999                	.2byte	0x9999
80002046:	3ff1                	.2byte	0x3ff1
80002048:	6666                	.2byte	0x6666
8000204a:	6666                	.2byte	0x6666
8000204c:	4c66                	.2byte	0x4c66
8000204e:	0000c093          	xori	ra,ra,0
80002052:	0000                	.2byte	0x0
80002054:	0000                	.2byte	0x0
80002056:	0000                	.2byte	0x0
80002058:	6666                	.2byte	0x6666
8000205a:	6666                	.2byte	0x6666
8000205c:	4c66                	.2byte	0x4c66
8000205e:	          	not	ra,t6

80002060 <test_5_data>:
80002060:	ffff                	.2byte	0xffff
80002062:	ffff                	.2byte	0xffff
80002064:	ffff                	.2byte	0xffff
80002066:	7fff                	.2byte	0x7fff
80002068:	6666                	.2byte	0x6666
8000206a:	6666                	.2byte	0x6666
8000206c:	4c66                	.2byte	0x4c66
8000206e:	0000c093          	xori	ra,ra,0
80002072:	0000                	.2byte	0x0
80002074:	0000                	.2byte	0x0
80002076:	0000                	.2byte	0x0
80002078:	6666                	.2byte	0x6666
8000207a:	6666                	.2byte	0x6666
8000207c:	4c66                	.2byte	0x4c66
8000207e:	          	xori	ra,gp,-689

80002080 <test_6_data>:
80002080:	d4f1                	.2byte	0xd4f1
80002082:	53c8                	.2byte	0x53c8
80002084:	400921fb          	.4byte	0x400921fb
80002088:	8c3a                	.2byte	0x8c3a
8000208a:	e230                	.2byte	0xe230
8000208c:	798e                	.2byte	0x798e
8000208e:	3e45                	.2byte	0x3e45
80002090:	0000                	.2byte	0x0
80002092:	0000                	.2byte	0x0
80002094:	0000                	.2byte	0x0
80002096:	0000                	.2byte	0x0
80002098:	8c3a                	.2byte	0x8c3a
8000209a:	e230                	.2byte	0xe230
8000209c:	798e                	.2byte	0x798e
8000209e:	3e45                	.2byte	0x3e45

800020a0 <test_7_data>:
800020a0:	0000                	.2byte	0x0
800020a2:	0000                	.2byte	0x0
800020a4:	0000                	.2byte	0x0
800020a6:	bff0                	.2byte	0xbff0
800020a8:	0000                	.2byte	0x0
800020aa:	0000                	.2byte	0x0
800020ac:	0000                	.2byte	0x0
800020ae:	c000                	.2byte	0xc000
800020b0:	0000                	.2byte	0x0
800020b2:	0000                	.2byte	0x0
800020b4:	0000                	.2byte	0x0
800020b6:	0000                	.2byte	0x0
800020b8:	0000                	.2byte	0x0
800020ba:	0000                	.2byte	0x0
800020bc:	0000                	.2byte	0x0
800020be:	c000                	.2byte	0xc000

800020c0 <test_12_data>:
800020c0:	0000                	.2byte	0x0
800020c2:	0000                	.2byte	0x0
800020c4:	0000                	.2byte	0x0
800020c6:	4004                	.2byte	0x4004
800020c8:	0000                	.2byte	0x0
800020ca:	0000                	.2byte	0x0
800020cc:	0000                	.2byte	0x0
800020ce:	3ff0                	.2byte	0x3ff0
800020d0:	0000                	.2byte	0x0
800020d2:	0000                	.2byte	0x0
800020d4:	0000                	.2byte	0x0
800020d6:	0000                	.2byte	0x0
800020d8:	0000                	.2byte	0x0
800020da:	0000                	.2byte	0x0
800020dc:	0000                	.2byte	0x0
800020de:	4004                	.2byte	0x4004

800020e0 <test_13_data>:
800020e0:	6666                	.2byte	0x6666
800020e2:	6666                	.2byte	0x6666
800020e4:	4c66                	.2byte	0x4c66
800020e6:	999ac093          	xori	ra,s5,-1639
800020ea:	9999                	.2byte	0x9999
800020ec:	9999                	.2byte	0x9999
800020ee:	3ff1                	.2byte	0x3ff1
800020f0:	0000                	.2byte	0x0
800020f2:	0000                	.2byte	0x0
800020f4:	0000                	.2byte	0x0
800020f6:	0000                	.2byte	0x0
800020f8:	999a                	.2byte	0x999a
800020fa:	9999                	.2byte	0x9999
800020fc:	9999                	.2byte	0x9999
800020fe:	3ff1                	.2byte	0x3ff1

80002100 <test_14_data>:
80002100:	999a                	.2byte	0x999a
80002102:	9999                	.2byte	0x9999
80002104:	9999                	.2byte	0x9999
80002106:	3ff1                	.2byte	0x3ff1
80002108:	6666                	.2byte	0x6666
8000210a:	6666                	.2byte	0x6666
8000210c:	4c66                	.2byte	0x4c66
8000210e:	0000c093          	xori	ra,ra,0
80002112:	0000                	.2byte	0x0
80002114:	0000                	.2byte	0x0
80002116:	0000                	.2byte	0x0
80002118:	999a                	.2byte	0x999a
8000211a:	9999                	.2byte	0x9999
8000211c:	9999                	.2byte	0x9999
8000211e:	3ff1                	.2byte	0x3ff1

80002120 <test_15_data>:
80002120:	ffff                	.2byte	0xffff
80002122:	ffff                	.2byte	0xffff
80002124:	ffff                	.2byte	0xffff
80002126:	7fff                	.2byte	0x7fff
80002128:	6666                	.2byte	0x6666
8000212a:	6666                	.2byte	0x6666
8000212c:	4c66                	.2byte	0x4c66
8000212e:	0000c093          	xori	ra,ra,0
80002132:	0000                	.2byte	0x0
80002134:	0000                	.2byte	0x0
80002136:	0000                	.2byte	0x0
80002138:	6666                	.2byte	0x6666
8000213a:	6666                	.2byte	0x6666
8000213c:	4c66                	.2byte	0x4c66
8000213e:	          	xori	ra,gp,-689

80002140 <test_16_data>:
80002140:	d4f1                	.2byte	0xd4f1
80002142:	53c8                	.2byte	0x53c8
80002144:	400921fb          	.4byte	0x400921fb
80002148:	8c3a                	.2byte	0x8c3a
8000214a:	e230                	.2byte	0xe230
8000214c:	798e                	.2byte	0x798e
8000214e:	3e45                	.2byte	0x3e45
80002150:	0000                	.2byte	0x0
80002152:	0000                	.2byte	0x0
80002154:	0000                	.2byte	0x0
80002156:	0000                	.2byte	0x0
80002158:	d4f1                	.2byte	0xd4f1
8000215a:	53c8                	.2byte	0x53c8
8000215c:	400921fb          	.4byte	0x400921fb

80002160 <test_17_data>:
80002160:	0000                	.2byte	0x0
80002162:	0000                	.2byte	0x0
80002164:	0000                	.2byte	0x0
80002166:	bff0                	.2byte	0xbff0
80002168:	0000                	.2byte	0x0
8000216a:	0000                	.2byte	0x0
8000216c:	0000                	.2byte	0x0
8000216e:	c000                	.2byte	0xc000
80002170:	0000                	.2byte	0x0
80002172:	0000                	.2byte	0x0
80002174:	0000                	.2byte	0x0
80002176:	0000                	.2byte	0x0
80002178:	0000                	.2byte	0x0
8000217a:	0000                	.2byte	0x0
8000217c:	0000                	.2byte	0x0
8000217e:	bff0                	.2byte	0xbff0

80002180 <test_20_data>:
80002180:	0001                	.2byte	0x1
80002182:	0000                	.2byte	0x0
80002184:	0000                	.2byte	0x0
80002186:	7ff0                	.2byte	0x7ff0
80002188:	0000                	.2byte	0x0
8000218a:	0000                	.2byte	0x0
8000218c:	0000                	.2byte	0x0
8000218e:	3ff0                	.2byte	0x3ff0
80002190:	0000                	.2byte	0x0
80002192:	0000                	.2byte	0x0
80002194:	0000                	.2byte	0x0
80002196:	0000                	.2byte	0x0
80002198:	0000                	.2byte	0x0
8000219a:	0000                	.2byte	0x0
8000219c:	0000                	.2byte	0x0
8000219e:	3ff0                	.2byte	0x3ff0

800021a0 <test_21_data>:
800021a0:	ffff                	.2byte	0xffff
800021a2:	ffff                	.2byte	0xffff
800021a4:	ffff                	.2byte	0xffff
800021a6:	7fff                	.2byte	0x7fff
800021a8:	ffff                	.2byte	0xffff
800021aa:	ffff                	.2byte	0xffff
800021ac:	ffff                	.2byte	0xffff
800021ae:	7fff                	.2byte	0x7fff
800021b0:	0000                	.2byte	0x0
800021b2:	0000                	.2byte	0x0
800021b4:	0000                	.2byte	0x0
800021b6:	0000                	.2byte	0x0
800021b8:	0000                	.2byte	0x0
800021ba:	0000                	.2byte	0x0
800021bc:	0000                	.2byte	0x0
800021be:	7ff8                	.2byte	0x7ff8

800021c0 <test_30_data>:
800021c0:	0000                	.2byte	0x0
800021c2:	0000                	.2byte	0x0
800021c4:	0000                	.2byte	0x0
800021c6:	8000                	.2byte	0x8000
800021c8:	0000                	.2byte	0x0
800021ca:	0000                	.2byte	0x0
800021cc:	0000                	.2byte	0x0
800021ce:	0000                	.2byte	0x0
800021d0:	0000                	.2byte	0x0
800021d2:	0000                	.2byte	0x0
800021d4:	0000                	.2byte	0x0
800021d6:	0000                	.2byte	0x0
800021d8:	0000                	.2byte	0x0
800021da:	0000                	.2byte	0x0
800021dc:	0000                	.2byte	0x0
800021de:	8000                	.2byte	0x8000

800021e0 <test_31_data>:
800021e0:	0000                	.2byte	0x0
800021e2:	0000                	.2byte	0x0
800021e4:	0000                	.2byte	0x0
800021e6:	0000                	.2byte	0x0
800021e8:	0000                	.2byte	0x0
800021ea:	0000                	.2byte	0x0
800021ec:	0000                	.2byte	0x0
800021ee:	8000                	.2byte	0x8000
800021f0:	0000                	.2byte	0x0
800021f2:	0000                	.2byte	0x0
800021f4:	0000                	.2byte	0x0
800021f6:	0000                	.2byte	0x0
800021f8:	0000                	.2byte	0x0
800021fa:	0000                	.2byte	0x0
800021fc:	0000                	.2byte	0x0
800021fe:	8000                	.2byte	0x8000

80002200 <test_32_data>:
80002200:	0000                	.2byte	0x0
80002202:	0000                	.2byte	0x0
80002204:	0000                	.2byte	0x0
80002206:	8000                	.2byte	0x8000
80002208:	0000                	.2byte	0x0
8000220a:	0000                	.2byte	0x0
8000220c:	0000                	.2byte	0x0
8000220e:	0000                	.2byte	0x0
80002210:	0000                	.2byte	0x0
80002212:	0000                	.2byte	0x0
80002214:	0000                	.2byte	0x0
80002216:	0000                	.2byte	0x0
80002218:	0000                	.2byte	0x0
8000221a:	0000                	.2byte	0x0
8000221c:	0000                	.2byte	0x0
8000221e:	0000                	.2byte	0x0

80002220 <test_33_data>:
80002220:	0000                	.2byte	0x0
80002222:	0000                	.2byte	0x0
80002224:	0000                	.2byte	0x0
80002226:	0000                	.2byte	0x0
80002228:	0000                	.2byte	0x0
8000222a:	0000                	.2byte	0x0
8000222c:	0000                	.2byte	0x0
8000222e:	8000                	.2byte	0x8000
80002230:	0000                	.2byte	0x0
80002232:	0000                	.2byte	0x0
80002234:	0000                	.2byte	0x0
80002236:	0000                	.2byte	0x0
80002238:	0000                	.2byte	0x0
8000223a:	0000                	.2byte	0x0
8000223c:	0000                	.2byte	0x0
8000223e:	0000                	.2byte	0x0

80002240 <hello>:
80002240:	6948                	.2byte	0x6948
80002242:	2074                	.2byte	0x2074
80002244:	646f6f67          	.4byte	0x646f6f67
80002248:	7420                	.2byte	0x7420
8000224a:	6172                	.2byte	0x6172
8000224c:	2170                	.2byte	0x2170
8000224e:	000a                	.2byte	0xa

80002250 <goodbye>:
80002250:	6948                	.2byte	0x6948
80002252:	2074                	.2byte	0x2074
80002254:	6162                	.2byte	0x6162
80002256:	6464                	.2byte	0x6464
80002258:	7420                	.2byte	0x7420
8000225a:	6172                	.2byte	0x6172
8000225c:	2170                	.2byte	0x2170
8000225e:	000a                	.2byte	0xa
