
rv32uf-p-fclass:     file format elf32-littleriscv


Disassembly of section .text:

80001000 <test_2>:
80001000:	00200193          	li	gp,2
80001004:	ff800537          	lui	a0,0xff800
80001008:	f0050553          	fmv.w.x	fa0,a0
8000100c:	e0051553          	fclass.s	a0,fa0
80001010:	00100393          	li	t2,1
80001014:	0e751663          	bne	a0,t2,80001100 <fail>

80001018 <test_3>:
80001018:	00300193          	li	gp,3
8000101c:	bf800537          	lui	a0,0xbf800
80001020:	f0050553          	fmv.w.x	fa0,a0
80001024:	e0051553          	fclass.s	a0,fa0
80001028:	00200393          	li	t2,2
8000102c:	0c751a63          	bne	a0,t2,80001100 <fail>

80001030 <test_4>:
80001030:	00400193          	li	gp,4
80001034:	80800537          	lui	a0,0x80800
80001038:	fff50513          	addi	a0,a0,-1 # 807fffff <_end+0x7fdfdf>
8000103c:	f0050553          	fmv.w.x	fa0,a0
80001040:	e0051553          	fclass.s	a0,fa0
80001044:	00400393          	li	t2,4
80001048:	0a751c63          	bne	a0,t2,80001100 <fail>

8000104c <test_5>:
8000104c:	00500193          	li	gp,5
80001050:	80000537          	lui	a0,0x80000
80001054:	f0050553          	fmv.w.x	fa0,a0
80001058:	e0051553          	fclass.s	a0,fa0
8000105c:	00800393          	li	t2,8
80001060:	0a751063          	bne	a0,t2,80001100 <fail>

80001064 <test_6>:
80001064:	00600193          	li	gp,6
80001068:	00000513          	li	a0,0
8000106c:	f0050553          	fmv.w.x	fa0,a0
80001070:	e0051553          	fclass.s	a0,fa0
80001074:	01000393          	li	t2,16
80001078:	08751463          	bne	a0,t2,80001100 <fail>

8000107c <test_7>:
8000107c:	00700193          	li	gp,7
80001080:	00800537          	lui	a0,0x800
80001084:	fff50513          	addi	a0,a0,-1 # 7fffff <tohost-0x7f800001>
80001088:	f0050553          	fmv.w.x	fa0,a0
8000108c:	e0051553          	fclass.s	a0,fa0
80001090:	02000393          	li	t2,32
80001094:	06751663          	bne	a0,t2,80001100 <fail>

80001098 <test_8>:
80001098:	00800193          	li	gp,8
8000109c:	3f800537          	lui	a0,0x3f800
800010a0:	f0050553          	fmv.w.x	fa0,a0
800010a4:	e0051553          	fclass.s	a0,fa0
800010a8:	04000393          	li	t2,64
800010ac:	04751a63          	bne	a0,t2,80001100 <fail>

800010b0 <test_9>:
800010b0:	00900193          	li	gp,9
800010b4:	7f800537          	lui	a0,0x7f800
800010b8:	f0050553          	fmv.w.x	fa0,a0
800010bc:	e0051553          	fclass.s	a0,fa0
800010c0:	08000393          	li	t2,128
800010c4:	02751e63          	bne	a0,t2,80001100 <fail>

800010c8 <test_10>:
800010c8:	00a00193          	li	gp,10
800010cc:	7f800537          	lui	a0,0x7f800
800010d0:	00150513          	addi	a0,a0,1 # 7f800001 <tohost-0x7fffff>
800010d4:	f0050553          	fmv.w.x	fa0,a0
800010d8:	e0051553          	fclass.s	a0,fa0
800010dc:	10000393          	li	t2,256
800010e0:	02751063          	bne	a0,t2,80001100 <fail>

800010e4 <test_11>:
800010e4:	00b00193          	li	gp,11
800010e8:	7fc00537          	lui	a0,0x7fc00
800010ec:	f0050553          	fmv.w.x	fa0,a0
800010f0:	e0051553          	fclass.s	a0,fa0
800010f4:	20000393          	li	t2,512
800010f8:	00751463          	bne	a0,t2,80001100 <fail>
800010fc:	02301a63          	bne	zero,gp,80001130 <pass>

80001100 <fail>:
80001100:	0ff0000f          	fence
80001104:	00001597          	auipc	a1,0x1
80001108:	efc58593          	addi	a1,a1,-260 # 80002000 <hello>
8000110c:	00f00613          	li	a2,15
80001110:	04000893          	li	a7,64
80001114:	00000073          	ecall
80001118:	00018063          	beqz	gp,80001118 <fail+0x18>
8000111c:	00119193          	slli	gp,gp,0x1
80001120:	0011e193          	ori	gp,gp,1
80001124:	05d00893          	li	a7,93
80001128:	00018513          	mv	a0,gp
8000112c:	00000073          	ecall

80001130 <pass>:
80001130:	0ff0000f          	fence
80001134:	00100513          	li	a0,1
80001138:	00001597          	auipc	a1,0x1
8000113c:	ec858593          	addi	a1,a1,-312 # 80002000 <hello>
80001140:	00f00613          	li	a2,15
80001144:	04000893          	li	a7,64
80001148:	00000073          	ecall
8000114c:	00100193          	li	gp,1
80001150:	05d00893          	li	a7,93
80001154:	00000513          	li	a0,0
80001158:	00000073          	ecall
8000115c:	c0001073          	unimp

Disassembly of section .data:

80002000 <hello>:
80002000:	6948                	.2byte	0x6948
80002002:	2074                	.2byte	0x2074
80002004:	646f6f67          	.4byte	0x646f6f67
80002008:	7420                	.2byte	0x7420
8000200a:	6172                	.2byte	0x6172
8000200c:	2170                	.2byte	0x2170
8000200e:	000a                	.2byte	0xa

80002010 <goodbye>:
80002010:	6948                	.2byte	0x6948
80002012:	2074                	.2byte	0x2074
80002014:	6162                	.2byte	0x6162
80002016:	6464                	.2byte	0x6464
80002018:	7420                	.2byte	0x7420
8000201a:	6172                	.2byte	0x6172
8000201c:	2170                	.2byte	0x2170
8000201e:	000a                	.2byte	0xa
