
rv32ui-p-bge:     file format elf32-littleriscv


Disassembly of section .text:

80001000 <test_2>:
80001000:	00200193          	li	gp,2
80001004:	00000093          	li	ra,0
80001008:	00000113          	li	sp,0
8000100c:	0020d663          	bge	ra,sp,80001018 <test_2+0x18>
80001010:	30301863          	bne	zero,gp,80001320 <fail>
80001014:	00301663          	bne	zero,gp,80001020 <test_3>
80001018:	fe20dee3          	bge	ra,sp,80001014 <test_2+0x14>
8000101c:	30301263          	bne	zero,gp,80001320 <fail>

80001020 <test_3>:
80001020:	00300193          	li	gp,3
80001024:	00100093          	li	ra,1
80001028:	00100113          	li	sp,1
8000102c:	0020d663          	bge	ra,sp,80001038 <test_3+0x18>
80001030:	2e301863          	bne	zero,gp,80001320 <fail>
80001034:	00301663          	bne	zero,gp,80001040 <test_4>
80001038:	fe20dee3          	bge	ra,sp,80001034 <test_3+0x14>
8000103c:	2e301263          	bne	zero,gp,80001320 <fail>

80001040 <test_4>:
80001040:	00400193          	li	gp,4
80001044:	fff00093          	li	ra,-1
80001048:	fff00113          	li	sp,-1
8000104c:	0020d663          	bge	ra,sp,80001058 <test_4+0x18>
80001050:	2c301863          	bne	zero,gp,80001320 <fail>
80001054:	00301663          	bne	zero,gp,80001060 <test_5>
80001058:	fe20dee3          	bge	ra,sp,80001054 <test_4+0x14>
8000105c:	2c301263          	bne	zero,gp,80001320 <fail>

80001060 <test_5>:
80001060:	00500193          	li	gp,5
80001064:	00100093          	li	ra,1
80001068:	00000113          	li	sp,0
8000106c:	0020d663          	bge	ra,sp,80001078 <test_5+0x18>
80001070:	2a301863          	bne	zero,gp,80001320 <fail>
80001074:	00301663          	bne	zero,gp,80001080 <test_6>
80001078:	fe20dee3          	bge	ra,sp,80001074 <test_5+0x14>
8000107c:	2a301263          	bne	zero,gp,80001320 <fail>

80001080 <test_6>:
80001080:	00600193          	li	gp,6
80001084:	00100093          	li	ra,1
80001088:	fff00113          	li	sp,-1
8000108c:	0020d663          	bge	ra,sp,80001098 <test_6+0x18>
80001090:	28301863          	bne	zero,gp,80001320 <fail>
80001094:	00301663          	bne	zero,gp,800010a0 <test_7>
80001098:	fe20dee3          	bge	ra,sp,80001094 <test_6+0x14>
8000109c:	28301263          	bne	zero,gp,80001320 <fail>

800010a0 <test_7>:
800010a0:	00700193          	li	gp,7
800010a4:	fff00093          	li	ra,-1
800010a8:	ffe00113          	li	sp,-2
800010ac:	0020d663          	bge	ra,sp,800010b8 <test_7+0x18>
800010b0:	26301863          	bne	zero,gp,80001320 <fail>
800010b4:	00301663          	bne	zero,gp,800010c0 <test_8>
800010b8:	fe20dee3          	bge	ra,sp,800010b4 <test_7+0x14>
800010bc:	26301263          	bne	zero,gp,80001320 <fail>

800010c0 <test_8>:
800010c0:	00800193          	li	gp,8
800010c4:	00000093          	li	ra,0
800010c8:	00100113          	li	sp,1
800010cc:	0020d463          	bge	ra,sp,800010d4 <test_8+0x14>
800010d0:	00301463          	bne	zero,gp,800010d8 <test_8+0x18>
800010d4:	24301663          	bne	zero,gp,80001320 <fail>
800010d8:	fe20dee3          	bge	ra,sp,800010d4 <test_8+0x14>

800010dc <test_9>:
800010dc:	00900193          	li	gp,9
800010e0:	fff00093          	li	ra,-1
800010e4:	00100113          	li	sp,1
800010e8:	0020d463          	bge	ra,sp,800010f0 <test_9+0x14>
800010ec:	00301463          	bne	zero,gp,800010f4 <test_9+0x18>
800010f0:	22301863          	bne	zero,gp,80001320 <fail>
800010f4:	fe20dee3          	bge	ra,sp,800010f0 <test_9+0x14>

800010f8 <test_10>:
800010f8:	00a00193          	li	gp,10
800010fc:	ffe00093          	li	ra,-2
80001100:	fff00113          	li	sp,-1
80001104:	0020d463          	bge	ra,sp,8000110c <test_10+0x14>
80001108:	00301463          	bne	zero,gp,80001110 <test_10+0x18>
8000110c:	20301a63          	bne	zero,gp,80001320 <fail>
80001110:	fe20dee3          	bge	ra,sp,8000110c <test_10+0x14>

80001114 <test_11>:
80001114:	00b00193          	li	gp,11
80001118:	ffe00093          	li	ra,-2
8000111c:	00100113          	li	sp,1
80001120:	0020d463          	bge	ra,sp,80001128 <test_11+0x14>
80001124:	00301463          	bne	zero,gp,8000112c <test_11+0x18>
80001128:	1e301c63          	bne	zero,gp,80001320 <fail>
8000112c:	fe20dee3          	bge	ra,sp,80001128 <test_11+0x14>

80001130 <test_12>:
80001130:	00c00193          	li	gp,12
80001134:	00000213          	li	tp,0
80001138:	fff00093          	li	ra,-1
8000113c:	00000113          	li	sp,0
80001140:	1e20d063          	bge	ra,sp,80001320 <fail>
80001144:	00120213          	addi	tp,tp,1 # 1 <tohost-0x7fffffff>
80001148:	00200293          	li	t0,2
8000114c:	fe5216e3          	bne	tp,t0,80001138 <test_12+0x8>

80001150 <test_13>:
80001150:	00d00193          	li	gp,13
80001154:	00000213          	li	tp,0
80001158:	fff00093          	li	ra,-1
8000115c:	00000113          	li	sp,0
80001160:	00000013          	nop
80001164:	1a20de63          	bge	ra,sp,80001320 <fail>
80001168:	00120213          	addi	tp,tp,1 # 1 <tohost-0x7fffffff>
8000116c:	00200293          	li	t0,2
80001170:	fe5214e3          	bne	tp,t0,80001158 <test_13+0x8>

80001174 <test_14>:
80001174:	00e00193          	li	gp,14
80001178:	00000213          	li	tp,0
8000117c:	fff00093          	li	ra,-1
80001180:	00000113          	li	sp,0
80001184:	00000013          	nop
80001188:	00000013          	nop
8000118c:	1820da63          	bge	ra,sp,80001320 <fail>
80001190:	00120213          	addi	tp,tp,1 # 1 <tohost-0x7fffffff>
80001194:	00200293          	li	t0,2
80001198:	fe5212e3          	bne	tp,t0,8000117c <test_14+0x8>

8000119c <test_15>:
8000119c:	00f00193          	li	gp,15
800011a0:	00000213          	li	tp,0
800011a4:	fff00093          	li	ra,-1
800011a8:	00000013          	nop
800011ac:	00000113          	li	sp,0
800011b0:	1620d863          	bge	ra,sp,80001320 <fail>
800011b4:	00120213          	addi	tp,tp,1 # 1 <tohost-0x7fffffff>
800011b8:	00200293          	li	t0,2
800011bc:	fe5214e3          	bne	tp,t0,800011a4 <test_15+0x8>

800011c0 <test_16>:
800011c0:	01000193          	li	gp,16
800011c4:	00000213          	li	tp,0
800011c8:	fff00093          	li	ra,-1
800011cc:	00000013          	nop
800011d0:	00000113          	li	sp,0
800011d4:	00000013          	nop
800011d8:	1420d463          	bge	ra,sp,80001320 <fail>
800011dc:	00120213          	addi	tp,tp,1 # 1 <tohost-0x7fffffff>
800011e0:	00200293          	li	t0,2
800011e4:	fe5212e3          	bne	tp,t0,800011c8 <test_16+0x8>

800011e8 <test_17>:
800011e8:	01100193          	li	gp,17
800011ec:	00000213          	li	tp,0
800011f0:	fff00093          	li	ra,-1
800011f4:	00000013          	nop
800011f8:	00000013          	nop
800011fc:	00000113          	li	sp,0
80001200:	1220d063          	bge	ra,sp,80001320 <fail>
80001204:	00120213          	addi	tp,tp,1 # 1 <tohost-0x7fffffff>
80001208:	00200293          	li	t0,2
8000120c:	fe5212e3          	bne	tp,t0,800011f0 <test_17+0x8>

80001210 <test_18>:
80001210:	01200193          	li	gp,18
80001214:	00000213          	li	tp,0
80001218:	fff00093          	li	ra,-1
8000121c:	00000113          	li	sp,0
80001220:	1020d063          	bge	ra,sp,80001320 <fail>
80001224:	00120213          	addi	tp,tp,1 # 1 <tohost-0x7fffffff>
80001228:	00200293          	li	t0,2
8000122c:	fe5216e3          	bne	tp,t0,80001218 <test_18+0x8>

80001230 <test_19>:
80001230:	01300193          	li	gp,19
80001234:	00000213          	li	tp,0
80001238:	fff00093          	li	ra,-1
8000123c:	00000113          	li	sp,0
80001240:	00000013          	nop
80001244:	0c20de63          	bge	ra,sp,80001320 <fail>
80001248:	00120213          	addi	tp,tp,1 # 1 <tohost-0x7fffffff>
8000124c:	00200293          	li	t0,2
80001250:	fe5214e3          	bne	tp,t0,80001238 <test_19+0x8>

80001254 <test_20>:
80001254:	01400193          	li	gp,20
80001258:	00000213          	li	tp,0
8000125c:	fff00093          	li	ra,-1
80001260:	00000113          	li	sp,0
80001264:	00000013          	nop
80001268:	00000013          	nop
8000126c:	0a20da63          	bge	ra,sp,80001320 <fail>
80001270:	00120213          	addi	tp,tp,1 # 1 <tohost-0x7fffffff>
80001274:	00200293          	li	t0,2
80001278:	fe5212e3          	bne	tp,t0,8000125c <test_20+0x8>

8000127c <test_21>:
8000127c:	01500193          	li	gp,21
80001280:	00000213          	li	tp,0
80001284:	fff00093          	li	ra,-1
80001288:	00000013          	nop
8000128c:	00000113          	li	sp,0
80001290:	0820d863          	bge	ra,sp,80001320 <fail>
80001294:	00120213          	addi	tp,tp,1 # 1 <tohost-0x7fffffff>
80001298:	00200293          	li	t0,2
8000129c:	fe5214e3          	bne	tp,t0,80001284 <test_21+0x8>

800012a0 <test_22>:
800012a0:	01600193          	li	gp,22
800012a4:	00000213          	li	tp,0
800012a8:	fff00093          	li	ra,-1
800012ac:	00000013          	nop
800012b0:	00000113          	li	sp,0
800012b4:	00000013          	nop
800012b8:	0620d463          	bge	ra,sp,80001320 <fail>
800012bc:	00120213          	addi	tp,tp,1 # 1 <tohost-0x7fffffff>
800012c0:	00200293          	li	t0,2
800012c4:	fe5212e3          	bne	tp,t0,800012a8 <test_22+0x8>

800012c8 <test_23>:
800012c8:	01700193          	li	gp,23
800012cc:	00000213          	li	tp,0
800012d0:	fff00093          	li	ra,-1
800012d4:	00000013          	nop
800012d8:	00000013          	nop
800012dc:	00000113          	li	sp,0
800012e0:	0420d063          	bge	ra,sp,80001320 <fail>
800012e4:	00120213          	addi	tp,tp,1 # 1 <tohost-0x7fffffff>
800012e8:	00200293          	li	t0,2
800012ec:	fe5212e3          	bne	tp,t0,800012d0 <test_23+0x8>

800012f0 <test_24>:
800012f0:	01800193          	li	gp,24
800012f4:	00100093          	li	ra,1
800012f8:	0000da63          	bgez	ra,8000130c <test_24+0x1c>
800012fc:	00108093          	addi	ra,ra,1
80001300:	00108093          	addi	ra,ra,1
80001304:	00108093          	addi	ra,ra,1
80001308:	00108093          	addi	ra,ra,1
8000130c:	00108093          	addi	ra,ra,1
80001310:	00108093          	addi	ra,ra,1
80001314:	00300393          	li	t2,3
80001318:	00709463          	bne	ra,t2,80001320 <fail>
8000131c:	02301a63          	bne	zero,gp,80001350 <pass>

80001320 <fail>:
80001320:	0ff0000f          	fence
80001324:	00001597          	auipc	a1,0x1
80001328:	cdc58593          	addi	a1,a1,-804 # 80002000 <hello>
8000132c:	00f00613          	li	a2,15
80001330:	04000893          	li	a7,64
80001334:	00000073          	ecall
80001338:	00018063          	beqz	gp,80001338 <fail+0x18>
8000133c:	00119193          	slli	gp,gp,0x1
80001340:	0011e193          	ori	gp,gp,1
80001344:	05d00893          	li	a7,93
80001348:	00018513          	mv	a0,gp
8000134c:	00000073          	ecall

80001350 <pass>:
80001350:	0ff0000f          	fence
80001354:	00100513          	li	a0,1
80001358:	00001597          	auipc	a1,0x1
8000135c:	ca858593          	addi	a1,a1,-856 # 80002000 <hello>
80001360:	00f00613          	li	a2,15
80001364:	04000893          	li	a7,64
80001368:	00000073          	ecall
8000136c:	00100193          	li	gp,1
80001370:	05d00893          	li	a7,93
80001374:	00000513          	li	a0,0
80001378:	00000073          	ecall
8000137c:	c0001073          	unimp

Disassembly of section .data:

80002000 <hello>:
80002000:	6948                	.2byte	0x6948
80002002:	2074                	.2byte	0x2074
80002004:	646f6f67          	.4byte	0x646f6f67
80002008:	7420                	.2byte	0x7420
8000200a:	6172                	.2byte	0x6172
8000200c:	2170                	.2byte	0x2170
8000200e:	000a                	.2byte	0xa

80002010 <goodbye>:
80002010:	6948                	.2byte	0x6948
80002012:	2074                	.2byte	0x2074
80002014:	6162                	.2byte	0x6162
80002016:	6464                	.2byte	0x6464
80002018:	7420                	.2byte	0x7420
8000201a:	6172                	.2byte	0x6172
8000201c:	2170                	.2byte	0x2170
8000201e:	000a                	.2byte	0xa
