
rv32ud-p-ldst:     file format elf32-littleriscv


Disassembly of section .text:

80001000 <test_2-0x8>:
80001000:	00001417          	auipc	s0,0x1
80001004:	05040413          	addi	s0,s0,80 # 80002050 <begin_signature>

80001008 <test_2>:
80001008:	00043107          	fld	ft2,0(s0)
8000100c:	00243827          	fsd	ft2,16(s0)
80001010:	01042503          	lw	a0,16(s0)
80001014:	01442583          	lw	a1,20(s0)
80001018:	00001797          	auipc	a5,0x1
8000101c:	fe878793          	addi	a5,a5,-24 # 80002000 <test_2_data>
80001020:	0007a383          	lw	t2,0(a5)
80001024:	0047a783          	lw	a5,4(a5)
80001028:	00200193          	li	gp,2
8000102c:	0a751e63          	bne	a0,t2,800010e8 <fail>
80001030:	0af59c63          	bne	a1,a5,800010e8 <fail>

80001034 <test_3>:
80001034:	00043107          	fld	ft2,0(s0)
80001038:	00242827          	fsw	ft2,16(s0)
8000103c:	01042503          	lw	a0,16(s0)
80001040:	01442583          	lw	a1,20(s0)
80001044:	00001797          	auipc	a5,0x1
80001048:	fc478793          	addi	a5,a5,-60 # 80002008 <test_3_data>
8000104c:	0007a383          	lw	t2,0(a5)
80001050:	0047a783          	lw	a5,4(a5)
80001054:	00300193          	li	gp,3
80001058:	08751863          	bne	a0,t2,800010e8 <fail>
8000105c:	08f59663          	bne	a1,a5,800010e8 <fail>

80001060 <test_4>:
80001060:	00042107          	flw	ft2,0(s0)
80001064:	00242827          	fsw	ft2,16(s0)
80001068:	01042503          	lw	a0,16(s0)
8000106c:	01442583          	lw	a1,20(s0)
80001070:	00001797          	auipc	a5,0x1
80001074:	fa078793          	addi	a5,a5,-96 # 80002010 <test_4_data>
80001078:	0007a383          	lw	t2,0(a5)
8000107c:	0047a783          	lw	a5,4(a5)
80001080:	00400193          	li	gp,4
80001084:	06751263          	bne	a0,t2,800010e8 <fail>
80001088:	06f59063          	bne	a1,a5,800010e8 <fail>

8000108c <test_5>:
8000108c:	00843107          	fld	ft2,8(s0)
80001090:	00243827          	fsd	ft2,16(s0)
80001094:	01042503          	lw	a0,16(s0)
80001098:	01442583          	lw	a1,20(s0)
8000109c:	00001797          	auipc	a5,0x1
800010a0:	f7c78793          	addi	a5,a5,-132 # 80002018 <test_5_data>
800010a4:	0007a383          	lw	t2,0(a5)
800010a8:	0047a783          	lw	a5,4(a5)
800010ac:	00500193          	li	gp,5
800010b0:	02751c63          	bne	a0,t2,800010e8 <fail>
800010b4:	02f59a63          	bne	a1,a5,800010e8 <fail>

800010b8 <test_6>:
800010b8:	00842107          	flw	ft2,8(s0)
800010bc:	00243827          	fsd	ft2,16(s0)
800010c0:	01042503          	lw	a0,16(s0)
800010c4:	01442583          	lw	a1,20(s0)
800010c8:	00001797          	auipc	a5,0x1
800010cc:	f5878793          	addi	a5,a5,-168 # 80002020 <test_6_data>
800010d0:	0007a383          	lw	t2,0(a5)
800010d4:	0047a783          	lw	a5,4(a5)
800010d8:	00600193          	li	gp,6
800010dc:	00751663          	bne	a0,t2,800010e8 <fail>
800010e0:	00f59463          	bne	a1,a5,800010e8 <fail>
800010e4:	02301a63          	bne	zero,gp,80001118 <pass>

800010e8 <fail>:
800010e8:	0ff0000f          	fence
800010ec:	00001597          	auipc	a1,0x1
800010f0:	f3c58593          	addi	a1,a1,-196 # 80002028 <hello>
800010f4:	00f00613          	li	a2,15
800010f8:	04000893          	li	a7,64
800010fc:	00000073          	ecall
80001100:	00018063          	beqz	gp,80001100 <fail+0x18>
80001104:	00119193          	slli	gp,gp,0x1
80001108:	0011e193          	ori	gp,gp,1
8000110c:	05d00893          	li	a7,93
80001110:	00018513          	mv	a0,gp
80001114:	00000073          	ecall

80001118 <pass>:
80001118:	0ff0000f          	fence
8000111c:	00100513          	li	a0,1
80001120:	00001597          	auipc	a1,0x1
80001124:	f0858593          	addi	a1,a1,-248 # 80002028 <hello>
80001128:	00f00613          	li	a2,15
8000112c:	04000893          	li	a7,64
80001130:	00000073          	ecall
80001134:	00100193          	li	gp,1
80001138:	05d00893          	li	a7,93
8000113c:	00000513          	li	a0,0
80001140:	00000073          	ecall
80001144:	c0001073          	unimp

Disassembly of section .data:

80002000 <test_2_data>:
80002000:	0000                	.2byte	0x0
80002002:	bf80                	.2byte	0xbf80
80002004:	0000                	.2byte	0x0
80002006:	4000                	.2byte	0x4000

80002008 <test_3_data>:
80002008:	0000                	.2byte	0x0
8000200a:	bf80                	.2byte	0xbf80
8000200c:	0000                	.2byte	0x0
8000200e:	4000                	.2byte	0x4000

80002010 <test_4_data>:
80002010:	0000                	.2byte	0x0
80002012:	bf80                	.2byte	0xbf80
80002014:	0000                	.2byte	0x0
80002016:	4000                	.2byte	0x4000

80002018 <test_5_data>:
80002018:	0000                	.2byte	0x0
8000201a:	4040                	.2byte	0x4040
8000201c:	0000                	.2byte	0x0
8000201e:	c080                	.2byte	0xc080

80002020 <test_6_data>:
80002020:	0000                	.2byte	0x0
80002022:	4040                	.2byte	0x4040
80002024:	ffff                	.2byte	0xffff
80002026:	ffff                	.2byte	0xffff

80002028 <hello>:
80002028:	6948                	.2byte	0x6948
8000202a:	2074                	.2byte	0x2074
8000202c:	646f6f67          	.4byte	0x646f6f67
80002030:	7420                	.2byte	0x7420
80002032:	6172                	.2byte	0x6172
80002034:	2170                	.2byte	0x2170
80002036:	000a                	.2byte	0xa

80002038 <goodbye>:
80002038:	6948                	.2byte	0x6948
8000203a:	2074                	.2byte	0x2074
8000203c:	6162                	.2byte	0x6162
8000203e:	6464                	.2byte	0x6464
80002040:	7420                	.2byte	0x7420
80002042:	6172                	.2byte	0x6172
80002044:	2170                	.2byte	0x2170
80002046:	000a                	.2byte	0xa
80002048:	0000                	.2byte	0x0
8000204a:	0000                	.2byte	0x0
8000204c:	0000                	.2byte	0x0
8000204e:	0000                	.2byte	0x0

80002050 <begin_signature>:
80002050:	0000                	.2byte	0x0
80002052:	bf80                	.2byte	0xbf80
80002054:	0000                	.2byte	0x0
80002056:	4000                	.2byte	0x4000
80002058:	0000                	.2byte	0x0
8000205a:	4040                	.2byte	0x4040
8000205c:	0000                	.2byte	0x0
8000205e:	c080                	.2byte	0xc080
80002060:	deadbeef          	jal	t4,7ffdd64a <tohost-0x229b6>
80002064:	babe                	.2byte	0xbabe
80002066:	cafe                	.2byte	0xcafe
80002068:	1dea                	.2byte	0x1dea
8000206a:	abad                	.2byte	0xabad
8000206c:	d00d                	.2byte	0xd00d
8000206e:	37 13             	Address 0x000000008000206e is out of bounds.

