
rv32si-p-csr:     file format elf32-littleriscv


Disassembly of section .text:

80001000 <test_20>:
80001000:	01400193          	li	gp,20
80001004:	14001073          	csrw	sscratch,zero
80001008:	14002573          	csrr	a0,sscratch
8000100c:	00000393          	li	t2,0
80001010:	16751c63          	bne	a0,t2,80001188 <fail>

80001014 <test_21>:
80001014:	01500193          	li	gp,21
80001018:	14005573          	csrrwi	a0,sscratch,0
8000101c:	1407d573          	csrrwi	a0,sscratch,15
80001020:	00000393          	li	t2,0
80001024:	16751263          	bne	a0,t2,80001188 <fail>

80001028 <test_22>:
80001028:	01600193          	li	gp,22
8000102c:	14086073          	csrsi	sscratch,16
80001030:	14002573          	csrr	a0,sscratch
80001034:	01f00393          	li	t2,31
80001038:	14751863          	bne	a0,t2,80001188 <fail>
8000103c:	1401d073          	csrwi	sscratch,3

80001040 <test_2>:
80001040:	00200193          	li	gp,2
80001044:	14002573          	csrr	a0,sscratch
80001048:	00300393          	li	t2,3
8000104c:	12751e63          	bne	a0,t2,80001188 <fail>

80001050 <test_3>:
80001050:	00300193          	li	gp,3
80001054:	1400f5f3          	csrrci	a1,sscratch,1
80001058:	00300393          	li	t2,3
8000105c:	12759663          	bne	a1,t2,80001188 <fail>

80001060 <test_4>:
80001060:	00400193          	li	gp,4
80001064:	14026673          	csrrsi	a2,sscratch,4
80001068:	00200393          	li	t2,2
8000106c:	10761e63          	bne	a2,t2,80001188 <fail>

80001070 <test_5>:
80001070:	00500193          	li	gp,5
80001074:	140156f3          	csrrwi	a3,sscratch,2
80001078:	00600393          	li	t2,6
8000107c:	10769663          	bne	a3,t2,80001188 <fail>

80001080 <test_6>:
80001080:	00600193          	li	gp,6
80001084:	0bad2537          	lui	a0,0xbad2
80001088:	dea50513          	addi	a0,a0,-534 # bad1dea <tohost-0x7452e216>
8000108c:	140515f3          	csrrw	a1,sscratch,a0
80001090:	00200393          	li	t2,2
80001094:	0e759a63          	bne	a1,t2,80001188 <fail>

80001098 <test_7>:
80001098:	00700193          	li	gp,7
8000109c:	00002537          	lui	a0,0x2
800010a0:	dea50513          	addi	a0,a0,-534 # 1dea <tohost-0x7fffe216>
800010a4:	140535f3          	csrrc	a1,sscratch,a0
800010a8:	0bad23b7          	lui	t2,0xbad2
800010ac:	dea38393          	addi	t2,t2,-534 # bad1dea <tohost-0x7452e216>
800010b0:	0c759c63          	bne	a1,t2,80001188 <fail>

800010b4 <test_8>:
800010b4:	00800193          	li	gp,8
800010b8:	0000c537          	lui	a0,0xc
800010bc:	eef50513          	addi	a0,a0,-273 # beef <tohost-0x7fff4111>
800010c0:	140525f3          	csrrs	a1,sscratch,a0
800010c4:	0bad03b7          	lui	t2,0xbad0
800010c8:	0c759063          	bne	a1,t2,80001188 <fail>

800010cc <test_9>:
800010cc:	00900193          	li	gp,9
800010d0:	0bad2537          	lui	a0,0xbad2
800010d4:	dea50513          	addi	a0,a0,-534 # bad1dea <tohost-0x7452e216>
800010d8:	14051573          	csrrw	a0,sscratch,a0
800010dc:	0badc3b7          	lui	t2,0xbadc
800010e0:	eef38393          	addi	t2,t2,-273 # badbeef <tohost-0x74524111>
800010e4:	0a751263          	bne	a0,t2,80001188 <fail>

800010e8 <test_10>:
800010e8:	00a00193          	li	gp,10
800010ec:	00002537          	lui	a0,0x2
800010f0:	dea50513          	addi	a0,a0,-534 # 1dea <tohost-0x7fffe216>
800010f4:	14053573          	csrrc	a0,sscratch,a0
800010f8:	0bad23b7          	lui	t2,0xbad2
800010fc:	dea38393          	addi	t2,t2,-534 # bad1dea <tohost-0x7452e216>
80001100:	08751463          	bne	a0,t2,80001188 <fail>

80001104 <test_11>:
80001104:	00b00193          	li	gp,11
80001108:	0000c537          	lui	a0,0xc
8000110c:	eef50513          	addi	a0,a0,-273 # beef <tohost-0x7fff4111>
80001110:	14052573          	csrrs	a0,sscratch,a0
80001114:	0bad03b7          	lui	t2,0xbad0
80001118:	06751863          	bne	a0,t2,80001188 <fail>

8000111c <test_12>:
8000111c:	00c00193          	li	gp,12
80001120:	14002573          	csrr	a0,sscratch
80001124:	0badc3b7          	lui	t2,0xbadc
80001128:	eef38393          	addi	t2,t2,-273 # badbeef <tohost-0x74524111>
8000112c:	04751e63          	bne	a0,t2,80001188 <fail>
80001130:	10000293          	li	t0,256
80001134:	1002b073          	csrc	sstatus,t0
80001138:	00000297          	auipc	t0,0x0
8000113c:	01028293          	addi	t0,t0,16 # 80001148 <test_15>
80001140:	14129073          	csrw	sepc,t0
80001144:	10200073          	sret

80001148 <test_15>:
80001148:	00f00193          	li	gp,15
8000114c:	00000013          	nop
80001150:	00000393          	li	t2,0
80001154:	02701a63          	bne	zero,t2,80001188 <fail>

80001158 <finish>:
80001158:	0ff0000f          	fence
8000115c:	00100513          	li	a0,1
80001160:	00001597          	auipc	a1,0x1
80001164:	ea058593          	addi	a1,a1,-352 # 80002000 <hello>
80001168:	00f00613          	li	a2,15
8000116c:	04000893          	li	a7,64
80001170:	00000073          	ecall
80001174:	00100193          	li	gp,1
80001178:	05d00893          	li	a7,93
8000117c:	00000513          	li	a0,0
80001180:	00000073          	ecall
80001184:	02301a63          	bne	zero,gp,800011b8 <pass>

80001188 <fail>:
80001188:	0ff0000f          	fence
8000118c:	00001597          	auipc	a1,0x1
80001190:	e7458593          	addi	a1,a1,-396 # 80002000 <hello>
80001194:	00f00613          	li	a2,15
80001198:	04000893          	li	a7,64
8000119c:	00000073          	ecall
800011a0:	00018063          	beqz	gp,800011a0 <fail+0x18>
800011a4:	00119193          	slli	gp,gp,0x1
800011a8:	0011e193          	ori	gp,gp,1
800011ac:	05d00893          	li	a7,93
800011b0:	00018513          	mv	a0,gp
800011b4:	00000073          	ecall

800011b8 <pass>:
800011b8:	0ff0000f          	fence
800011bc:	00100513          	li	a0,1
800011c0:	00001597          	auipc	a1,0x1
800011c4:	e4058593          	addi	a1,a1,-448 # 80002000 <hello>
800011c8:	00f00613          	li	a2,15
800011cc:	04000893          	li	a7,64
800011d0:	00000073          	ecall
800011d4:	00100193          	li	gp,1
800011d8:	05d00893          	li	a7,93
800011dc:	00000513          	li	a0,0
800011e0:	00000073          	ecall

800011e4 <stvec_handler>:
800011e4:	00d00293          	li	t0,13
800011e8:	0051e663          	bltu	gp,t0,800011f4 <stvec_handler+0x10>
800011ec:	00f00293          	li	t0,15
800011f0:	0232fe63          	bgeu	t0,gp,8000122c <privileged>
800011f4:	142022f3          	csrr	t0,scause
800011f8:	00800313          	li	t1,8
800011fc:	f86296e3          	bne	t0,t1,80001188 <fail>
80001200:	0ff0000f          	fence
80001204:	00100513          	li	a0,1
80001208:	00001597          	auipc	a1,0x1
8000120c:	df858593          	addi	a1,a1,-520 # 80002000 <hello>
80001210:	00f00613          	li	a2,15
80001214:	04000893          	li	a7,64
80001218:	00000073          	ecall
8000121c:	00100193          	li	gp,1
80001220:	05d00893          	li	a7,93
80001224:	00000513          	li	a0,0
80001228:	00000073          	ecall

8000122c <privileged>:
8000122c:	142022f3          	csrr	t0,scause
80001230:	00200313          	li	t1,2
80001234:	f4629ae3          	bne	t0,t1,80001188 <fail>
80001238:	141022f3          	csrr	t0,sepc
8000123c:	00428293          	addi	t0,t0,4
80001240:	14129073          	csrw	sepc,t0
80001244:	10200073          	sret
80001248:	c0001073          	unimp

Disassembly of section .data:

80002000 <hello>:
80002000:	6948                	.2byte	0x6948
80002002:	2074                	.2byte	0x2074
80002004:	646f6f67          	.4byte	0x646f6f67
80002008:	7420                	.2byte	0x7420
8000200a:	6172                	.2byte	0x6172
8000200c:	2170                	.2byte	0x2170
8000200e:	000a                	.2byte	0xa

80002010 <goodbye>:
80002010:	6948                	.2byte	0x6948
80002012:	2074                	.2byte	0x2074
80002014:	6162                	.2byte	0x6162
80002016:	6464                	.2byte	0x6464
80002018:	7420                	.2byte	0x7420
8000201a:	6172                	.2byte	0x6172
8000201c:	2170                	.2byte	0x2170
8000201e:	000a                	.2byte	0xa

80002020 <begin_signature>:
80002020:	0001                	.2byte	0x1
80002022:	0000                	.2byte	0x0
80002024:	0000                	.2byte	0x0
80002026:	0000                	.2byte	0x0
80002028:	0000                	.2byte	0x0
8000202a:	0000                	.2byte	0x0
8000202c:	0000                	.2byte	0x0
8000202e:	0000                	.2byte	0x0
