
rv32ui-p-jalr:     file format elf32-littleriscv


Disassembly of section .text:

80001000 <test_2>:
80001000:	00200193          	li	gp,2
80001004:	00000293          	li	t0,0
80001008:	00000317          	auipc	t1,0x0
8000100c:	01030313          	addi	t1,t1,16 # 80001018 <target_2>
80001010:	000302e7          	jalr	t0,t1

80001014 <linkaddr_2>:
80001014:	0e00006f          	j	800010f4 <fail>

80001018 <target_2>:
80001018:	00000317          	auipc	t1,0x0
8000101c:	ffc30313          	addi	t1,t1,-4 # 80001014 <linkaddr_2>
80001020:	0c629a63          	bne	t0,t1,800010f4 <fail>

80001024 <test_3>:
80001024:	00300193          	li	gp,3
80001028:	00000297          	auipc	t0,0x0
8000102c:	01028293          	addi	t0,t0,16 # 80001038 <target_3>
80001030:	000282e7          	jalr	t0,t0

80001034 <linkaddr_3>:
80001034:	0c00006f          	j	800010f4 <fail>

80001038 <target_3>:
80001038:	00000317          	auipc	t1,0x0
8000103c:	ffc30313          	addi	t1,t1,-4 # 80001034 <linkaddr_3>
80001040:	0a629a63          	bne	t0,t1,800010f4 <fail>

80001044 <test_4>:
80001044:	00400193          	li	gp,4
80001048:	00000213          	li	tp,0
8000104c:	00000317          	auipc	t1,0x0
80001050:	01030313          	addi	t1,t1,16 # 8000105c <test_4+0x18>
80001054:	000306e7          	jalr	a3,t1
80001058:	08301e63          	bne	zero,gp,800010f4 <fail>
8000105c:	00120213          	addi	tp,tp,1 # 1 <tohost-0x7fffffff>
80001060:	00200293          	li	t0,2
80001064:	fe5214e3          	bne	tp,t0,8000104c <test_4+0x8>

80001068 <test_5>:
80001068:	00500193          	li	gp,5
8000106c:	00000213          	li	tp,0
80001070:	00000317          	auipc	t1,0x0
80001074:	01430313          	addi	t1,t1,20 # 80001084 <test_5+0x1c>
80001078:	00000013          	nop
8000107c:	000306e7          	jalr	a3,t1
80001080:	06301a63          	bne	zero,gp,800010f4 <fail>
80001084:	00120213          	addi	tp,tp,1 # 1 <tohost-0x7fffffff>
80001088:	00200293          	li	t0,2
8000108c:	fe5212e3          	bne	tp,t0,80001070 <test_5+0x8>

80001090 <test_6>:
80001090:	00600193          	li	gp,6
80001094:	00000213          	li	tp,0
80001098:	00000317          	auipc	t1,0x0
8000109c:	01830313          	addi	t1,t1,24 # 800010b0 <test_6+0x20>
800010a0:	00000013          	nop
800010a4:	00000013          	nop
800010a8:	000306e7          	jalr	a3,t1
800010ac:	04301463          	bne	zero,gp,800010f4 <fail>
800010b0:	00120213          	addi	tp,tp,1 # 1 <tohost-0x7fffffff>
800010b4:	00200293          	li	t0,2
800010b8:	fe5210e3          	bne	tp,t0,80001098 <test_6+0x8>

800010bc <test_7>:
800010bc:	00700193          	li	gp,7
800010c0:	00100293          	li	t0,1
800010c4:	00000317          	auipc	t1,0x0
800010c8:	01c30313          	addi	t1,t1,28 # 800010e0 <test_7+0x24>
800010cc:	ffc30067          	jr	-4(t1)
800010d0:	00128293          	addi	t0,t0,1
800010d4:	00128293          	addi	t0,t0,1
800010d8:	00128293          	addi	t0,t0,1
800010dc:	00128293          	addi	t0,t0,1
800010e0:	00128293          	addi	t0,t0,1
800010e4:	00128293          	addi	t0,t0,1
800010e8:	00400393          	li	t2,4
800010ec:	00729463          	bne	t0,t2,800010f4 <fail>
800010f0:	02301a63          	bne	zero,gp,80001124 <pass>

800010f4 <fail>:
800010f4:	0ff0000f          	fence
800010f8:	00001597          	auipc	a1,0x1
800010fc:	f0858593          	addi	a1,a1,-248 # 80002000 <hello>
80001100:	00f00613          	li	a2,15
80001104:	04000893          	li	a7,64
80001108:	00000073          	ecall
8000110c:	00018063          	beqz	gp,8000110c <fail+0x18>
80001110:	00119193          	slli	gp,gp,0x1
80001114:	0011e193          	ori	gp,gp,1
80001118:	05d00893          	li	a7,93
8000111c:	00018513          	mv	a0,gp
80001120:	00000073          	ecall

80001124 <pass>:
80001124:	0ff0000f          	fence
80001128:	00100513          	li	a0,1
8000112c:	00001597          	auipc	a1,0x1
80001130:	ed458593          	addi	a1,a1,-300 # 80002000 <hello>
80001134:	00f00613          	li	a2,15
80001138:	04000893          	li	a7,64
8000113c:	00000073          	ecall
80001140:	00100193          	li	gp,1
80001144:	05d00893          	li	a7,93
80001148:	00000513          	li	a0,0
8000114c:	00000073          	ecall
80001150:	c0001073          	unimp

Disassembly of section .data:

80002000 <hello>:
80002000:	6948                	.2byte	0x6948
80002002:	2074                	.2byte	0x2074
80002004:	646f6f67          	.4byte	0x646f6f67
80002008:	7420                	.2byte	0x7420
8000200a:	6172                	.2byte	0x6172
8000200c:	2170                	.2byte	0x2170
8000200e:	000a                	.2byte	0xa

80002010 <goodbye>:
80002010:	6948                	.2byte	0x6948
80002012:	2074                	.2byte	0x2074
80002014:	6162                	.2byte	0x6162
80002016:	6464                	.2byte	0x6464
80002018:	7420                	.2byte	0x7420
8000201a:	6172                	.2byte	0x6172
8000201c:	2170                	.2byte	0x2170
8000201e:	000a                	.2byte	0xa
