
rv32ud-p-fdiv:     file format elf32-littleriscv


Disassembly of section .text:

80001000 <test_2>:
80001000:	00200193          	li	gp,2
80001004:	00001517          	auipc	a0,0x1
80001008:	ffc50513          	addi	a0,a0,-4 # 80002000 <test_2_data>
8000100c:	00053007          	fld	ft0,0(a0)
80001010:	00853087          	fld	ft1,8(a0)
80001014:	01053107          	fld	ft2,16(a0)
80001018:	01852683          	lw	a3,24(a0)
8000101c:	01c52303          	lw	t1,28(a0)
80001020:	1a1071d3          	fdiv.d	ft3,ft0,ft1
80001024:	00353027          	fsd	ft3,0(a0)
80001028:	00452383          	lw	t2,4(a0)
8000102c:	00052503          	lw	a0,0(a0)
80001030:	001015f3          	fsflags	a1,zero
80001034:	00100613          	li	a2,1
80001038:	1ed51663          	bne	a0,a3,80001224 <fail>
8000103c:	1e731463          	bne	t1,t2,80001224 <fail>
80001040:	1ec59263          	bne	a1,a2,80001224 <fail>

80001044 <test_3>:
80001044:	00300193          	li	gp,3
80001048:	00001517          	auipc	a0,0x1
8000104c:	fd850513          	addi	a0,a0,-40 # 80002020 <test_3_data>
80001050:	00053007          	fld	ft0,0(a0)
80001054:	00853087          	fld	ft1,8(a0)
80001058:	01053107          	fld	ft2,16(a0)
8000105c:	01852683          	lw	a3,24(a0)
80001060:	01c52303          	lw	t1,28(a0)
80001064:	1a1071d3          	fdiv.d	ft3,ft0,ft1
80001068:	00353027          	fsd	ft3,0(a0)
8000106c:	00452383          	lw	t2,4(a0)
80001070:	00052503          	lw	a0,0(a0)
80001074:	001015f3          	fsflags	a1,zero
80001078:	00100613          	li	a2,1
8000107c:	1ad51463          	bne	a0,a3,80001224 <fail>
80001080:	1a731263          	bne	t1,t2,80001224 <fail>
80001084:	1ac59063          	bne	a1,a2,80001224 <fail>

80001088 <test_4>:
80001088:	00400193          	li	gp,4
8000108c:	00001517          	auipc	a0,0x1
80001090:	fb450513          	addi	a0,a0,-76 # 80002040 <test_4_data>
80001094:	00053007          	fld	ft0,0(a0)
80001098:	00853087          	fld	ft1,8(a0)
8000109c:	01053107          	fld	ft2,16(a0)
800010a0:	01852683          	lw	a3,24(a0)
800010a4:	01c52303          	lw	t1,28(a0)
800010a8:	1a1071d3          	fdiv.d	ft3,ft0,ft1
800010ac:	00353027          	fsd	ft3,0(a0)
800010b0:	00452383          	lw	t2,4(a0)
800010b4:	00052503          	lw	a0,0(a0)
800010b8:	001015f3          	fsflags	a1,zero
800010bc:	00000613          	li	a2,0
800010c0:	16d51263          	bne	a0,a3,80001224 <fail>
800010c4:	16731063          	bne	t1,t2,80001224 <fail>
800010c8:	14c59e63          	bne	a1,a2,80001224 <fail>

800010cc <test_5>:
800010cc:	00500193          	li	gp,5
800010d0:	00001517          	auipc	a0,0x1
800010d4:	f9050513          	addi	a0,a0,-112 # 80002060 <test_5_data>
800010d8:	00053007          	fld	ft0,0(a0)
800010dc:	00853087          	fld	ft1,8(a0)
800010e0:	01053107          	fld	ft2,16(a0)
800010e4:	01852683          	lw	a3,24(a0)
800010e8:	01c52303          	lw	t1,28(a0)
800010ec:	5a0071d3          	fsqrt.d	ft3,ft0
800010f0:	00353027          	fsd	ft3,0(a0)
800010f4:	00452383          	lw	t2,4(a0)
800010f8:	00052503          	lw	a0,0(a0)
800010fc:	001015f3          	fsflags	a1,zero
80001100:	00100613          	li	a2,1
80001104:	12d51063          	bne	a0,a3,80001224 <fail>
80001108:	10731e63          	bne	t1,t2,80001224 <fail>
8000110c:	10c59c63          	bne	a1,a2,80001224 <fail>

80001110 <test_6>:
80001110:	00600193          	li	gp,6
80001114:	00001517          	auipc	a0,0x1
80001118:	f6c50513          	addi	a0,a0,-148 # 80002080 <test_6_data>
8000111c:	00053007          	fld	ft0,0(a0)
80001120:	00853087          	fld	ft1,8(a0)
80001124:	01053107          	fld	ft2,16(a0)
80001128:	01852683          	lw	a3,24(a0)
8000112c:	01c52303          	lw	t1,28(a0)
80001130:	5a0071d3          	fsqrt.d	ft3,ft0
80001134:	00353027          	fsd	ft3,0(a0)
80001138:	00452383          	lw	t2,4(a0)
8000113c:	00052503          	lw	a0,0(a0)
80001140:	001015f3          	fsflags	a1,zero
80001144:	00000613          	li	a2,0
80001148:	0cd51e63          	bne	a0,a3,80001224 <fail>
8000114c:	0c731c63          	bne	t1,t2,80001224 <fail>
80001150:	0cc59a63          	bne	a1,a2,80001224 <fail>

80001154 <test_16>:
80001154:	01000193          	li	gp,16
80001158:	00001517          	auipc	a0,0x1
8000115c:	f4850513          	addi	a0,a0,-184 # 800020a0 <test_16_data>
80001160:	00053007          	fld	ft0,0(a0)
80001164:	00853087          	fld	ft1,8(a0)
80001168:	01053107          	fld	ft2,16(a0)
8000116c:	01852683          	lw	a3,24(a0)
80001170:	01c52303          	lw	t1,28(a0)
80001174:	5a0071d3          	fsqrt.d	ft3,ft0
80001178:	00353027          	fsd	ft3,0(a0)
8000117c:	00452383          	lw	t2,4(a0)
80001180:	00052503          	lw	a0,0(a0)
80001184:	001015f3          	fsflags	a1,zero
80001188:	01000613          	li	a2,16
8000118c:	08d51c63          	bne	a0,a3,80001224 <fail>
80001190:	08731a63          	bne	t1,t2,80001224 <fail>
80001194:	08c59863          	bne	a1,a2,80001224 <fail>

80001198 <test_7>:
80001198:	00700193          	li	gp,7
8000119c:	00001517          	auipc	a0,0x1
800011a0:	f2450513          	addi	a0,a0,-220 # 800020c0 <test_7_data>
800011a4:	00053007          	fld	ft0,0(a0)
800011a8:	00853087          	fld	ft1,8(a0)
800011ac:	01053107          	fld	ft2,16(a0)
800011b0:	01852683          	lw	a3,24(a0)
800011b4:	01c52303          	lw	t1,28(a0)
800011b8:	5a0071d3          	fsqrt.d	ft3,ft0
800011bc:	00353027          	fsd	ft3,0(a0)
800011c0:	00452383          	lw	t2,4(a0)
800011c4:	00052503          	lw	a0,0(a0)
800011c8:	001015f3          	fsflags	a1,zero
800011cc:	00100613          	li	a2,1
800011d0:	04d51a63          	bne	a0,a3,80001224 <fail>
800011d4:	04731863          	bne	t1,t2,80001224 <fail>
800011d8:	04c59663          	bne	a1,a2,80001224 <fail>

800011dc <test_8>:
800011dc:	00800193          	li	gp,8
800011e0:	00001517          	auipc	a0,0x1
800011e4:	f0050513          	addi	a0,a0,-256 # 800020e0 <test_8_data>
800011e8:	00053007          	fld	ft0,0(a0)
800011ec:	00853087          	fld	ft1,8(a0)
800011f0:	01053107          	fld	ft2,16(a0)
800011f4:	01852683          	lw	a3,24(a0)
800011f8:	01c52303          	lw	t1,28(a0)
800011fc:	5a0071d3          	fsqrt.d	ft3,ft0
80001200:	00353027          	fsd	ft3,0(a0)
80001204:	00452383          	lw	t2,4(a0)
80001208:	00052503          	lw	a0,0(a0)
8000120c:	001015f3          	fsflags	a1,zero
80001210:	00100613          	li	a2,1
80001214:	00d51863          	bne	a0,a3,80001224 <fail>
80001218:	00731663          	bne	t1,t2,80001224 <fail>
8000121c:	00c59463          	bne	a1,a2,80001224 <fail>
80001220:	02301a63          	bne	zero,gp,80001254 <pass>

80001224 <fail>:
80001224:	0ff0000f          	fence
80001228:	00001597          	auipc	a1,0x1
8000122c:	ed858593          	addi	a1,a1,-296 # 80002100 <hello>
80001230:	00f00613          	li	a2,15
80001234:	04000893          	li	a7,64
80001238:	00000073          	ecall
8000123c:	00018063          	beqz	gp,8000123c <fail+0x18>
80001240:	00119193          	slli	gp,gp,0x1
80001244:	0011e193          	ori	gp,gp,1
80001248:	05d00893          	li	a7,93
8000124c:	00018513          	mv	a0,gp
80001250:	00000073          	ecall

80001254 <pass>:
80001254:	0ff0000f          	fence
80001258:	00100513          	li	a0,1
8000125c:	00001597          	auipc	a1,0x1
80001260:	ea458593          	addi	a1,a1,-348 # 80002100 <hello>
80001264:	00f00613          	li	a2,15
80001268:	04000893          	li	a7,64
8000126c:	00000073          	ecall
80001270:	00100193          	li	gp,1
80001274:	05d00893          	li	a7,93
80001278:	00000513          	li	a0,0
8000127c:	00000073          	ecall
80001280:	c0001073          	unimp

Disassembly of section .data:

80002000 <test_2_data>:
80002000:	d4f1                	.2byte	0xd4f1
80002002:	53c8                	.2byte	0x53c8
80002004:	400921fb          	.4byte	0x400921fb
80002008:	b0dd                	.2byte	0xb0dd
8000200a:	89f1                	.2byte	0x89f1
8000200c:	bf0a                	.2byte	0xbf0a
8000200e:	4005                	.2byte	0x4005
80002010:	0000                	.2byte	0x0
80002012:	0000                	.2byte	0x0
80002014:	0000                	.2byte	0x0
80002016:	0000                	.2byte	0x0
80002018:	83ec                	.2byte	0x83ec
8000201a:	7ddbf6c3          	.4byte	0x7ddbf6c3
8000201e:	3ff2                	.2byte	0x3ff2

80002020 <test_3_data>:
80002020:	0000                	.2byte	0x0
80002022:	0000                	.2byte	0x0
80002024:	4800                	.2byte	0x4800
80002026:	6666c093          	xori	ra,a3,1638
8000202a:	6666                	.2byte	0x6666
8000202c:	4c66                	.2byte	0x4c66
8000202e:	00004093          	xori	ra,zero,0
80002032:	0000                	.2byte	0x0
80002034:	0000                	.2byte	0x0
80002036:	0000                	.2byte	0x0
80002038:	29a5                	.2byte	0x29a5
8000203a:	3e19                	.2byte	0x3e19
8000203c:	f8b4                	.2byte	0xf8b4
8000203e:	          	jal	t6,7ff1dd8c <tohost-0xe2274>

80002040 <test_4_data>:
80002040:	d4f1                	.2byte	0xd4f1
80002042:	53c8                	.2byte	0x53c8
80002044:	400921fb          	.4byte	0x400921fb
80002048:	0000                	.2byte	0x0
8000204a:	0000                	.2byte	0x0
8000204c:	0000                	.2byte	0x0
8000204e:	3ff0                	.2byte	0x3ff0
80002050:	0000                	.2byte	0x0
80002052:	0000                	.2byte	0x0
80002054:	0000                	.2byte	0x0
80002056:	0000                	.2byte	0x0
80002058:	d4f1                	.2byte	0xd4f1
8000205a:	53c8                	.2byte	0x53c8
8000205c:	400921fb          	.4byte	0x400921fb

80002060 <test_5_data>:
80002060:	d4f1                	.2byte	0xd4f1
80002062:	53c8                	.2byte	0x53c8
80002064:	400921fb          	.4byte	0x400921fb
80002068:	0000                	.2byte	0x0
8000206a:	0000                	.2byte	0x0
8000206c:	0000                	.2byte	0x0
8000206e:	0000                	.2byte	0x0
80002070:	0000                	.2byte	0x0
80002072:	0000                	.2byte	0x0
80002074:	0000                	.2byte	0x0
80002076:	0000                	.2byte	0x0
80002078:	916f587b          	.4byte	0x916f587b
8000207c:	5bf8                	.2byte	0x5bf8
8000207e:	3ffc                	.2byte	0x3ffc

80002080 <test_6_data>:
80002080:	0000                	.2byte	0x0
80002082:	0000                	.2byte	0x0
80002084:	8800                	.2byte	0x8800
80002086:	000040c3          	fmadd.s	ft1,ft0,ft0,ft0,rmm
8000208a:	0000                	.2byte	0x0
8000208c:	0000                	.2byte	0x0
8000208e:	0000                	.2byte	0x0
80002090:	0000                	.2byte	0x0
80002092:	0000                	.2byte	0x0
80002094:	0000                	.2byte	0x0
80002096:	0000                	.2byte	0x0
80002098:	0000                	.2byte	0x0
8000209a:	0000                	.2byte	0x0
8000209c:	0000                	.2byte	0x0
8000209e:	4059                	.2byte	0x4059

800020a0 <test_16_data>:
800020a0:	0000                	.2byte	0x0
800020a2:	0000                	.2byte	0x0
800020a4:	0000                	.2byte	0x0
800020a6:	bff0                	.2byte	0xbff0
800020a8:	0000                	.2byte	0x0
800020aa:	0000                	.2byte	0x0
800020ac:	0000                	.2byte	0x0
800020ae:	0000                	.2byte	0x0
800020b0:	0000                	.2byte	0x0
800020b2:	0000                	.2byte	0x0
800020b4:	0000                	.2byte	0x0
800020b6:	0000                	.2byte	0x0
800020b8:	0000                	.2byte	0x0
800020ba:	0000                	.2byte	0x0
800020bc:	0000                	.2byte	0x0
800020be:	7ff8                	.2byte	0x7ff8

800020c0 <test_7_data>:
800020c0:	0000                	.2byte	0x0
800020c2:	0000                	.2byte	0x0
800020c4:	6000                	.2byte	0x6000
800020c6:	4065                	.2byte	0x4065
800020c8:	0000                	.2byte	0x0
800020ca:	0000                	.2byte	0x0
800020cc:	0000                	.2byte	0x0
800020ce:	0000                	.2byte	0x0
800020d0:	0000                	.2byte	0x0
800020d2:	0000                	.2byte	0x0
800020d4:	0000                	.2byte	0x0
800020d6:	0000                	.2byte	0x0
800020d8:	74f5                	.2byte	0x74f5
800020da:	ce96                	.2byte	0xce96
800020dc:	2744                	.2byte	0x2744
800020de:	402a                	.2byte	0x402a

800020e0 <test_8_data>:
800020e0:	a105                	.2byte	0xa105
800020e2:	c70a                	.2byte	0xc70a
800020e4:	94df 3e85 0000      	.byte	0xdf, 0x94, 0x85, 0x3e, 0x00, 0x00
800020ea:	0000                	.2byte	0x0
800020ec:	0000                	.2byte	0x0
800020ee:	0000                	.2byte	0x0
800020f0:	0000                	.2byte	0x0
800020f2:	0000                	.2byte	0x0
800020f4:	0000                	.2byte	0x0
800020f6:	0000                	.2byte	0x0
800020f8:	7f99                	.2byte	0x7f99
800020fa:	4789c0e3          	blt	s3,s8,80002d5a <_end+0xc3a>
800020fe:	3f3a                	.2byte	0x3f3a

80002100 <hello>:
80002100:	6948                	.2byte	0x6948
80002102:	2074                	.2byte	0x2074
80002104:	646f6f67          	.4byte	0x646f6f67
80002108:	7420                	.2byte	0x7420
8000210a:	6172                	.2byte	0x6172
8000210c:	2170                	.2byte	0x2170
8000210e:	000a                	.2byte	0xa

80002110 <goodbye>:
80002110:	6948                	.2byte	0x6948
80002112:	2074                	.2byte	0x2074
80002114:	6162                	.2byte	0x6162
80002116:	6464                	.2byte	0x6464
80002118:	7420                	.2byte	0x7420
8000211a:	6172                	.2byte	0x6172
8000211c:	2170                	.2byte	0x2170
8000211e:	000a                	.2byte	0xa
