
rv32mi-p-breakpoint:     file format elf32-littleriscv


Disassembly of section .text:

80001000 <fail-0xec>:
80001000:	00200193          	li	gp,2
80001004:	7a001073          	csrw	tselect,zero
80001008:	7a0025f3          	csrr	a1,tselect
8000100c:	10b01863          	bne	zero,a1,8000111c <pass>
80001010:	00000617          	auipc	a2,0x0
80001014:	02060613          	addi	a2,a2,32 # 80001030 <fromhost+0xff0>
80001018:	7a261073          	csrw	tdata2,a2
8000101c:	20000537          	lui	a0,0x20000
80001020:	04450513          	addi	a0,a0,68 # 20000044 <tohost-0x5fffffbc>
80001024:	7a151073          	csrw	tdata1,a0
80001028:	7a1025f3          	csrr	a1,tdata1
8000102c:	00b51863          	bne	a0,a1,8000103c <fromhost+0xffc>
80001030:	0a000e63          	beqz	zero,800010ec <fail>
80001034:	00300193          	li	gp,3
80001038:	00062503          	lw	a0,0(a2)
8000103c:	00400193          	li	gp,4
80001040:	20000537          	lui	a0,0x20000
80001044:	04150513          	addi	a0,a0,65 # 20000041 <tohost-0x5fffffbf>
80001048:	7a151073          	csrw	tdata1,a0
8000104c:	7a1025f3          	csrr	a1,tdata1
80001050:	02b51063          	bne	a0,a1,80001070 <fromhost+0x1030>
80001054:	00001617          	auipc	a2,0x1
80001058:	fcc60613          	addi	a2,a2,-52 # 80002020 <begin_signature>
8000105c:	7a261073          	csrw	tdata2,a2
80001060:	00062603          	lw	a2,0(a2)
80001064:	08060463          	beqz	a2,800010ec <fail>
80001068:	00500193          	li	gp,5
8000106c:	00062023          	sw	zero,0(a2)
80001070:	00600193          	li	gp,6
80001074:	20000537          	lui	a0,0x20000
80001078:	04250513          	addi	a0,a0,66 # 20000042 <tohost-0x5fffffbe>
8000107c:	7a151073          	csrw	tdata1,a0
80001080:	7a1025f3          	csrr	a1,tdata1
80001084:	06b51263          	bne	a0,a1,800010e8 <fromhost+0x10a8>
80001088:	00c62023          	sw	a2,0(a2)
8000108c:	00700193          	li	gp,7
80001090:	00062603          	lw	a2,0(a2)
80001094:	04061c63          	bnez	a2,800010ec <fail>
80001098:	00100513          	li	a0,1
8000109c:	7a051073          	csrw	tselect,a0
800010a0:	7a0025f3          	csrr	a1,tselect
800010a4:	06b51c63          	bne	a0,a1,8000111c <pass>
800010a8:	20000537          	lui	a0,0x20000
800010ac:	04150513          	addi	a0,a0,65 # 20000041 <tohost-0x5fffffbf>
800010b0:	7a151073          	csrw	tdata1,a0
800010b4:	00001697          	auipc	a3,0x1
800010b8:	f7068693          	addi	a3,a3,-144 # 80002024 <data2>
800010bc:	7a269073          	csrw	tdata2,a3
800010c0:	00800193          	li	gp,8
800010c4:	0006a683          	lw	a3,0(a3)
800010c8:	02068263          	beqz	a3,800010ec <fail>
800010cc:	00a00193          	li	gp,10
800010d0:	00001617          	auipc	a2,0x1
800010d4:	f5060613          	addi	a2,a2,-176 # 80002020 <begin_signature>
800010d8:	00c62023          	sw	a2,0(a2)
800010dc:	00b00193          	li	gp,11
800010e0:	00062603          	lw	a2,0(a2)
800010e4:	00061463          	bnez	a2,800010ec <fail>
800010e8:	02301a63          	bne	zero,gp,8000111c <pass>

800010ec <fail>:
800010ec:	0ff0000f          	fence
800010f0:	00001597          	auipc	a1,0x1
800010f4:	f1058593          	addi	a1,a1,-240 # 80002000 <hello>
800010f8:	00f00613          	li	a2,15
800010fc:	04000893          	li	a7,64
80001100:	00000073          	ecall
80001104:	00018063          	beqz	gp,80001104 <fail+0x18>
80001108:	00119193          	slli	gp,gp,0x1
8000110c:	0011e193          	ori	gp,gp,1
80001110:	05d00893          	li	a7,93
80001114:	00018513          	mv	a0,gp
80001118:	00000073          	ecall

8000111c <pass>:
8000111c:	0ff0000f          	fence
80001120:	00100513          	li	a0,1
80001124:	00001597          	auipc	a1,0x1
80001128:	edc58593          	addi	a1,a1,-292 # 80002000 <hello>
8000112c:	00f00613          	li	a2,15
80001130:	04000893          	li	a7,64
80001134:	00000073          	ecall
80001138:	00100193          	li	gp,1
8000113c:	05d00893          	li	a7,93
80001140:	00000513          	li	a0,0
80001144:	00000073          	ecall

80001148 <mtvec_handler>:
80001148:	0011f293          	andi	t0,gp,1
8000114c:	fa0290e3          	bnez	t0,800010ec <fail>
80001150:	00300293          	li	t0,3
80001154:	34202373          	csrr	t1,mcause
80001158:	f8629ae3          	bne	t0,t1,800010ec <fail>
8000115c:	341022f3          	csrr	t0,mepc
80001160:	00428293          	addi	t0,t0,4
80001164:	34129073          	csrw	mepc,t0
80001168:	30200073          	mret
8000116c:	c0001073          	unimp

Disassembly of section .data:

80002000 <hello>:
80002000:	6948                	.2byte	0x6948
80002002:	2074                	.2byte	0x2074
80002004:	646f6f67          	.4byte	0x646f6f67
80002008:	7420                	.2byte	0x7420
8000200a:	6172                	.2byte	0x6172
8000200c:	2170                	.2byte	0x2170
8000200e:	000a                	.2byte	0xa

80002010 <goodbye>:
80002010:	6948                	.2byte	0x6948
80002012:	2074                	.2byte	0x2074
80002014:	6162                	.2byte	0x6162
80002016:	6464                	.2byte	0x6464
80002018:	7420                	.2byte	0x7420
8000201a:	6172                	.2byte	0x6172
8000201c:	2170                	.2byte	0x2170
8000201e:	000a                	.2byte	0xa

80002020 <begin_signature>:
80002020:	0000                	.2byte	0x0
80002022:	0000                	.2byte	0x0

80002024 <data2>:
80002024:	0000                	.2byte	0x0
80002026:	0000                	.2byte	0x0
80002028:	0000                	.2byte	0x0
8000202a:	0000                	.2byte	0x0
8000202c:	0000                	.2byte	0x0
8000202e:	0000                	.2byte	0x0
