
rv32uf-p-fcvt_w:     file format elf32-littleriscv


Disassembly of section .text:

80001000 <test_2>:
80001000:	00200193          	li	gp,2
80001004:	00001517          	auipc	a0,0x1
80001008:	ffc50513          	addi	a0,a0,-4 # 80002000 <test_2_data>
8000100c:	00052007          	flw	ft0,0(a0)
80001010:	00452087          	flw	ft1,4(a0)
80001014:	00852107          	flw	ft2,8(a0)
80001018:	00c52683          	lw	a3,12(a0)
8000101c:	c0001553          	fcvt.w.s	a0,ft0,rtz
80001020:	001015f3          	fsflags	a1,zero
80001024:	00100613          	li	a2,1
80001028:	3cd51463          	bne	a0,a3,800013f0 <fail>
8000102c:	3cc59263          	bne	a1,a2,800013f0 <fail>

80001030 <test_3>:
80001030:	00300193          	li	gp,3
80001034:	00001517          	auipc	a0,0x1
80001038:	fdc50513          	addi	a0,a0,-36 # 80002010 <test_3_data>
8000103c:	00052007          	flw	ft0,0(a0)
80001040:	00452087          	flw	ft1,4(a0)
80001044:	00852107          	flw	ft2,8(a0)
80001048:	00c52683          	lw	a3,12(a0)
8000104c:	c0001553          	fcvt.w.s	a0,ft0,rtz
80001050:	001015f3          	fsflags	a1,zero
80001054:	00000613          	li	a2,0
80001058:	38d51c63          	bne	a0,a3,800013f0 <fail>
8000105c:	38c59a63          	bne	a1,a2,800013f0 <fail>

80001060 <test_4>:
80001060:	00400193          	li	gp,4
80001064:	00001517          	auipc	a0,0x1
80001068:	fbc50513          	addi	a0,a0,-68 # 80002020 <test_4_data>
8000106c:	00052007          	flw	ft0,0(a0)
80001070:	00452087          	flw	ft1,4(a0)
80001074:	00852107          	flw	ft2,8(a0)
80001078:	00c52683          	lw	a3,12(a0)
8000107c:	c0001553          	fcvt.w.s	a0,ft0,rtz
80001080:	001015f3          	fsflags	a1,zero
80001084:	00100613          	li	a2,1
80001088:	36d51463          	bne	a0,a3,800013f0 <fail>
8000108c:	36c59263          	bne	a1,a2,800013f0 <fail>

80001090 <test_5>:
80001090:	00500193          	li	gp,5
80001094:	00001517          	auipc	a0,0x1
80001098:	f9c50513          	addi	a0,a0,-100 # 80002030 <test_5_data>
8000109c:	00052007          	flw	ft0,0(a0)
800010a0:	00452087          	flw	ft1,4(a0)
800010a4:	00852107          	flw	ft2,8(a0)
800010a8:	00c52683          	lw	a3,12(a0)
800010ac:	c0001553          	fcvt.w.s	a0,ft0,rtz
800010b0:	001015f3          	fsflags	a1,zero
800010b4:	00100613          	li	a2,1
800010b8:	32d51c63          	bne	a0,a3,800013f0 <fail>
800010bc:	32c59a63          	bne	a1,a2,800013f0 <fail>

800010c0 <test_6>:
800010c0:	00600193          	li	gp,6
800010c4:	00001517          	auipc	a0,0x1
800010c8:	f7c50513          	addi	a0,a0,-132 # 80002040 <test_6_data>
800010cc:	00052007          	flw	ft0,0(a0)
800010d0:	00452087          	flw	ft1,4(a0)
800010d4:	00852107          	flw	ft2,8(a0)
800010d8:	00c52683          	lw	a3,12(a0)
800010dc:	c0001553          	fcvt.w.s	a0,ft0,rtz
800010e0:	001015f3          	fsflags	a1,zero
800010e4:	00000613          	li	a2,0
800010e8:	30d51463          	bne	a0,a3,800013f0 <fail>
800010ec:	30c59263          	bne	a1,a2,800013f0 <fail>

800010f0 <test_7>:
800010f0:	00700193          	li	gp,7
800010f4:	00001517          	auipc	a0,0x1
800010f8:	f5c50513          	addi	a0,a0,-164 # 80002050 <test_7_data>
800010fc:	00052007          	flw	ft0,0(a0)
80001100:	00452087          	flw	ft1,4(a0)
80001104:	00852107          	flw	ft2,8(a0)
80001108:	00c52683          	lw	a3,12(a0)
8000110c:	c0001553          	fcvt.w.s	a0,ft0,rtz
80001110:	001015f3          	fsflags	a1,zero
80001114:	00100613          	li	a2,1
80001118:	2cd51c63          	bne	a0,a3,800013f0 <fail>
8000111c:	2cc59a63          	bne	a1,a2,800013f0 <fail>

80001120 <test_8>:
80001120:	00800193          	li	gp,8
80001124:	00001517          	auipc	a0,0x1
80001128:	f3c50513          	addi	a0,a0,-196 # 80002060 <test_8_data>
8000112c:	00052007          	flw	ft0,0(a0)
80001130:	00452087          	flw	ft1,4(a0)
80001134:	00852107          	flw	ft2,8(a0)
80001138:	00c52683          	lw	a3,12(a0)
8000113c:	c0001553          	fcvt.w.s	a0,ft0,rtz
80001140:	001015f3          	fsflags	a1,zero
80001144:	01000613          	li	a2,16
80001148:	2ad51463          	bne	a0,a3,800013f0 <fail>
8000114c:	2ac59263          	bne	a1,a2,800013f0 <fail>

80001150 <test_9>:
80001150:	00900193          	li	gp,9
80001154:	00001517          	auipc	a0,0x1
80001158:	f1c50513          	addi	a0,a0,-228 # 80002070 <test_9_data>
8000115c:	00052007          	flw	ft0,0(a0)
80001160:	00452087          	flw	ft1,4(a0)
80001164:	00852107          	flw	ft2,8(a0)
80001168:	00c52683          	lw	a3,12(a0)
8000116c:	c0001553          	fcvt.w.s	a0,ft0,rtz
80001170:	001015f3          	fsflags	a1,zero
80001174:	01000613          	li	a2,16
80001178:	26d51c63          	bne	a0,a3,800013f0 <fail>
8000117c:	26c59a63          	bne	a1,a2,800013f0 <fail>

80001180 <test_12>:
80001180:	00c00193          	li	gp,12
80001184:	00001517          	auipc	a0,0x1
80001188:	efc50513          	addi	a0,a0,-260 # 80002080 <test_12_data>
8000118c:	00052007          	flw	ft0,0(a0)
80001190:	00452087          	flw	ft1,4(a0)
80001194:	00852107          	flw	ft2,8(a0)
80001198:	00c52683          	lw	a3,12(a0)
8000119c:	c0101553          	fcvt.wu.s	a0,ft0,rtz
800011a0:	001015f3          	fsflags	a1,zero
800011a4:	01000613          	li	a2,16
800011a8:	24d51463          	bne	a0,a3,800013f0 <fail>
800011ac:	24c59263          	bne	a1,a2,800013f0 <fail>

800011b0 <test_13>:
800011b0:	00d00193          	li	gp,13
800011b4:	00001517          	auipc	a0,0x1
800011b8:	edc50513          	addi	a0,a0,-292 # 80002090 <test_13_data>
800011bc:	00052007          	flw	ft0,0(a0)
800011c0:	00452087          	flw	ft1,4(a0)
800011c4:	00852107          	flw	ft2,8(a0)
800011c8:	00c52683          	lw	a3,12(a0)
800011cc:	c0101553          	fcvt.wu.s	a0,ft0,rtz
800011d0:	001015f3          	fsflags	a1,zero
800011d4:	01000613          	li	a2,16
800011d8:	20d51c63          	bne	a0,a3,800013f0 <fail>
800011dc:	20c59a63          	bne	a1,a2,800013f0 <fail>

800011e0 <test_14>:
800011e0:	00e00193          	li	gp,14
800011e4:	00001517          	auipc	a0,0x1
800011e8:	ebc50513          	addi	a0,a0,-324 # 800020a0 <test_14_data>
800011ec:	00052007          	flw	ft0,0(a0)
800011f0:	00452087          	flw	ft1,4(a0)
800011f4:	00852107          	flw	ft2,8(a0)
800011f8:	00c52683          	lw	a3,12(a0)
800011fc:	c0101553          	fcvt.wu.s	a0,ft0,rtz
80001200:	001015f3          	fsflags	a1,zero
80001204:	00100613          	li	a2,1
80001208:	1ed51463          	bne	a0,a3,800013f0 <fail>
8000120c:	1ec59263          	bne	a1,a2,800013f0 <fail>

80001210 <test_15>:
80001210:	00f00193          	li	gp,15
80001214:	00001517          	auipc	a0,0x1
80001218:	e9c50513          	addi	a0,a0,-356 # 800020b0 <test_15_data>
8000121c:	00052007          	flw	ft0,0(a0)
80001220:	00452087          	flw	ft1,4(a0)
80001224:	00852107          	flw	ft2,8(a0)
80001228:	00c52683          	lw	a3,12(a0)
8000122c:	c0101553          	fcvt.wu.s	a0,ft0,rtz
80001230:	001015f3          	fsflags	a1,zero
80001234:	00100613          	li	a2,1
80001238:	1ad51c63          	bne	a0,a3,800013f0 <fail>
8000123c:	1ac59a63          	bne	a1,a2,800013f0 <fail>

80001240 <test_16>:
80001240:	01000193          	li	gp,16
80001244:	00001517          	auipc	a0,0x1
80001248:	e7c50513          	addi	a0,a0,-388 # 800020c0 <test_16_data>
8000124c:	00052007          	flw	ft0,0(a0)
80001250:	00452087          	flw	ft1,4(a0)
80001254:	00852107          	flw	ft2,8(a0)
80001258:	00c52683          	lw	a3,12(a0)
8000125c:	c0101553          	fcvt.wu.s	a0,ft0,rtz
80001260:	001015f3          	fsflags	a1,zero
80001264:	00000613          	li	a2,0
80001268:	18d51463          	bne	a0,a3,800013f0 <fail>
8000126c:	18c59263          	bne	a1,a2,800013f0 <fail>

80001270 <test_17>:
80001270:	01100193          	li	gp,17
80001274:	00001517          	auipc	a0,0x1
80001278:	e5c50513          	addi	a0,a0,-420 # 800020d0 <test_17_data>
8000127c:	00052007          	flw	ft0,0(a0)
80001280:	00452087          	flw	ft1,4(a0)
80001284:	00852107          	flw	ft2,8(a0)
80001288:	00c52683          	lw	a3,12(a0)
8000128c:	c0101553          	fcvt.wu.s	a0,ft0,rtz
80001290:	001015f3          	fsflags	a1,zero
80001294:	00100613          	li	a2,1
80001298:	14d51c63          	bne	a0,a3,800013f0 <fail>
8000129c:	14c59a63          	bne	a1,a2,800013f0 <fail>

800012a0 <test_18>:
800012a0:	01200193          	li	gp,18
800012a4:	00001517          	auipc	a0,0x1
800012a8:	e3c50513          	addi	a0,a0,-452 # 800020e0 <test_18_data>
800012ac:	00052007          	flw	ft0,0(a0)
800012b0:	00452087          	flw	ft1,4(a0)
800012b4:	00852107          	flw	ft2,8(a0)
800012b8:	00c52683          	lw	a3,12(a0)
800012bc:	c0101553          	fcvt.wu.s	a0,ft0,rtz
800012c0:	001015f3          	fsflags	a1,zero
800012c4:	01000613          	li	a2,16
800012c8:	12d51463          	bne	a0,a3,800013f0 <fail>
800012cc:	12c59263          	bne	a1,a2,800013f0 <fail>

800012d0 <test_19>:
800012d0:	01300193          	li	gp,19
800012d4:	00001517          	auipc	a0,0x1
800012d8:	e1c50513          	addi	a0,a0,-484 # 800020f0 <test_19_data>
800012dc:	00052007          	flw	ft0,0(a0)
800012e0:	00452087          	flw	ft1,4(a0)
800012e4:	00852107          	flw	ft2,8(a0)
800012e8:	00c52683          	lw	a3,12(a0)
800012ec:	c0101553          	fcvt.wu.s	a0,ft0,rtz
800012f0:	001015f3          	fsflags	a1,zero
800012f4:	00000613          	li	a2,0
800012f8:	0ed51c63          	bne	a0,a3,800013f0 <fail>
800012fc:	0ec59a63          	bne	a1,a2,800013f0 <fail>

80001300 <test_42>:
80001300:	02a00193          	li	gp,42
80001304:	00001097          	auipc	ra,0x1
80001308:	e1c08093          	addi	ra,ra,-484 # 80002120 <begin_signature>
8000130c:	0000a087          	flw	ft1,0(ra)
80001310:	c000f0d3          	fcvt.w.s	ra,ft1
80001314:	800003b7          	lui	t2,0x80000
80001318:	fff38393          	addi	t2,t2,-1 # 7fffffff <_end+0xffffdeaf>
8000131c:	0c709a63          	bne	ra,t2,800013f0 <fail>

80001320 <test_44>:
80001320:	02c00193          	li	gp,44
80001324:	00001097          	auipc	ra,0x1
80001328:	dfc08093          	addi	ra,ra,-516 # 80002120 <begin_signature>
8000132c:	0080a087          	flw	ft1,8(ra)
80001330:	c000f0d3          	fcvt.w.s	ra,ft1
80001334:	800003b7          	lui	t2,0x80000
80001338:	0a709c63          	bne	ra,t2,800013f0 <fail>

8000133c <test_52>:
8000133c:	03400193          	li	gp,52
80001340:	00001097          	auipc	ra,0x1
80001344:	de008093          	addi	ra,ra,-544 # 80002120 <begin_signature>
80001348:	0040a087          	flw	ft1,4(ra)
8000134c:	c000f0d3          	fcvt.w.s	ra,ft1
80001350:	800003b7          	lui	t2,0x80000
80001354:	fff38393          	addi	t2,t2,-1 # 7fffffff <_end+0xffffdeaf>
80001358:	08709c63          	bne	ra,t2,800013f0 <fail>

8000135c <test_54>:
8000135c:	03600193          	li	gp,54
80001360:	00001097          	auipc	ra,0x1
80001364:	dc008093          	addi	ra,ra,-576 # 80002120 <begin_signature>
80001368:	00c0a087          	flw	ft1,12(ra)
8000136c:	c000f0d3          	fcvt.w.s	ra,ft1
80001370:	800003b7          	lui	t2,0x80000
80001374:	fff38393          	addi	t2,t2,-1 # 7fffffff <_end+0xffffdeaf>
80001378:	06709c63          	bne	ra,t2,800013f0 <fail>

8000137c <test_62>:
8000137c:	03e00193          	li	gp,62
80001380:	00001097          	auipc	ra,0x1
80001384:	da008093          	addi	ra,ra,-608 # 80002120 <begin_signature>
80001388:	0000a087          	flw	ft1,0(ra)
8000138c:	c010f0d3          	fcvt.wu.s	ra,ft1
80001390:	fff00393          	li	t2,-1
80001394:	04709e63          	bne	ra,t2,800013f0 <fail>

80001398 <test_63>:
80001398:	03f00193          	li	gp,63
8000139c:	00001097          	auipc	ra,0x1
800013a0:	d8408093          	addi	ra,ra,-636 # 80002120 <begin_signature>
800013a4:	0040a087          	flw	ft1,4(ra)
800013a8:	c010f0d3          	fcvt.wu.s	ra,ft1
800013ac:	fff00393          	li	t2,-1
800013b0:	04709063          	bne	ra,t2,800013f0 <fail>

800013b4 <test_64>:
800013b4:	04000193          	li	gp,64
800013b8:	00001097          	auipc	ra,0x1
800013bc:	d6808093          	addi	ra,ra,-664 # 80002120 <begin_signature>
800013c0:	0080a087          	flw	ft1,8(ra)
800013c4:	c010f0d3          	fcvt.wu.s	ra,ft1
800013c8:	00000393          	li	t2,0
800013cc:	02709263          	bne	ra,t2,800013f0 <fail>

800013d0 <test_65>:
800013d0:	04100193          	li	gp,65
800013d4:	00001097          	auipc	ra,0x1
800013d8:	d4c08093          	addi	ra,ra,-692 # 80002120 <begin_signature>
800013dc:	00c0a087          	flw	ft1,12(ra)
800013e0:	c010f0d3          	fcvt.wu.s	ra,ft1
800013e4:	fff00393          	li	t2,-1
800013e8:	00709463          	bne	ra,t2,800013f0 <fail>
800013ec:	02301a63          	bne	zero,gp,80001420 <pass>

800013f0 <fail>:
800013f0:	0ff0000f          	fence
800013f4:	00001597          	auipc	a1,0x1
800013f8:	d0c58593          	addi	a1,a1,-756 # 80002100 <hello>
800013fc:	00f00613          	li	a2,15
80001400:	04000893          	li	a7,64
80001404:	00000073          	ecall
80001408:	00018063          	beqz	gp,80001408 <fail+0x18>
8000140c:	00119193          	slli	gp,gp,0x1
80001410:	0011e193          	ori	gp,gp,1
80001414:	05d00893          	li	a7,93
80001418:	00018513          	mv	a0,gp
8000141c:	00000073          	ecall

80001420 <pass>:
80001420:	0ff0000f          	fence
80001424:	00100513          	li	a0,1
80001428:	00001597          	auipc	a1,0x1
8000142c:	cd858593          	addi	a1,a1,-808 # 80002100 <hello>
80001430:	00f00613          	li	a2,15
80001434:	04000893          	li	a7,64
80001438:	00000073          	ecall
8000143c:	00100193          	li	gp,1
80001440:	05d00893          	li	a7,93
80001444:	00000513          	li	a0,0
80001448:	00000073          	ecall
8000144c:	c0001073          	unimp

Disassembly of section .data:

80002000 <test_2_data>:
80002000:	cccd                	.2byte	0xcccd
80002002:	bf8c                	.2byte	0xbf8c
80002004:	0000                	.2byte	0x0
80002006:	0000                	.2byte	0x0
80002008:	0000                	.2byte	0x0
8000200a:	0000                	.2byte	0x0
8000200c:	ffff                	.2byte	0xffff
8000200e:	ffff                	.2byte	0xffff

80002010 <test_3_data>:
80002010:	0000                	.2byte	0x0
80002012:	bf80                	.2byte	0xbf80
80002014:	0000                	.2byte	0x0
80002016:	0000                	.2byte	0x0
80002018:	0000                	.2byte	0x0
8000201a:	0000                	.2byte	0x0
8000201c:	ffff                	.2byte	0xffff
8000201e:	ffff                	.2byte	0xffff

80002020 <test_4_data>:
80002020:	6666                	.2byte	0x6666
80002022:	bf66                	.2byte	0xbf66
80002024:	0000                	.2byte	0x0
80002026:	0000                	.2byte	0x0
80002028:	0000                	.2byte	0x0
8000202a:	0000                	.2byte	0x0
8000202c:	0000                	.2byte	0x0
8000202e:	0000                	.2byte	0x0

80002030 <test_5_data>:
80002030:	6666                	.2byte	0x6666
80002032:	3f66                	.2byte	0x3f66
80002034:	0000                	.2byte	0x0
80002036:	0000                	.2byte	0x0
80002038:	0000                	.2byte	0x0
8000203a:	0000                	.2byte	0x0
8000203c:	0000                	.2byte	0x0
8000203e:	0000                	.2byte	0x0

80002040 <test_6_data>:
80002040:	0000                	.2byte	0x0
80002042:	3f80                	.2byte	0x3f80
80002044:	0000                	.2byte	0x0
80002046:	0000                	.2byte	0x0
80002048:	0000                	.2byte	0x0
8000204a:	0000                	.2byte	0x0
8000204c:	0001                	.2byte	0x1
8000204e:	0000                	.2byte	0x0

80002050 <test_7_data>:
80002050:	cccd                	.2byte	0xcccd
80002052:	3f8c                	.2byte	0x3f8c
80002054:	0000                	.2byte	0x0
80002056:	0000                	.2byte	0x0
80002058:	0000                	.2byte	0x0
8000205a:	0000                	.2byte	0x0
8000205c:	0001                	.2byte	0x1
8000205e:	0000                	.2byte	0x0

80002060 <test_8_data>:
80002060:	d05e                	.2byte	0xd05e
80002062:	cf32                	.2byte	0xcf32
80002064:	0000                	.2byte	0x0
80002066:	0000                	.2byte	0x0
80002068:	0000                	.2byte	0x0
8000206a:	0000                	.2byte	0x0
8000206c:	0000                	.2byte	0x0
8000206e:	8000                	.2byte	0x8000

80002070 <test_9_data>:
80002070:	d05e                	.2byte	0xd05e
80002072:	4f32                	.2byte	0x4f32
80002074:	0000                	.2byte	0x0
80002076:	0000                	.2byte	0x0
80002078:	0000                	.2byte	0x0
8000207a:	0000                	.2byte	0x0
8000207c:	ffff                	.2byte	0xffff
8000207e:	7fff                	.2byte	0x7fff

80002080 <test_12_data>:
80002080:	0000                	.2byte	0x0
80002082:	c040                	.2byte	0xc040
80002084:	0000                	.2byte	0x0
80002086:	0000                	.2byte	0x0
80002088:	0000                	.2byte	0x0
8000208a:	0000                	.2byte	0x0
8000208c:	0000                	.2byte	0x0
8000208e:	0000                	.2byte	0x0

80002090 <test_13_data>:
80002090:	0000                	.2byte	0x0
80002092:	bf80                	.2byte	0xbf80
80002094:	0000                	.2byte	0x0
80002096:	0000                	.2byte	0x0
80002098:	0000                	.2byte	0x0
8000209a:	0000                	.2byte	0x0
8000209c:	0000                	.2byte	0x0
8000209e:	0000                	.2byte	0x0

800020a0 <test_14_data>:
800020a0:	6666                	.2byte	0x6666
800020a2:	bf66                	.2byte	0xbf66
800020a4:	0000                	.2byte	0x0
800020a6:	0000                	.2byte	0x0
800020a8:	0000                	.2byte	0x0
800020aa:	0000                	.2byte	0x0
800020ac:	0000                	.2byte	0x0
800020ae:	0000                	.2byte	0x0

800020b0 <test_15_data>:
800020b0:	6666                	.2byte	0x6666
800020b2:	3f66                	.2byte	0x3f66
800020b4:	0000                	.2byte	0x0
800020b6:	0000                	.2byte	0x0
800020b8:	0000                	.2byte	0x0
800020ba:	0000                	.2byte	0x0
800020bc:	0000                	.2byte	0x0
800020be:	0000                	.2byte	0x0

800020c0 <test_16_data>:
800020c0:	0000                	.2byte	0x0
800020c2:	3f80                	.2byte	0x3f80
800020c4:	0000                	.2byte	0x0
800020c6:	0000                	.2byte	0x0
800020c8:	0000                	.2byte	0x0
800020ca:	0000                	.2byte	0x0
800020cc:	0001                	.2byte	0x1
800020ce:	0000                	.2byte	0x0

800020d0 <test_17_data>:
800020d0:	cccd                	.2byte	0xcccd
800020d2:	3f8c                	.2byte	0x3f8c
800020d4:	0000                	.2byte	0x0
800020d6:	0000                	.2byte	0x0
800020d8:	0000                	.2byte	0x0
800020da:	0000                	.2byte	0x0
800020dc:	0001                	.2byte	0x1
800020de:	0000                	.2byte	0x0

800020e0 <test_18_data>:
800020e0:	d05e                	.2byte	0xd05e
800020e2:	cf32                	.2byte	0xcf32
800020e4:	0000                	.2byte	0x0
800020e6:	0000                	.2byte	0x0
800020e8:	0000                	.2byte	0x0
800020ea:	0000                	.2byte	0x0
800020ec:	0000                	.2byte	0x0
800020ee:	0000                	.2byte	0x0

800020f0 <test_19_data>:
800020f0:	d05e                	.2byte	0xd05e
800020f2:	4f32                	.2byte	0x4f32
800020f4:	0000                	.2byte	0x0
800020f6:	0000                	.2byte	0x0
800020f8:	0000                	.2byte	0x0
800020fa:	0000                	.2byte	0x0
800020fc:	5e00                	.2byte	0x5e00
800020fe:	b2d0                	.2byte	0xb2d0

80002100 <hello>:
80002100:	6948                	.2byte	0x6948
80002102:	2074                	.2byte	0x2074
80002104:	646f6f67          	.4byte	0x646f6f67
80002108:	7420                	.2byte	0x7420
8000210a:	6172                	.2byte	0x6172
8000210c:	2170                	.2byte	0x2170
8000210e:	000a                	.2byte	0xa

80002110 <goodbye>:
80002110:	6948                	.2byte	0x6948
80002112:	2074                	.2byte	0x2074
80002114:	6162                	.2byte	0x6162
80002116:	6464                	.2byte	0x6464
80002118:	7420                	.2byte	0x7420
8000211a:	6172                	.2byte	0x6172
8000211c:	2170                	.2byte	0x2170
8000211e:	000a                	.2byte	0xa

80002120 <begin_signature>:
80002120:	ffff                	.2byte	0xffff
80002122:	ffff                	.2byte	0xffff
80002124:	ffff                	.2byte	0xffff
80002126:	7fff                	.2byte	0x7fff
80002128:	0000                	.2byte	0x0
8000212a:	ff80                	.2byte	0xff80
8000212c:	0000                	.2byte	0x0
8000212e:	7f80                	.2byte	0x7f80

80002130 <tdat_d>:
80002130:	ffff                	.2byte	0xffff
80002132:	ffff                	.2byte	0xffff
80002134:	ffff                	.2byte	0xffff
80002136:	ffff                	.2byte	0xffff
80002138:	ffff                	.2byte	0xffff
8000213a:	ffff                	.2byte	0xffff
8000213c:	ffff                	.2byte	0xffff
8000213e:	7fff                	.2byte	0x7fff
80002140:	0000                	.2byte	0x0
80002142:	0000                	.2byte	0x0
80002144:	0000                	.2byte	0x0
80002146:	fff0                	.2byte	0xfff0
80002148:	0000                	.2byte	0x0
8000214a:	0000                	.2byte	0x0
8000214c:	0000                	.2byte	0x0
8000214e:	7ff0                	.2byte	0x7ff0
