
rv32mi-p-ma_fetch:     file format elf32-littleriscv


Disassembly of section .text:

80001000 <fail-0x100>:
80001000:	00200193          	li	gp,2
80001004:	00000313          	li	t1,0
80001008:	00000297          	auipc	t0,0x0
8000100c:	00c28293          	addi	t0,t0,12 # 80001014 <fromhost+0xfd4>
80001010:	00228367          	jalr	t1,2(t0)
80001014:	a011                	.2byte	0xa011
80001016:	a019                	.2byte	0xa019
80001018:	0e80006f          	j	80001100 <fail>
8000101c:	00300193          	li	gp,3
80001020:	00000297          	auipc	t0,0x0
80001024:	00c28293          	addi	t0,t0,12 # 8000102c <fromhost+0xfec>
80001028:	00128367          	jalr	t1,1(t0)
8000102c:	0080006f          	j	80001034 <fromhost+0xff4>
80001030:	0d00006f          	j	80001100 <fail>
80001034:	00400193          	li	gp,4
80001038:	00000313          	li	t1,0
8000103c:	00000297          	auipc	t0,0x0
80001040:	00c28293          	addi	t0,t0,12 # 80001048 <fromhost+0x1008>
80001044:	00328367          	jalr	t1,3(t0)
80001048:	a011                	.2byte	0xa011
8000104a:	a019                	.2byte	0xa019
8000104c:	0b40006f          	j	80001100 <fail>
80001050:	00500193          	li	gp,5
80001054:	00000313          	li	t1,0
80001058:	00000297          	auipc	t0,0x0
8000105c:	00c28293          	addi	t0,t0,12 # 80001064 <fromhost+0x1024>
80001060:	0060036f          	jal	t1,80001066 <fromhost+0x1026>
80001064:	a011                	.2byte	0xa011
80001066:	a019                	.2byte	0xa019
80001068:	0980006f          	j	80001100 <fail>
8000106c:	00600193          	li	gp,6
80001070:	00000313          	li	t1,0
80001074:	00000297          	auipc	t0,0x0
80001078:	00c28293          	addi	t0,t0,12 # 80001080 <fromhost+0x1040>
8000107c:	00000363          	beqz	zero,80001082 <fromhost+0x1042>
80001080:	a011                	.2byte	0xa011
80001082:	a019                	.2byte	0xa019
80001084:	07c0006f          	j	80001100 <fail>
80001088:	00700193          	li	gp,7
8000108c:	00001563          	bnez	zero,80001096 <fromhost+0x1056>
80001090:	00c0006f          	j	8000109c <fromhost+0x105c>
80001094:	a009                	.2byte	0xa009
80001096:	a009                	.2byte	0xa009
80001098:	0680006f          	j	80001100 <fail>
8000109c:	00800193          	li	gp,8
800010a0:	301023f3          	csrr	t2,misa
800010a4:	0043f393          	andi	t2,t2,4
800010a8:	04038863          	beqz	t2,800010f8 <fromhost+0x10b8>
800010ac:	0001                	.2byte	0x1
800010ae:	30127073          	csrci	misa,4
800010b2:	0001                	.2byte	0x1
800010b4:	301023f3          	csrr	t2,misa
800010b8:	0043f393          	andi	t2,t2,4
800010bc:	04038263          	beqz	t2,80001100 <fail>
800010c0:	00000297          	auipc	t0,0x0
800010c4:	03428293          	addi	t0,t0,52 # 800010f4 <fromhost+0x10b4>
800010c8:	ffe28293          	addi	t0,t0,-2
800010cc:	34129073          	csrw	mepc,t0
800010d0:	30127073          	csrci	misa,4
800010d4:	301023f3          	csrr	t2,misa
800010d8:	0043f393          	andi	t2,t2,4
800010dc:	00039e63          	bnez	t2,800010f8 <fromhost+0x10b8>
800010e0:	000023b7          	lui	t2,0x2
800010e4:	80038393          	addi	t2,t2,-2048 # 1800 <tohost-0x7fffe800>
800010e8:	3003a073          	csrs	mstatus,t2
800010ec:	30200073          	mret
800010f0:	00000263          	beqz	zero,800010f4 <fromhost+0x10b4>
800010f4:	30126073          	csrsi	misa,4
800010f8:	0380006f          	j	80001130 <pass>
800010fc:	02301a63          	bne	zero,gp,80001130 <pass>

80001100 <fail>:
80001100:	0ff0000f          	fence
80001104:	00001597          	auipc	a1,0x1
80001108:	efc58593          	addi	a1,a1,-260 # 80002000 <hello>
8000110c:	00f00613          	li	a2,15
80001110:	04000893          	li	a7,64
80001114:	00000073          	ecall
80001118:	00018063          	beqz	gp,80001118 <fail+0x18>
8000111c:	00119193          	slli	gp,gp,0x1
80001120:	0011e193          	ori	gp,gp,1
80001124:	05d00893          	li	a7,93
80001128:	00018513          	mv	a0,gp
8000112c:	00000073          	ecall

80001130 <pass>:
80001130:	0ff0000f          	fence
80001134:	00100513          	li	a0,1
80001138:	00001597          	auipc	a1,0x1
8000113c:	ec858593          	addi	a1,a1,-312 # 80002000 <hello>
80001140:	00f00613          	li	a2,15
80001144:	04000893          	li	a7,64
80001148:	00000073          	ecall
8000114c:	00100193          	li	gp,1
80001150:	05d00893          	li	a7,93
80001154:	00000513          	li	a0,0
80001158:	00000073          	ecall

8000115c <mtvec_handler>:
8000115c:	00200513          	li	a0,2
80001160:	02a18063          	beq	gp,a0,80001180 <mtvec_handler+0x24>
80001164:	00400513          	li	a0,4
80001168:	00a18c63          	beq	gp,a0,80001180 <mtvec_handler+0x24>
8000116c:	00500513          	li	a0,5
80001170:	00a18863          	beq	gp,a0,80001180 <mtvec_handler+0x24>
80001174:	00600513          	li	a0,6
80001178:	00a18463          	beq	gp,a0,80001180 <mtvec_handler+0x24>
8000117c:	f85ff06f          	j	80001100 <fail>
80001180:	f80310e3          	bnez	t1,80001100 <fail>
80001184:	00000593          	li	a1,0
80001188:	34202573          	csrr	a0,mcause
8000118c:	f6b51ae3          	bne	a0,a1,80001100 <fail>
80001190:	341025f3          	csrr	a1,mepc
80001194:	00458593          	addi	a1,a1,4
80001198:	f6b294e3          	bne	t0,a1,80001100 <fail>
8000119c:	34302573          	csrr	a0,mtval
800011a0:	00050663          	beqz	a0,800011ac <mtvec_handler+0x50>
800011a4:	ffe50513          	addi	a0,a0,-2
800011a8:	f4551ce3          	bne	a0,t0,80001100 <fail>
800011ac:	00c58593          	addi	a1,a1,12
800011b0:	34159073          	csrw	mepc,a1
800011b4:	30200073          	mret
800011b8:	c0001073          	unimp

Disassembly of section .data:

80002000 <hello>:
80002000:	6948                	.2byte	0x6948
80002002:	2074                	.2byte	0x2074
80002004:	646f6f67          	.4byte	0x646f6f67
80002008:	7420                	.2byte	0x7420
8000200a:	6172                	.2byte	0x6172
8000200c:	2170                	.2byte	0x2170
8000200e:	000a                	.2byte	0xa

80002010 <goodbye>:
80002010:	6948                	.2byte	0x6948
80002012:	2074                	.2byte	0x2074
80002014:	6162                	.2byte	0x6162
80002016:	6464                	.2byte	0x6464
80002018:	7420                	.2byte	0x7420
8000201a:	6172                	.2byte	0x6172
8000201c:	2170                	.2byte	0x2170
8000201e:	000a                	.2byte	0xa
