
rv32ui-p-add:     file format elf32-littleriscv


Disassembly of section .text:

80001000 <test_2>:
80001000:	00200193          	li	gp,2
80001004:	00000093          	li	ra,0
80001008:	00000113          	li	sp,0
8000100c:	00208733          	add	a4,ra,sp
80001010:	00000393          	li	t2,0
80001014:	4c771663          	bne	a4,t2,800014e0 <fail>

80001018 <test_3>:
80001018:	00300193          	li	gp,3
8000101c:	00100093          	li	ra,1
80001020:	00100113          	li	sp,1
80001024:	00208733          	add	a4,ra,sp
80001028:	00200393          	li	t2,2
8000102c:	4a771a63          	bne	a4,t2,800014e0 <fail>

80001030 <test_4>:
80001030:	00400193          	li	gp,4
80001034:	00300093          	li	ra,3
80001038:	00700113          	li	sp,7
8000103c:	00208733          	add	a4,ra,sp
80001040:	00a00393          	li	t2,10
80001044:	48771e63          	bne	a4,t2,800014e0 <fail>

80001048 <test_5>:
80001048:	00500193          	li	gp,5
8000104c:	00000093          	li	ra,0
80001050:	ffff8137          	lui	sp,0xffff8
80001054:	00208733          	add	a4,ra,sp
80001058:	ffff83b7          	lui	t2,0xffff8
8000105c:	48771263          	bne	a4,t2,800014e0 <fail>

80001060 <test_6>:
80001060:	00600193          	li	gp,6
80001064:	800000b7          	lui	ra,0x80000
80001068:	00000113          	li	sp,0
8000106c:	00208733          	add	a4,ra,sp
80001070:	800003b7          	lui	t2,0x80000
80001074:	46771663          	bne	a4,t2,800014e0 <fail>

80001078 <test_7>:
80001078:	00700193          	li	gp,7
8000107c:	800000b7          	lui	ra,0x80000
80001080:	ffff8137          	lui	sp,0xffff8
80001084:	00208733          	add	a4,ra,sp
80001088:	7fff83b7          	lui	t2,0x7fff8
8000108c:	44771a63          	bne	a4,t2,800014e0 <fail>

80001090 <test_8>:
80001090:	00800193          	li	gp,8
80001094:	00000093          	li	ra,0
80001098:	00008137          	lui	sp,0x8
8000109c:	fff10113          	addi	sp,sp,-1 # 7fff <tohost-0x7fff8001>
800010a0:	00208733          	add	a4,ra,sp
800010a4:	000083b7          	lui	t2,0x8
800010a8:	fff38393          	addi	t2,t2,-1 # 7fff <tohost-0x7fff8001>
800010ac:	42771a63          	bne	a4,t2,800014e0 <fail>

800010b0 <test_9>:
800010b0:	00900193          	li	gp,9
800010b4:	800000b7          	lui	ra,0x80000
800010b8:	fff08093          	addi	ra,ra,-1 # 7fffffff <_end+0xffffdfdf>
800010bc:	00000113          	li	sp,0
800010c0:	00208733          	add	a4,ra,sp
800010c4:	800003b7          	lui	t2,0x80000
800010c8:	fff38393          	addi	t2,t2,-1 # 7fffffff <_end+0xffffdfdf>
800010cc:	40771a63          	bne	a4,t2,800014e0 <fail>

800010d0 <test_10>:
800010d0:	00a00193          	li	gp,10
800010d4:	800000b7          	lui	ra,0x80000
800010d8:	fff08093          	addi	ra,ra,-1 # 7fffffff <_end+0xffffdfdf>
800010dc:	00008137          	lui	sp,0x8
800010e0:	fff10113          	addi	sp,sp,-1 # 7fff <tohost-0x7fff8001>
800010e4:	00208733          	add	a4,ra,sp
800010e8:	800083b7          	lui	t2,0x80008
800010ec:	ffe38393          	addi	t2,t2,-2 # 80007ffe <_end+0x5fde>
800010f0:	3e771863          	bne	a4,t2,800014e0 <fail>

800010f4 <test_11>:
800010f4:	00b00193          	li	gp,11
800010f8:	800000b7          	lui	ra,0x80000
800010fc:	00008137          	lui	sp,0x8
80001100:	fff10113          	addi	sp,sp,-1 # 7fff <tohost-0x7fff8001>
80001104:	00208733          	add	a4,ra,sp
80001108:	800083b7          	lui	t2,0x80008
8000110c:	fff38393          	addi	t2,t2,-1 # 80007fff <_end+0x5fdf>
80001110:	3c771863          	bne	a4,t2,800014e0 <fail>

80001114 <test_12>:
80001114:	00c00193          	li	gp,12
80001118:	800000b7          	lui	ra,0x80000
8000111c:	fff08093          	addi	ra,ra,-1 # 7fffffff <_end+0xffffdfdf>
80001120:	ffff8137          	lui	sp,0xffff8
80001124:	00208733          	add	a4,ra,sp
80001128:	7fff83b7          	lui	t2,0x7fff8
8000112c:	fff38393          	addi	t2,t2,-1 # 7fff7fff <tohost-0x8001>
80001130:	3a771863          	bne	a4,t2,800014e0 <fail>

80001134 <test_13>:
80001134:	00d00193          	li	gp,13
80001138:	00000093          	li	ra,0
8000113c:	fff00113          	li	sp,-1
80001140:	00208733          	add	a4,ra,sp
80001144:	fff00393          	li	t2,-1
80001148:	38771c63          	bne	a4,t2,800014e0 <fail>

8000114c <test_14>:
8000114c:	00e00193          	li	gp,14
80001150:	fff00093          	li	ra,-1
80001154:	00100113          	li	sp,1
80001158:	00208733          	add	a4,ra,sp
8000115c:	00000393          	li	t2,0
80001160:	38771063          	bne	a4,t2,800014e0 <fail>

80001164 <test_15>:
80001164:	00f00193          	li	gp,15
80001168:	fff00093          	li	ra,-1
8000116c:	fff00113          	li	sp,-1
80001170:	00208733          	add	a4,ra,sp
80001174:	ffe00393          	li	t2,-2
80001178:	36771463          	bne	a4,t2,800014e0 <fail>

8000117c <test_16>:
8000117c:	01000193          	li	gp,16
80001180:	00100093          	li	ra,1
80001184:	80000137          	lui	sp,0x80000
80001188:	fff10113          	addi	sp,sp,-1 # 7fffffff <_end+0xffffdfdf>
8000118c:	00208733          	add	a4,ra,sp
80001190:	800003b7          	lui	t2,0x80000
80001194:	34771663          	bne	a4,t2,800014e0 <fail>

80001198 <test_17>:
80001198:	01100193          	li	gp,17
8000119c:	00d00093          	li	ra,13
800011a0:	00b00113          	li	sp,11
800011a4:	002080b3          	add	ra,ra,sp
800011a8:	01800393          	li	t2,24
800011ac:	32709a63          	bne	ra,t2,800014e0 <fail>

800011b0 <test_18>:
800011b0:	01200193          	li	gp,18
800011b4:	00e00093          	li	ra,14
800011b8:	00b00113          	li	sp,11
800011bc:	00208133          	add	sp,ra,sp
800011c0:	01900393          	li	t2,25
800011c4:	30711e63          	bne	sp,t2,800014e0 <fail>

800011c8 <test_19>:
800011c8:	01300193          	li	gp,19
800011cc:	00d00093          	li	ra,13
800011d0:	001080b3          	add	ra,ra,ra
800011d4:	01a00393          	li	t2,26
800011d8:	30709463          	bne	ra,t2,800014e0 <fail>

800011dc <test_20>:
800011dc:	01400193          	li	gp,20
800011e0:	00000213          	li	tp,0
800011e4:	00d00093          	li	ra,13
800011e8:	00b00113          	li	sp,11
800011ec:	00208733          	add	a4,ra,sp
800011f0:	00070313          	mv	t1,a4
800011f4:	00120213          	addi	tp,tp,1 # 1 <tohost-0x7fffffff>
800011f8:	00200293          	li	t0,2
800011fc:	fe5214e3          	bne	tp,t0,800011e4 <test_20+0x8>
80001200:	01800393          	li	t2,24
80001204:	2c731e63          	bne	t1,t2,800014e0 <fail>

80001208 <test_21>:
80001208:	01500193          	li	gp,21
8000120c:	00000213          	li	tp,0
80001210:	00e00093          	li	ra,14
80001214:	00b00113          	li	sp,11
80001218:	00208733          	add	a4,ra,sp
8000121c:	00000013          	nop
80001220:	00070313          	mv	t1,a4
80001224:	00120213          	addi	tp,tp,1 # 1 <tohost-0x7fffffff>
80001228:	00200293          	li	t0,2
8000122c:	fe5212e3          	bne	tp,t0,80001210 <test_21+0x8>
80001230:	01900393          	li	t2,25
80001234:	2a731663          	bne	t1,t2,800014e0 <fail>

80001238 <test_22>:
80001238:	01600193          	li	gp,22
8000123c:	00000213          	li	tp,0
80001240:	00f00093          	li	ra,15
80001244:	00b00113          	li	sp,11
80001248:	00208733          	add	a4,ra,sp
8000124c:	00000013          	nop
80001250:	00000013          	nop
80001254:	00070313          	mv	t1,a4
80001258:	00120213          	addi	tp,tp,1 # 1 <tohost-0x7fffffff>
8000125c:	00200293          	li	t0,2
80001260:	fe5210e3          	bne	tp,t0,80001240 <test_22+0x8>
80001264:	01a00393          	li	t2,26
80001268:	26731c63          	bne	t1,t2,800014e0 <fail>

8000126c <test_23>:
8000126c:	01700193          	li	gp,23
80001270:	00000213          	li	tp,0
80001274:	00d00093          	li	ra,13
80001278:	00b00113          	li	sp,11
8000127c:	00208733          	add	a4,ra,sp
80001280:	00120213          	addi	tp,tp,1 # 1 <tohost-0x7fffffff>
80001284:	00200293          	li	t0,2
80001288:	fe5216e3          	bne	tp,t0,80001274 <test_23+0x8>
8000128c:	01800393          	li	t2,24
80001290:	24771863          	bne	a4,t2,800014e0 <fail>

80001294 <test_24>:
80001294:	01800193          	li	gp,24
80001298:	00000213          	li	tp,0
8000129c:	00e00093          	li	ra,14
800012a0:	00b00113          	li	sp,11
800012a4:	00000013          	nop
800012a8:	00208733          	add	a4,ra,sp
800012ac:	00120213          	addi	tp,tp,1 # 1 <tohost-0x7fffffff>
800012b0:	00200293          	li	t0,2
800012b4:	fe5214e3          	bne	tp,t0,8000129c <test_24+0x8>
800012b8:	01900393          	li	t2,25
800012bc:	22771263          	bne	a4,t2,800014e0 <fail>

800012c0 <test_25>:
800012c0:	01900193          	li	gp,25
800012c4:	00000213          	li	tp,0
800012c8:	00f00093          	li	ra,15
800012cc:	00b00113          	li	sp,11
800012d0:	00000013          	nop
800012d4:	00000013          	nop
800012d8:	00208733          	add	a4,ra,sp
800012dc:	00120213          	addi	tp,tp,1 # 1 <tohost-0x7fffffff>
800012e0:	00200293          	li	t0,2
800012e4:	fe5212e3          	bne	tp,t0,800012c8 <test_25+0x8>
800012e8:	01a00393          	li	t2,26
800012ec:	1e771a63          	bne	a4,t2,800014e0 <fail>

800012f0 <test_26>:
800012f0:	01a00193          	li	gp,26
800012f4:	00000213          	li	tp,0
800012f8:	00d00093          	li	ra,13
800012fc:	00000013          	nop
80001300:	00b00113          	li	sp,11
80001304:	00208733          	add	a4,ra,sp
80001308:	00120213          	addi	tp,tp,1 # 1 <tohost-0x7fffffff>
8000130c:	00200293          	li	t0,2
80001310:	fe5214e3          	bne	tp,t0,800012f8 <test_26+0x8>
80001314:	01800393          	li	t2,24
80001318:	1c771463          	bne	a4,t2,800014e0 <fail>

8000131c <test_27>:
8000131c:	01b00193          	li	gp,27
80001320:	00000213          	li	tp,0
80001324:	00e00093          	li	ra,14
80001328:	00000013          	nop
8000132c:	00b00113          	li	sp,11
80001330:	00000013          	nop
80001334:	00208733          	add	a4,ra,sp
80001338:	00120213          	addi	tp,tp,1 # 1 <tohost-0x7fffffff>
8000133c:	00200293          	li	t0,2
80001340:	fe5212e3          	bne	tp,t0,80001324 <test_27+0x8>
80001344:	01900393          	li	t2,25
80001348:	18771c63          	bne	a4,t2,800014e0 <fail>

8000134c <test_28>:
8000134c:	01c00193          	li	gp,28
80001350:	00000213          	li	tp,0
80001354:	00f00093          	li	ra,15
80001358:	00000013          	nop
8000135c:	00000013          	nop
80001360:	00b00113          	li	sp,11
80001364:	00208733          	add	a4,ra,sp
80001368:	00120213          	addi	tp,tp,1 # 1 <tohost-0x7fffffff>
8000136c:	00200293          	li	t0,2
80001370:	fe5212e3          	bne	tp,t0,80001354 <test_28+0x8>
80001374:	01a00393          	li	t2,26
80001378:	16771463          	bne	a4,t2,800014e0 <fail>

8000137c <test_29>:
8000137c:	01d00193          	li	gp,29
80001380:	00000213          	li	tp,0
80001384:	00b00113          	li	sp,11
80001388:	00d00093          	li	ra,13
8000138c:	00208733          	add	a4,ra,sp
80001390:	00120213          	addi	tp,tp,1 # 1 <tohost-0x7fffffff>
80001394:	00200293          	li	t0,2
80001398:	fe5216e3          	bne	tp,t0,80001384 <test_29+0x8>
8000139c:	01800393          	li	t2,24
800013a0:	14771063          	bne	a4,t2,800014e0 <fail>

800013a4 <test_30>:
800013a4:	01e00193          	li	gp,30
800013a8:	00000213          	li	tp,0
800013ac:	00b00113          	li	sp,11
800013b0:	00e00093          	li	ra,14
800013b4:	00000013          	nop
800013b8:	00208733          	add	a4,ra,sp
800013bc:	00120213          	addi	tp,tp,1 # 1 <tohost-0x7fffffff>
800013c0:	00200293          	li	t0,2
800013c4:	fe5214e3          	bne	tp,t0,800013ac <test_30+0x8>
800013c8:	01900393          	li	t2,25
800013cc:	10771a63          	bne	a4,t2,800014e0 <fail>

800013d0 <test_31>:
800013d0:	01f00193          	li	gp,31
800013d4:	00000213          	li	tp,0
800013d8:	00b00113          	li	sp,11
800013dc:	00f00093          	li	ra,15
800013e0:	00000013          	nop
800013e4:	00000013          	nop
800013e8:	00208733          	add	a4,ra,sp
800013ec:	00120213          	addi	tp,tp,1 # 1 <tohost-0x7fffffff>
800013f0:	00200293          	li	t0,2
800013f4:	fe5212e3          	bne	tp,t0,800013d8 <test_31+0x8>
800013f8:	01a00393          	li	t2,26
800013fc:	0e771263          	bne	a4,t2,800014e0 <fail>

80001400 <test_32>:
80001400:	02000193          	li	gp,32
80001404:	00000213          	li	tp,0
80001408:	00b00113          	li	sp,11
8000140c:	00000013          	nop
80001410:	00d00093          	li	ra,13
80001414:	00208733          	add	a4,ra,sp
80001418:	00120213          	addi	tp,tp,1 # 1 <tohost-0x7fffffff>
8000141c:	00200293          	li	t0,2
80001420:	fe5214e3          	bne	tp,t0,80001408 <test_32+0x8>
80001424:	01800393          	li	t2,24
80001428:	0a771c63          	bne	a4,t2,800014e0 <fail>

8000142c <test_33>:
8000142c:	02100193          	li	gp,33
80001430:	00000213          	li	tp,0
80001434:	00b00113          	li	sp,11
80001438:	00000013          	nop
8000143c:	00e00093          	li	ra,14
80001440:	00000013          	nop
80001444:	00208733          	add	a4,ra,sp
80001448:	00120213          	addi	tp,tp,1 # 1 <tohost-0x7fffffff>
8000144c:	00200293          	li	t0,2
80001450:	fe5212e3          	bne	tp,t0,80001434 <test_33+0x8>
80001454:	01900393          	li	t2,25
80001458:	08771463          	bne	a4,t2,800014e0 <fail>

8000145c <test_34>:
8000145c:	02200193          	li	gp,34
80001460:	00000213          	li	tp,0
80001464:	00b00113          	li	sp,11
80001468:	00000013          	nop
8000146c:	00000013          	nop
80001470:	00f00093          	li	ra,15
80001474:	00208733          	add	a4,ra,sp
80001478:	00120213          	addi	tp,tp,1 # 1 <tohost-0x7fffffff>
8000147c:	00200293          	li	t0,2
80001480:	fe5212e3          	bne	tp,t0,80001464 <test_34+0x8>
80001484:	01a00393          	li	t2,26
80001488:	04771c63          	bne	a4,t2,800014e0 <fail>

8000148c <test_35>:
8000148c:	02300193          	li	gp,35
80001490:	00f00093          	li	ra,15
80001494:	00100133          	add	sp,zero,ra
80001498:	00f00393          	li	t2,15
8000149c:	04711263          	bne	sp,t2,800014e0 <fail>

800014a0 <test_36>:
800014a0:	02400193          	li	gp,36
800014a4:	02000093          	li	ra,32
800014a8:	00008133          	add	sp,ra,zero
800014ac:	02000393          	li	t2,32
800014b0:	02711863          	bne	sp,t2,800014e0 <fail>

800014b4 <test_37>:
800014b4:	02500193          	li	gp,37
800014b8:	000000b3          	add	ra,zero,zero
800014bc:	00000393          	li	t2,0
800014c0:	02709063          	bne	ra,t2,800014e0 <fail>

800014c4 <test_38>:
800014c4:	02600193          	li	gp,38
800014c8:	01000093          	li	ra,16
800014cc:	01e00113          	li	sp,30
800014d0:	00208033          	add	zero,ra,sp
800014d4:	00000393          	li	t2,0
800014d8:	00701463          	bne	zero,t2,800014e0 <fail>
800014dc:	02301a63          	bne	zero,gp,80001510 <pass>

800014e0 <fail>:
800014e0:	0ff0000f          	fence
800014e4:	00001597          	auipc	a1,0x1
800014e8:	b1c58593          	addi	a1,a1,-1252 # 80002000 <hello>
800014ec:	00f00613          	li	a2,15
800014f0:	04000893          	li	a7,64
800014f4:	00000073          	ecall
800014f8:	00018063          	beqz	gp,800014f8 <fail+0x18>
800014fc:	00119193          	slli	gp,gp,0x1
80001500:	0011e193          	ori	gp,gp,1
80001504:	05d00893          	li	a7,93
80001508:	00018513          	mv	a0,gp
8000150c:	00000073          	ecall

80001510 <pass>:
80001510:	0ff0000f          	fence
80001514:	00100513          	li	a0,1
80001518:	00001597          	auipc	a1,0x1
8000151c:	ae858593          	addi	a1,a1,-1304 # 80002000 <hello>
80001520:	00f00613          	li	a2,15
80001524:	04000893          	li	a7,64
80001528:	00000073          	ecall
8000152c:	00100193          	li	gp,1
80001530:	05d00893          	li	a7,93
80001534:	00000513          	li	a0,0
80001538:	00000073          	ecall
8000153c:	c0001073          	unimp

Disassembly of section .data:

80002000 <hello>:
80002000:	6948                	.2byte	0x6948
80002002:	2074                	.2byte	0x2074
80002004:	646f6f67          	.4byte	0x646f6f67
80002008:	7420                	.2byte	0x7420
8000200a:	6172                	.2byte	0x6172
8000200c:	2170                	.2byte	0x2170
8000200e:	000a                	.2byte	0xa

80002010 <goodbye>:
80002010:	6948                	.2byte	0x6948
80002012:	2074                	.2byte	0x2074
80002014:	6162                	.2byte	0x6162
80002016:	6464                	.2byte	0x6464
80002018:	7420                	.2byte	0x7420
8000201a:	6172                	.2byte	0x6172
8000201c:	2170                	.2byte	0x2170
8000201e:	000a                	.2byte	0xa
