
rv32ud-p-fcvt:     file format elf32-littleriscv


Disassembly of section .text:

80001000 <test_2>:
80001000:	00200193          	li	gp,2
80001004:	00001517          	auipc	a0,0x1
80001008:	ffc50513          	addi	a0,a0,-4 # 80002000 <test_2_data>
8000100c:	00052683          	lw	a3,0(a0)
80001010:	00452703          	lw	a4,4(a0)
80001014:	00200593          	li	a1,2
80001018:	d2058053          	fcvt.d.w	ft0,a1
8000101c:	00053027          	fsd	ft0,0(a0)
80001020:	00452583          	lw	a1,4(a0)
80001024:	00052503          	lw	a0,0(a0)
80001028:	00101073          	fsflags	zero
8000102c:	16d51263          	bne	a0,a3,80001190 <fail>
80001030:	16e59063          	bne	a1,a4,80001190 <fail>

80001034 <test_3>:
80001034:	00300193          	li	gp,3
80001038:	00001517          	auipc	a0,0x1
8000103c:	fd050513          	addi	a0,a0,-48 # 80002008 <test_3_data>
80001040:	00052683          	lw	a3,0(a0)
80001044:	00452703          	lw	a4,4(a0)
80001048:	ffe00593          	li	a1,-2
8000104c:	d2058053          	fcvt.d.w	ft0,a1
80001050:	00053027          	fsd	ft0,0(a0)
80001054:	00452583          	lw	a1,4(a0)
80001058:	00052503          	lw	a0,0(a0)
8000105c:	00101073          	fsflags	zero
80001060:	12d51863          	bne	a0,a3,80001190 <fail>
80001064:	12e59663          	bne	a1,a4,80001190 <fail>

80001068 <test_4>:
80001068:	00400193          	li	gp,4
8000106c:	00001517          	auipc	a0,0x1
80001070:	fa450513          	addi	a0,a0,-92 # 80002010 <test_4_data>
80001074:	00052683          	lw	a3,0(a0)
80001078:	00452703          	lw	a4,4(a0)
8000107c:	00200593          	li	a1,2
80001080:	d2158053          	fcvt.d.wu	ft0,a1
80001084:	00053027          	fsd	ft0,0(a0)
80001088:	00452583          	lw	a1,4(a0)
8000108c:	00052503          	lw	a0,0(a0)
80001090:	00101073          	fsflags	zero
80001094:	0ed51e63          	bne	a0,a3,80001190 <fail>
80001098:	0ee59c63          	bne	a1,a4,80001190 <fail>

8000109c <test_5>:
8000109c:	00500193          	li	gp,5
800010a0:	00001517          	auipc	a0,0x1
800010a4:	f7850513          	addi	a0,a0,-136 # 80002018 <test_5_data>
800010a8:	00052683          	lw	a3,0(a0)
800010ac:	00452703          	lw	a4,4(a0)
800010b0:	ffe00593          	li	a1,-2
800010b4:	d2158053          	fcvt.d.wu	ft0,a1
800010b8:	00053027          	fsd	ft0,0(a0)
800010bc:	00452583          	lw	a1,4(a0)
800010c0:	00052503          	lw	a0,0(a0)
800010c4:	00101073          	fsflags	zero
800010c8:	0cd51463          	bne	a0,a3,80001190 <fail>
800010cc:	0ce59263          	bne	a1,a4,80001190 <fail>

800010d0 <test_10>:
800010d0:	00a00193          	li	gp,10
800010d4:	00001517          	auipc	a0,0x1
800010d8:	f4c50513          	addi	a0,a0,-180 # 80002020 <test_10_data>
800010dc:	00053007          	fld	ft0,0(a0)
800010e0:	00853087          	fld	ft1,8(a0)
800010e4:	01053107          	fld	ft2,16(a0)
800010e8:	01852683          	lw	a3,24(a0)
800010ec:	01c52303          	lw	t1,28(a0)
800010f0:	401071d3          	fcvt.s.d	ft3,ft0
800010f4:	420181d3          	fcvt.d.s	ft3,ft3
800010f8:	00353027          	fsd	ft3,0(a0)
800010fc:	00452383          	lw	t2,4(a0)
80001100:	00052503          	lw	a0,0(a0)
80001104:	001015f3          	fsflags	a1,zero
80001108:	00000613          	li	a2,0
8000110c:	08d51263          	bne	a0,a3,80001190 <fail>
80001110:	08731063          	bne	t1,t2,80001190 <fail>
80001114:	06c59e63          	bne	a1,a2,80001190 <fail>

80001118 <test_11>:
80001118:	00b00193          	li	gp,11
8000111c:	00001517          	auipc	a0,0x1
80001120:	f2450513          	addi	a0,a0,-220 # 80002040 <test_11_data>
80001124:	00052007          	flw	ft0,0(a0)
80001128:	00452087          	flw	ft1,4(a0)
8000112c:	00852107          	flw	ft2,8(a0)
80001130:	00c52683          	lw	a3,12(a0)
80001134:	420001d3          	fcvt.d.s	ft3,ft0
80001138:	4011f1d3          	fcvt.s.d	ft3,ft3
8000113c:	e0018553          	fmv.x.w	a0,ft3
80001140:	001015f3          	fsflags	a1,zero
80001144:	00000613          	li	a2,0
80001148:	04d51463          	bne	a0,a3,80001190 <fail>
8000114c:	04c59263          	bne	a1,a2,80001190 <fail>

80001150 <test_12>:
80001150:	00001597          	auipc	a1,0x1
80001154:	f3058593          	addi	a1,a1,-208 # 80002080 <begin_signature>
80001158:	0005b107          	fld	ft2,0(a1)
8000115c:	40117153          	fcvt.s.d	ft2,ft2
80001160:	42010153          	fcvt.d.s	ft2,ft2
80001164:	0025b027          	fsd	ft2,0(a1)
80001168:	0005a503          	lw	a0,0(a1)
8000116c:	0045a583          	lw	a1,4(a1)
80001170:	00001797          	auipc	a5,0x1
80001174:	ee078793          	addi	a5,a5,-288 # 80002050 <test_12_data>
80001178:	0007a383          	lw	t2,0(a5)
8000117c:	0047a783          	lw	a5,4(a5)
80001180:	00c00193          	li	gp,12
80001184:	00751663          	bne	a0,t2,80001190 <fail>
80001188:	00f59463          	bne	a1,a5,80001190 <fail>
8000118c:	02301a63          	bne	zero,gp,800011c0 <pass>

80001190 <fail>:
80001190:	0ff0000f          	fence
80001194:	00001597          	auipc	a1,0x1
80001198:	ec458593          	addi	a1,a1,-316 # 80002058 <hello>
8000119c:	00f00613          	li	a2,15
800011a0:	04000893          	li	a7,64
800011a4:	00000073          	ecall
800011a8:	00018063          	beqz	gp,800011a8 <fail+0x18>
800011ac:	00119193          	slli	gp,gp,0x1
800011b0:	0011e193          	ori	gp,gp,1
800011b4:	05d00893          	li	a7,93
800011b8:	00018513          	mv	a0,gp
800011bc:	00000073          	ecall

800011c0 <pass>:
800011c0:	0ff0000f          	fence
800011c4:	00100513          	li	a0,1
800011c8:	00001597          	auipc	a1,0x1
800011cc:	e9058593          	addi	a1,a1,-368 # 80002058 <hello>
800011d0:	00f00613          	li	a2,15
800011d4:	04000893          	li	a7,64
800011d8:	00000073          	ecall
800011dc:	00100193          	li	gp,1
800011e0:	05d00893          	li	a7,93
800011e4:	00000513          	li	a0,0
800011e8:	00000073          	ecall
800011ec:	c0001073          	unimp

Disassembly of section .data:

80002000 <test_2_data>:
80002000:	0000                	.2byte	0x0
80002002:	0000                	.2byte	0x0
80002004:	0000                	.2byte	0x0
80002006:	4000                	.2byte	0x4000

80002008 <test_3_data>:
80002008:	0000                	.2byte	0x0
8000200a:	0000                	.2byte	0x0
8000200c:	0000                	.2byte	0x0
8000200e:	c000                	.2byte	0xc000

80002010 <test_4_data>:
80002010:	0000                	.2byte	0x0
80002012:	0000                	.2byte	0x0
80002014:	0000                	.2byte	0x0
80002016:	4000                	.2byte	0x4000

80002018 <test_5_data>:
80002018:	0000                	.2byte	0x0
8000201a:	ffc0                	.2byte	0xffc0
8000201c:	ffff                	.2byte	0xffff
8000201e:	          	jal	gp,8000601e <_end+0x3f8e>

80002020 <test_10_data>:
80002020:	0000                	.2byte	0x0
80002022:	0000                	.2byte	0x0
80002024:	0000                	.2byte	0x0
80002026:	bff8                	.2byte	0xbff8
80002028:	0000                	.2byte	0x0
8000202a:	0000                	.2byte	0x0
8000202c:	0000                	.2byte	0x0
8000202e:	0000                	.2byte	0x0
80002030:	0000                	.2byte	0x0
80002032:	0000                	.2byte	0x0
80002034:	0000                	.2byte	0x0
80002036:	0000                	.2byte	0x0
80002038:	0000                	.2byte	0x0
8000203a:	0000                	.2byte	0x0
8000203c:	0000                	.2byte	0x0
8000203e:	bff8                	.2byte	0xbff8

80002040 <test_11_data>:
80002040:	0000                	.2byte	0x0
80002042:	bfc0                	.2byte	0xbfc0
80002044:	0000                	.2byte	0x0
80002046:	0000                	.2byte	0x0
80002048:	0000                	.2byte	0x0
8000204a:	0000                	.2byte	0x0
8000204c:	0000                	.2byte	0x0
8000204e:	bfc0                	.2byte	0xbfc0

80002050 <test_12_data>:
80002050:	0000                	.2byte	0x0
80002052:	0000                	.2byte	0x0
80002054:	0000                	.2byte	0x0
80002056:	7ff8                	.2byte	0x7ff8

80002058 <hello>:
80002058:	6948                	.2byte	0x6948
8000205a:	2074                	.2byte	0x2074
8000205c:	646f6f67          	.4byte	0x646f6f67
80002060:	7420                	.2byte	0x7420
80002062:	6172                	.2byte	0x6172
80002064:	2170                	.2byte	0x2170
80002066:	000a                	.2byte	0xa

80002068 <goodbye>:
80002068:	6948                	.2byte	0x6948
8000206a:	2074                	.2byte	0x2074
8000206c:	6162                	.2byte	0x6162
8000206e:	6464                	.2byte	0x6464
80002070:	7420                	.2byte	0x7420
80002072:	6172                	.2byte	0x6172
80002074:	2170                	.2byte	0x2170
80002076:	000a                	.2byte	0xa
80002078:	0000                	.2byte	0x0
8000207a:	0000                	.2byte	0x0
8000207c:	0000                	.2byte	0x0
8000207e:	0000                	.2byte	0x0

80002080 <begin_signature>:
80002080:	8004                	.2byte	0x8004
80002082:	ffff                	.2byte	0xffff
80002084:	ffff                	.2byte	0xffff
80002086:	7ffc                	.2byte	0x7ffc
80002088:	0000                	.2byte	0x0
8000208a:	0000                	.2byte	0x0
8000208c:	0000                	.2byte	0x0
8000208e:	0000                	.2byte	0x0
