
rv64ui-p-sraw:     file format elf64-littleriscv


Disassembly of section .text:

0000000080001000 <test_2>:
    80001000:	00200193          	li	gp,2
    80001004:	800000b7          	lui	ra,0x80000
    80001008:	00000113          	li	sp,0
    8000100c:	4020d73b          	sraw	a4,ra,sp
    80001010:	800003b7          	lui	t2,0x80000
    80001014:	62771463          	bne	a4,t2,8000163c <fail>

0000000080001018 <test_3>:
    80001018:	00300193          	li	gp,3
    8000101c:	800000b7          	lui	ra,0x80000
    80001020:	00100113          	li	sp,1
    80001024:	4020d73b          	sraw	a4,ra,sp
    80001028:	c00003b7          	lui	t2,0xc0000
    8000102c:	60771863          	bne	a4,t2,8000163c <fail>

0000000080001030 <test_4>:
    80001030:	00400193          	li	gp,4
    80001034:	800000b7          	lui	ra,0x80000
    80001038:	00700113          	li	sp,7
    8000103c:	4020d73b          	sraw	a4,ra,sp
    80001040:	ff0003b7          	lui	t2,0xff000
    80001044:	5e771c63          	bne	a4,t2,8000163c <fail>

0000000080001048 <test_5>:
    80001048:	00500193          	li	gp,5
    8000104c:	800000b7          	lui	ra,0x80000
    80001050:	00e00113          	li	sp,14
    80001054:	4020d73b          	sraw	a4,ra,sp
    80001058:	fffe03b7          	lui	t2,0xfffe0
    8000105c:	5e771063          	bne	a4,t2,8000163c <fail>

0000000080001060 <test_6>:
    80001060:	00600193          	li	gp,6
    80001064:	800000b7          	lui	ra,0x80000
    80001068:	0010809b          	addiw	ra,ra,1 # ffffffff80000001 <_end+0xfffffffeffffdfe1>
    8000106c:	01f00113          	li	sp,31
    80001070:	4020d73b          	sraw	a4,ra,sp
    80001074:	fff00393          	li	t2,-1
    80001078:	5c771263          	bne	a4,t2,8000163c <fail>

000000008000107c <test_7>:
    8000107c:	00700193          	li	gp,7
    80001080:	800000b7          	lui	ra,0x80000
    80001084:	fff0809b          	addiw	ra,ra,-1 # 7fffffff <tohost-0x1>
    80001088:	00000113          	li	sp,0
    8000108c:	4020d73b          	sraw	a4,ra,sp
    80001090:	800003b7          	lui	t2,0x80000
    80001094:	fff3839b          	addiw	t2,t2,-1 # 7fffffff <tohost-0x1>
    80001098:	5a771263          	bne	a4,t2,8000163c <fail>

000000008000109c <test_8>:
    8000109c:	00800193          	li	gp,8
    800010a0:	800000b7          	lui	ra,0x80000
    800010a4:	fff0809b          	addiw	ra,ra,-1 # 7fffffff <tohost-0x1>
    800010a8:	00100113          	li	sp,1
    800010ac:	4020d73b          	sraw	a4,ra,sp
    800010b0:	400003b7          	lui	t2,0x40000
    800010b4:	fff3839b          	addiw	t2,t2,-1 # 3fffffff <tohost-0x40000001>
    800010b8:	58771263          	bne	a4,t2,8000163c <fail>

00000000800010bc <test_9>:
    800010bc:	00900193          	li	gp,9
    800010c0:	800000b7          	lui	ra,0x80000
    800010c4:	fff0809b          	addiw	ra,ra,-1 # 7fffffff <tohost-0x1>
    800010c8:	00700113          	li	sp,7
    800010cc:	4020d73b          	sraw	a4,ra,sp
    800010d0:	010003b7          	lui	t2,0x1000
    800010d4:	fff3839b          	addiw	t2,t2,-1 # ffffff <tohost-0x7f000001>
    800010d8:	56771263          	bne	a4,t2,8000163c <fail>

00000000800010dc <test_10>:
    800010dc:	00a00193          	li	gp,10
    800010e0:	800000b7          	lui	ra,0x80000
    800010e4:	fff0809b          	addiw	ra,ra,-1 # 7fffffff <tohost-0x1>
    800010e8:	00e00113          	li	sp,14
    800010ec:	4020d73b          	sraw	a4,ra,sp
    800010f0:	000203b7          	lui	t2,0x20
    800010f4:	fff3839b          	addiw	t2,t2,-1 # 1ffff <tohost-0x7ffe0001>
    800010f8:	54771263          	bne	a4,t2,8000163c <fail>

00000000800010fc <test_11>:
    800010fc:	00b00193          	li	gp,11
    80001100:	800000b7          	lui	ra,0x80000
    80001104:	fff0809b          	addiw	ra,ra,-1 # 7fffffff <tohost-0x1>
    80001108:	01f00113          	li	sp,31
    8000110c:	4020d73b          	sraw	a4,ra,sp
    80001110:	00000393          	li	t2,0
    80001114:	52771463          	bne	a4,t2,8000163c <fail>

0000000080001118 <test_12>:
    80001118:	00c00193          	li	gp,12
    8000111c:	818180b7          	lui	ra,0x81818
    80001120:	1810809b          	addiw	ra,ra,385 # ffffffff81818181 <_end+0xffffffff01816161>
    80001124:	00000113          	li	sp,0
    80001128:	4020d73b          	sraw	a4,ra,sp
    8000112c:	818183b7          	lui	t2,0x81818
    80001130:	1813839b          	addiw	t2,t2,385 # ffffffff81818181 <_end+0xffffffff01816161>
    80001134:	50771463          	bne	a4,t2,8000163c <fail>

0000000080001138 <test_13>:
    80001138:	00d00193          	li	gp,13
    8000113c:	818180b7          	lui	ra,0x81818
    80001140:	1810809b          	addiw	ra,ra,385 # ffffffff81818181 <_end+0xffffffff01816161>
    80001144:	00100113          	li	sp,1
    80001148:	4020d73b          	sraw	a4,ra,sp
    8000114c:	c0c0c3b7          	lui	t2,0xc0c0c
    80001150:	0c03839b          	addiw	t2,t2,192 # ffffffffc0c0c0c0 <_end+0xffffffff40c0a0a0>
    80001154:	4e771463          	bne	a4,t2,8000163c <fail>

0000000080001158 <test_14>:
    80001158:	00e00193          	li	gp,14
    8000115c:	818180b7          	lui	ra,0x81818
    80001160:	1810809b          	addiw	ra,ra,385 # ffffffff81818181 <_end+0xffffffff01816161>
    80001164:	00700113          	li	sp,7
    80001168:	4020d73b          	sraw	a4,ra,sp
    8000116c:	ff0303b7          	lui	t2,0xff030
    80001170:	3033839b          	addiw	t2,t2,771 # ffffffffff030303 <_end+0xffffffff7f02e2e3>
    80001174:	4c771463          	bne	a4,t2,8000163c <fail>

0000000080001178 <test_15>:
    80001178:	00f00193          	li	gp,15
    8000117c:	818180b7          	lui	ra,0x81818
    80001180:	1810809b          	addiw	ra,ra,385 # ffffffff81818181 <_end+0xffffffff01816161>
    80001184:	00e00113          	li	sp,14
    80001188:	4020d73b          	sraw	a4,ra,sp
    8000118c:	fffe03b7          	lui	t2,0xfffe0
    80001190:	6063839b          	addiw	t2,t2,1542 # fffffffffffe0606 <_end+0xffffffff7ffde5e6>
    80001194:	4a771463          	bne	a4,t2,8000163c <fail>

0000000080001198 <test_16>:
    80001198:	01000193          	li	gp,16
    8000119c:	818180b7          	lui	ra,0x81818
    800011a0:	1810809b          	addiw	ra,ra,385 # ffffffff81818181 <_end+0xffffffff01816161>
    800011a4:	01f00113          	li	sp,31
    800011a8:	4020d73b          	sraw	a4,ra,sp
    800011ac:	fff00393          	li	t2,-1
    800011b0:	48771663          	bne	a4,t2,8000163c <fail>

00000000800011b4 <test_17>:
    800011b4:	01100193          	li	gp,17
    800011b8:	818180b7          	lui	ra,0x81818
    800011bc:	1810809b          	addiw	ra,ra,385 # ffffffff81818181 <_end+0xffffffff01816161>
    800011c0:	fe000113          	li	sp,-32
    800011c4:	4020d73b          	sraw	a4,ra,sp
    800011c8:	818183b7          	lui	t2,0x81818
    800011cc:	1813839b          	addiw	t2,t2,385 # ffffffff81818181 <_end+0xffffffff01816161>
    800011d0:	46771663          	bne	a4,t2,8000163c <fail>

00000000800011d4 <test_18>:
    800011d4:	01200193          	li	gp,18
    800011d8:	818180b7          	lui	ra,0x81818
    800011dc:	1810809b          	addiw	ra,ra,385 # ffffffff81818181 <_end+0xffffffff01816161>
    800011e0:	fe100113          	li	sp,-31
    800011e4:	4020d73b          	sraw	a4,ra,sp
    800011e8:	c0c0c3b7          	lui	t2,0xc0c0c
    800011ec:	0c03839b          	addiw	t2,t2,192 # ffffffffc0c0c0c0 <_end+0xffffffff40c0a0a0>
    800011f0:	44771663          	bne	a4,t2,8000163c <fail>

00000000800011f4 <test_19>:
    800011f4:	01300193          	li	gp,19
    800011f8:	818180b7          	lui	ra,0x81818
    800011fc:	1810809b          	addiw	ra,ra,385 # ffffffff81818181 <_end+0xffffffff01816161>
    80001200:	fe700113          	li	sp,-25
    80001204:	4020d73b          	sraw	a4,ra,sp
    80001208:	ff0303b7          	lui	t2,0xff030
    8000120c:	3033839b          	addiw	t2,t2,771 # ffffffffff030303 <_end+0xffffffff7f02e2e3>
    80001210:	42771663          	bne	a4,t2,8000163c <fail>

0000000080001214 <test_20>:
    80001214:	01400193          	li	gp,20
    80001218:	818180b7          	lui	ra,0x81818
    8000121c:	1810809b          	addiw	ra,ra,385 # ffffffff81818181 <_end+0xffffffff01816161>
    80001220:	fee00113          	li	sp,-18
    80001224:	4020d73b          	sraw	a4,ra,sp
    80001228:	fffe03b7          	lui	t2,0xfffe0
    8000122c:	6063839b          	addiw	t2,t2,1542 # fffffffffffe0606 <_end+0xffffffff7ffde5e6>
    80001230:	40771663          	bne	a4,t2,8000163c <fail>

0000000080001234 <test_21>:
    80001234:	01500193          	li	gp,21
    80001238:	818180b7          	lui	ra,0x81818
    8000123c:	1810809b          	addiw	ra,ra,385 # ffffffff81818181 <_end+0xffffffff01816161>
    80001240:	fff00113          	li	sp,-1
    80001244:	4020d73b          	sraw	a4,ra,sp
    80001248:	fff00393          	li	t2,-1
    8000124c:	3e771863          	bne	a4,t2,8000163c <fail>

0000000080001250 <test_44>:
    80001250:	02c00193          	li	gp,44
    80001254:	fff120b7          	lui	ra,0xfff12
    80001258:	3450809b          	addiw	ra,ra,837 # fffffffffff12345 <_end+0xffffffff7ff10325>
    8000125c:	00c09093          	slli	ra,ra,0xc
    80001260:	67808093          	addi	ra,ra,1656
    80001264:	00000113          	li	sp,0
    80001268:	4020d73b          	sraw	a4,ra,sp
    8000126c:	123453b7          	lui	t2,0x12345
    80001270:	6783839b          	addiw	t2,t2,1656 # 12345678 <tohost-0x6dcba988>
    80001274:	3c771463          	bne	a4,t2,8000163c <fail>

0000000080001278 <test_45>:
    80001278:	02d00193          	li	gp,45
    8000127c:	fff120b7          	lui	ra,0xfff12
    80001280:	3450809b          	addiw	ra,ra,837 # fffffffffff12345 <_end+0xffffffff7ff10325>
    80001284:	00c09093          	slli	ra,ra,0xc
    80001288:	67808093          	addi	ra,ra,1656
    8000128c:	00400113          	li	sp,4
    80001290:	4020d73b          	sraw	a4,ra,sp
    80001294:	012343b7          	lui	t2,0x1234
    80001298:	5673839b          	addiw	t2,t2,1383 # 1234567 <tohost-0x7edcba99>
    8000129c:	3a771063          	bne	a4,t2,8000163c <fail>

00000000800012a0 <test_46>:
    800012a0:	02e00193          	li	gp,46
    800012a4:	000920b7          	lui	ra,0x92
    800012a8:	3450809b          	addiw	ra,ra,837 # 92345 <tohost-0x7ff6dcbb>
    800012ac:	00c09093          	slli	ra,ra,0xc
    800012b0:	67808093          	addi	ra,ra,1656
    800012b4:	00000113          	li	sp,0
    800012b8:	4020d73b          	sraw	a4,ra,sp
    800012bc:	923453b7          	lui	t2,0x92345
    800012c0:	6783839b          	addiw	t2,t2,1656 # ffffffff92345678 <_end+0xffffffff12343658>
    800012c4:	36771c63          	bne	a4,t2,8000163c <fail>

00000000800012c8 <test_47>:
    800012c8:	02f00193          	li	gp,47
    800012cc:	000920b7          	lui	ra,0x92
    800012d0:	3450809b          	addiw	ra,ra,837 # 92345 <tohost-0x7ff6dcbb>
    800012d4:	00c09093          	slli	ra,ra,0xc
    800012d8:	67808093          	addi	ra,ra,1656
    800012dc:	00400113          	li	sp,4
    800012e0:	4020d73b          	sraw	a4,ra,sp
    800012e4:	f92343b7          	lui	t2,0xf9234
    800012e8:	5673839b          	addiw	t2,t2,1383 # fffffffff9234567 <_end+0xffffffff79232547>
    800012ec:	34771863          	bne	a4,t2,8000163c <fail>

00000000800012f0 <test_22>:
    800012f0:	01600193          	li	gp,22
    800012f4:	800000b7          	lui	ra,0x80000
    800012f8:	00700113          	li	sp,7
    800012fc:	4020d0bb          	sraw	ra,ra,sp
    80001300:	ff0003b7          	lui	t2,0xff000
    80001304:	32709c63          	bne	ra,t2,8000163c <fail>

0000000080001308 <test_23>:
    80001308:	01700193          	li	gp,23
    8000130c:	800000b7          	lui	ra,0x80000
    80001310:	00e00113          	li	sp,14
    80001314:	4020d13b          	sraw	sp,ra,sp
    80001318:	fffe03b7          	lui	t2,0xfffe0
    8000131c:	32711063          	bne	sp,t2,8000163c <fail>

0000000080001320 <test_24>:
    80001320:	01800193          	li	gp,24
    80001324:	00700093          	li	ra,7
    80001328:	4010d0bb          	sraw	ra,ra,ra
    8000132c:	00000393          	li	t2,0
    80001330:	30709663          	bne	ra,t2,8000163c <fail>

0000000080001334 <test_25>:
    80001334:	01900193          	li	gp,25
    80001338:	00000213          	li	tp,0
    8000133c:	800000b7          	lui	ra,0x80000
    80001340:	00700113          	li	sp,7
    80001344:	4020d73b          	sraw	a4,ra,sp
    80001348:	00070313          	mv	t1,a4
    8000134c:	00120213          	addi	tp,tp,1 # 1 <tohost-0x7fffffff>
    80001350:	00200293          	li	t0,2
    80001354:	fe5214e3          	bne	tp,t0,8000133c <test_25+0x8>
    80001358:	ff0003b7          	lui	t2,0xff000
    8000135c:	2e731063          	bne	t1,t2,8000163c <fail>

0000000080001360 <test_26>:
    80001360:	01a00193          	li	gp,26
    80001364:	00000213          	li	tp,0
    80001368:	800000b7          	lui	ra,0x80000
    8000136c:	00e00113          	li	sp,14
    80001370:	4020d73b          	sraw	a4,ra,sp
    80001374:	00000013          	nop
    80001378:	00070313          	mv	t1,a4
    8000137c:	00120213          	addi	tp,tp,1 # 1 <tohost-0x7fffffff>
    80001380:	00200293          	li	t0,2
    80001384:	fe5212e3          	bne	tp,t0,80001368 <test_26+0x8>
    80001388:	fffe03b7          	lui	t2,0xfffe0
    8000138c:	2a731863          	bne	t1,t2,8000163c <fail>

0000000080001390 <test_27>:
    80001390:	01b00193          	li	gp,27
    80001394:	00000213          	li	tp,0
    80001398:	800000b7          	lui	ra,0x80000
    8000139c:	01f00113          	li	sp,31
    800013a0:	4020d73b          	sraw	a4,ra,sp
    800013a4:	00000013          	nop
    800013a8:	00000013          	nop
    800013ac:	00070313          	mv	t1,a4
    800013b0:	00120213          	addi	tp,tp,1 # 1 <tohost-0x7fffffff>
    800013b4:	00200293          	li	t0,2
    800013b8:	fe5210e3          	bne	tp,t0,80001398 <test_27+0x8>
    800013bc:	fff00393          	li	t2,-1
    800013c0:	26731e63          	bne	t1,t2,8000163c <fail>

00000000800013c4 <test_28>:
    800013c4:	01c00193          	li	gp,28
    800013c8:	00000213          	li	tp,0
    800013cc:	800000b7          	lui	ra,0x80000
    800013d0:	00700113          	li	sp,7
    800013d4:	4020d73b          	sraw	a4,ra,sp
    800013d8:	00120213          	addi	tp,tp,1 # 1 <tohost-0x7fffffff>
    800013dc:	00200293          	li	t0,2
    800013e0:	fe5216e3          	bne	tp,t0,800013cc <test_28+0x8>
    800013e4:	ff0003b7          	lui	t2,0xff000
    800013e8:	24771a63          	bne	a4,t2,8000163c <fail>

00000000800013ec <test_29>:
    800013ec:	01d00193          	li	gp,29
    800013f0:	00000213          	li	tp,0
    800013f4:	800000b7          	lui	ra,0x80000
    800013f8:	00e00113          	li	sp,14
    800013fc:	00000013          	nop
    80001400:	4020d73b          	sraw	a4,ra,sp
    80001404:	00120213          	addi	tp,tp,1 # 1 <tohost-0x7fffffff>
    80001408:	00200293          	li	t0,2
    8000140c:	fe5214e3          	bne	tp,t0,800013f4 <test_29+0x8>
    80001410:	fffe03b7          	lui	t2,0xfffe0
    80001414:	22771463          	bne	a4,t2,8000163c <fail>

0000000080001418 <test_30>:
    80001418:	01e00193          	li	gp,30
    8000141c:	00000213          	li	tp,0
    80001420:	800000b7          	lui	ra,0x80000
    80001424:	01f00113          	li	sp,31
    80001428:	00000013          	nop
    8000142c:	00000013          	nop
    80001430:	4020d73b          	sraw	a4,ra,sp
    80001434:	00120213          	addi	tp,tp,1 # 1 <tohost-0x7fffffff>
    80001438:	00200293          	li	t0,2
    8000143c:	fe5212e3          	bne	tp,t0,80001420 <test_30+0x8>
    80001440:	fff00393          	li	t2,-1
    80001444:	1e771c63          	bne	a4,t2,8000163c <fail>

0000000080001448 <test_31>:
    80001448:	01f00193          	li	gp,31
    8000144c:	00000213          	li	tp,0
    80001450:	800000b7          	lui	ra,0x80000
    80001454:	00000013          	nop
    80001458:	00700113          	li	sp,7
    8000145c:	4020d73b          	sraw	a4,ra,sp
    80001460:	00120213          	addi	tp,tp,1 # 1 <tohost-0x7fffffff>
    80001464:	00200293          	li	t0,2
    80001468:	fe5214e3          	bne	tp,t0,80001450 <test_31+0x8>
    8000146c:	ff0003b7          	lui	t2,0xff000
    80001470:	1c771663          	bne	a4,t2,8000163c <fail>

0000000080001474 <test_32>:
    80001474:	02000193          	li	gp,32
    80001478:	00000213          	li	tp,0
    8000147c:	800000b7          	lui	ra,0x80000
    80001480:	00000013          	nop
    80001484:	00e00113          	li	sp,14
    80001488:	00000013          	nop
    8000148c:	4020d73b          	sraw	a4,ra,sp
    80001490:	00120213          	addi	tp,tp,1 # 1 <tohost-0x7fffffff>
    80001494:	00200293          	li	t0,2
    80001498:	fe5212e3          	bne	tp,t0,8000147c <test_32+0x8>
    8000149c:	fffe03b7          	lui	t2,0xfffe0
    800014a0:	18771e63          	bne	a4,t2,8000163c <fail>

00000000800014a4 <test_33>:
    800014a4:	02100193          	li	gp,33
    800014a8:	00000213          	li	tp,0
    800014ac:	800000b7          	lui	ra,0x80000
    800014b0:	00000013          	nop
    800014b4:	00000013          	nop
    800014b8:	01f00113          	li	sp,31
    800014bc:	4020d73b          	sraw	a4,ra,sp
    800014c0:	00120213          	addi	tp,tp,1 # 1 <tohost-0x7fffffff>
    800014c4:	00200293          	li	t0,2
    800014c8:	fe5212e3          	bne	tp,t0,800014ac <test_33+0x8>
    800014cc:	fff00393          	li	t2,-1
    800014d0:	16771663          	bne	a4,t2,8000163c <fail>

00000000800014d4 <test_34>:
    800014d4:	02200193          	li	gp,34
    800014d8:	00000213          	li	tp,0
    800014dc:	00700113          	li	sp,7
    800014e0:	800000b7          	lui	ra,0x80000
    800014e4:	4020d73b          	sraw	a4,ra,sp
    800014e8:	00120213          	addi	tp,tp,1 # 1 <tohost-0x7fffffff>
    800014ec:	00200293          	li	t0,2
    800014f0:	fe5216e3          	bne	tp,t0,800014dc <test_34+0x8>
    800014f4:	ff0003b7          	lui	t2,0xff000
    800014f8:	14771263          	bne	a4,t2,8000163c <fail>

00000000800014fc <test_35>:
    800014fc:	02300193          	li	gp,35
    80001500:	00000213          	li	tp,0
    80001504:	00e00113          	li	sp,14
    80001508:	800000b7          	lui	ra,0x80000
    8000150c:	00000013          	nop
    80001510:	4020d73b          	sraw	a4,ra,sp
    80001514:	00120213          	addi	tp,tp,1 # 1 <tohost-0x7fffffff>
    80001518:	00200293          	li	t0,2
    8000151c:	fe5214e3          	bne	tp,t0,80001504 <test_35+0x8>
    80001520:	fffe03b7          	lui	t2,0xfffe0
    80001524:	10771c63          	bne	a4,t2,8000163c <fail>

0000000080001528 <test_36>:
    80001528:	02400193          	li	gp,36
    8000152c:	00000213          	li	tp,0
    80001530:	01f00113          	li	sp,31
    80001534:	800000b7          	lui	ra,0x80000
    80001538:	00000013          	nop
    8000153c:	00000013          	nop
    80001540:	4020d73b          	sraw	a4,ra,sp
    80001544:	00120213          	addi	tp,tp,1 # 1 <tohost-0x7fffffff>
    80001548:	00200293          	li	t0,2
    8000154c:	fe5212e3          	bne	tp,t0,80001530 <test_36+0x8>
    80001550:	fff00393          	li	t2,-1
    80001554:	0e771463          	bne	a4,t2,8000163c <fail>

0000000080001558 <test_37>:
    80001558:	02500193          	li	gp,37
    8000155c:	00000213          	li	tp,0
    80001560:	00700113          	li	sp,7
    80001564:	00000013          	nop
    80001568:	800000b7          	lui	ra,0x80000
    8000156c:	4020d73b          	sraw	a4,ra,sp
    80001570:	00120213          	addi	tp,tp,1 # 1 <tohost-0x7fffffff>
    80001574:	00200293          	li	t0,2
    80001578:	fe5214e3          	bne	tp,t0,80001560 <test_37+0x8>
    8000157c:	ff0003b7          	lui	t2,0xff000
    80001580:	0a771e63          	bne	a4,t2,8000163c <fail>

0000000080001584 <test_38>:
    80001584:	02600193          	li	gp,38
    80001588:	00000213          	li	tp,0
    8000158c:	00e00113          	li	sp,14
    80001590:	00000013          	nop
    80001594:	800000b7          	lui	ra,0x80000
    80001598:	00000013          	nop
    8000159c:	4020d73b          	sraw	a4,ra,sp
    800015a0:	00120213          	addi	tp,tp,1 # 1 <tohost-0x7fffffff>
    800015a4:	00200293          	li	t0,2
    800015a8:	fe5212e3          	bne	tp,t0,8000158c <test_38+0x8>
    800015ac:	fffe03b7          	lui	t2,0xfffe0
    800015b0:	08771663          	bne	a4,t2,8000163c <fail>

00000000800015b4 <test_39>:
    800015b4:	02700193          	li	gp,39
    800015b8:	00000213          	li	tp,0
    800015bc:	01f00113          	li	sp,31
    800015c0:	00000013          	nop
    800015c4:	00000013          	nop
    800015c8:	800000b7          	lui	ra,0x80000
    800015cc:	4020d73b          	sraw	a4,ra,sp
    800015d0:	00120213          	addi	tp,tp,1 # 1 <tohost-0x7fffffff>
    800015d4:	00200293          	li	t0,2
    800015d8:	fe5212e3          	bne	tp,t0,800015bc <test_39+0x8>
    800015dc:	fff00393          	li	t2,-1
    800015e0:	04771e63          	bne	a4,t2,8000163c <fail>

00000000800015e4 <test_40>:
    800015e4:	02800193          	li	gp,40
    800015e8:	00f00093          	li	ra,15
    800015ec:	4010513b          	sraw	sp,zero,ra
    800015f0:	00000393          	li	t2,0
    800015f4:	04711463          	bne	sp,t2,8000163c <fail>

00000000800015f8 <test_41>:
    800015f8:	02900193          	li	gp,41
    800015fc:	02000093          	li	ra,32
    80001600:	4000d13b          	sraw	sp,ra,zero
    80001604:	02000393          	li	t2,32
    80001608:	02711a63          	bne	sp,t2,8000163c <fail>

000000008000160c <test_42>:
    8000160c:	02a00193          	li	gp,42
    80001610:	400050bb          	sraw	ra,zero,zero
    80001614:	00000393          	li	t2,0
    80001618:	02709263          	bne	ra,t2,8000163c <fail>

000000008000161c <test_43>:
    8000161c:	02b00193          	li	gp,43
    80001620:	40000093          	li	ra,1024
    80001624:	00001137          	lui	sp,0x1
    80001628:	8001011b          	addiw	sp,sp,-2048 # 800 <tohost-0x7ffff800>
    8000162c:	4020d03b          	sraw	zero,ra,sp
    80001630:	00000393          	li	t2,0
    80001634:	00701463          	bne	zero,t2,8000163c <fail>
    80001638:	02301a63          	bne	zero,gp,8000166c <pass>

000000008000163c <fail>:
    8000163c:	0ff0000f          	fence
    80001640:	00001597          	auipc	a1,0x1
    80001644:	9c058593          	addi	a1,a1,-1600 # 80002000 <hello>
    80001648:	00f00613          	li	a2,15
    8000164c:	04000893          	li	a7,64
    80001650:	00000073          	ecall
    80001654:	00018063          	beqz	gp,80001654 <fail+0x18>
    80001658:	00119193          	slli	gp,gp,0x1
    8000165c:	0011e193          	ori	gp,gp,1
    80001660:	05d00893          	li	a7,93
    80001664:	00018513          	mv	a0,gp
    80001668:	00000073          	ecall

000000008000166c <pass>:
    8000166c:	0ff0000f          	fence
    80001670:	00100513          	li	a0,1
    80001674:	00001597          	auipc	a1,0x1
    80001678:	98c58593          	addi	a1,a1,-1652 # 80002000 <hello>
    8000167c:	00f00613          	li	a2,15
    80001680:	04000893          	li	a7,64
    80001684:	00000073          	ecall
    80001688:	00100193          	li	gp,1
    8000168c:	05d00893          	li	a7,93
    80001690:	00000513          	li	a0,0
    80001694:	00000073          	ecall
    80001698:	c0001073          	unimp
