
rv64mi-p-sd-misaligned:     file format elf64-littleriscv


Disassembly of section .text:

0000000080001000 <test_2>:
    80001000:	00200193          	li	gp,2
    80001004:	00001097          	auipc	ra,0x1
    80001008:	01c08093          	addi	ra,ra,28 # 80002020 <begin_signature>
    8000100c:	00408137          	lui	sp,0x408
    80001010:	0c11011b          	addiw	sp,sp,193 # 4080c1 <tohost-0x7fbf7f3f>
    80001014:	01111113          	slli	sp,sp,0x11
    80001018:	28310113          	addi	sp,sp,643
    8000101c:	01111113          	slli	sp,sp,0x11
    80001020:	70810113          	addi	sp,sp,1800
    80001024:	00000797          	auipc	a5,0x0
    80001028:	01478793          	addi	a5,a5,20 # 80001038 <test_2+0x38>
    8000102c:	0020b023          	sd	sp,0(ra)
    80001030:	0000b703          	ld	a4,0(ra)
    80001034:	0080006f          	j	8000103c <test_2+0x3c>
    80001038:	00010713          	mv	a4,sp
    8000103c:	004083b7          	lui	t2,0x408
    80001040:	0c13839b          	addiw	t2,t2,193 # 4080c1 <tohost-0x7fbf7f3f>
    80001044:	01139393          	slli	t2,t2,0x11
    80001048:	28338393          	addi	t2,t2,643
    8000104c:	01139393          	slli	t2,t2,0x11
    80001050:	70838393          	addi	t2,t2,1800
    80001054:	2e771063          	bne	a4,t2,80001334 <fail>

0000000080001058 <test_3>:
    80001058:	00300193          	li	gp,3
    8000105c:	00001097          	auipc	ra,0x1
    80001060:	fc408093          	addi	ra,ra,-60 # 80002020 <begin_signature>
    80001064:	0090a137          	lui	sp,0x90a
    80001068:	0b11011b          	addiw	sp,sp,177 # 90a0b1 <tohost-0x7f6f5f4f>
    8000106c:	00c11113          	slli	sp,sp,0xc
    80001070:	c0d10113          	addi	sp,sp,-1011
    80001074:	00c11113          	slli	sp,sp,0xc
    80001078:	0e110113          	addi	sp,sp,225
    8000107c:	00c11113          	slli	sp,sp,0xc
    80001080:	f1010113          	addi	sp,sp,-240
    80001084:	00000797          	auipc	a5,0x0
    80001088:	01478793          	addi	a5,a5,20 # 80001098 <test_3+0x40>
    8000108c:	0020b0a3          	sd	sp,1(ra)
    80001090:	0010b703          	ld	a4,1(ra)
    80001094:	0080006f          	j	8000109c <test_3+0x44>
    80001098:	00010713          	mv	a4,sp
    8000109c:	0090a3b7          	lui	t2,0x90a
    800010a0:	0b13839b          	addiw	t2,t2,177 # 90a0b1 <tohost-0x7f6f5f4f>
    800010a4:	00c39393          	slli	t2,t2,0xc
    800010a8:	c0d38393          	addi	t2,t2,-1011
    800010ac:	00c39393          	slli	t2,t2,0xc
    800010b0:	0e138393          	addi	t2,t2,225
    800010b4:	00c39393          	slli	t2,t2,0xc
    800010b8:	f1038393          	addi	t2,t2,-240
    800010bc:	26771c63          	bne	a4,t2,80001334 <fail>

00000000800010c0 <test_4>:
    800010c0:	00400193          	li	gp,4
    800010c4:	00001097          	auipc	ra,0x1
    800010c8:	f5c08093          	addi	ra,ra,-164 # 80002020 <begin_signature>
    800010cc:	01112137          	lui	sp,0x1112
    800010d0:	1311011b          	addiw	sp,sp,305 # 1112131 <tohost-0x7eeedecf>
    800010d4:	00c11113          	slli	sp,sp,0xc
    800010d8:	41510113          	addi	sp,sp,1045
    800010dc:	00c11113          	slli	sp,sp,0xc
    800010e0:	16110113          	addi	sp,sp,353
    800010e4:	00c11113          	slli	sp,sp,0xc
    800010e8:	71810113          	addi	sp,sp,1816
    800010ec:	00000797          	auipc	a5,0x0
    800010f0:	01478793          	addi	a5,a5,20 # 80001100 <test_4+0x40>
    800010f4:	0020b123          	sd	sp,2(ra)
    800010f8:	0020b703          	ld	a4,2(ra)
    800010fc:	0080006f          	j	80001104 <test_4+0x44>
    80001100:	00010713          	mv	a4,sp
    80001104:	011123b7          	lui	t2,0x1112
    80001108:	1313839b          	addiw	t2,t2,305 # 1112131 <tohost-0x7eeedecf>
    8000110c:	00c39393          	slli	t2,t2,0xc
    80001110:	41538393          	addi	t2,t2,1045
    80001114:	00c39393          	slli	t2,t2,0xc
    80001118:	16138393          	addi	t2,t2,353
    8000111c:	00c39393          	slli	t2,t2,0xc
    80001120:	71838393          	addi	t2,t2,1816
    80001124:	20771863          	bne	a4,t2,80001334 <fail>

0000000080001128 <test_5>:
    80001128:	00500193          	li	gp,5
    8000112c:	00001097          	auipc	ra,0x1
    80001130:	ef408093          	addi	ra,ra,-268 # 80002020 <begin_signature>
    80001134:	00c8d137          	lui	sp,0xc8d
    80001138:	0d91011b          	addiw	sp,sp,217 # c8d0d9 <tohost-0x7f372f27>
    8000113c:	00c11113          	slli	sp,sp,0xc
    80001140:	e0f10113          	addi	sp,sp,-497
    80001144:	00c11113          	slli	sp,sp,0xc
    80001148:	8f110113          	addi	sp,sp,-1807
    8000114c:	00d11113          	slli	sp,sp,0xd
    80001150:	f2010113          	addi	sp,sp,-224
    80001154:	00000797          	auipc	a5,0x0
    80001158:	01478793          	addi	a5,a5,20 # 80001168 <test_5+0x40>
    8000115c:	0020b1a3          	sd	sp,3(ra)
    80001160:	0030b703          	ld	a4,3(ra)
    80001164:	0080006f          	j	8000116c <test_5+0x44>
    80001168:	00010713          	mv	a4,sp
    8000116c:	00c8d3b7          	lui	t2,0xc8d
    80001170:	0d93839b          	addiw	t2,t2,217 # c8d0d9 <tohost-0x7f372f27>
    80001174:	00c39393          	slli	t2,t2,0xc
    80001178:	e0f38393          	addi	t2,t2,-497
    8000117c:	00c39393          	slli	t2,t2,0xc
    80001180:	8f138393          	addi	t2,t2,-1807
    80001184:	00d39393          	slli	t2,t2,0xd
    80001188:	f2038393          	addi	t2,t2,-224
    8000118c:	1a771463          	bne	a4,t2,80001334 <fail>

0000000080001190 <test_6>:
    80001190:	00600193          	li	gp,6
    80001194:	00001097          	auipc	ra,0x1
    80001198:	e8c08093          	addi	ra,ra,-372 # 80002020 <begin_signature>
    8000119c:	01091137          	lui	sp,0x1091
    800011a0:	1191011b          	addiw	sp,sp,281 # 1091119 <tohost-0x7ef6eee7>
    800011a4:	00c11113          	slli	sp,sp,0xc
    800011a8:	21310113          	addi	sp,sp,531
    800011ac:	00c11113          	slli	sp,sp,0xc
    800011b0:	93110113          	addi	sp,sp,-1743
    800011b4:	00d11113          	slli	sp,sp,0xd
    800011b8:	72810113          	addi	sp,sp,1832
    800011bc:	00000797          	auipc	a5,0x0
    800011c0:	01478793          	addi	a5,a5,20 # 800011d0 <test_6+0x40>
    800011c4:	0020b223          	sd	sp,4(ra)
    800011c8:	0040b703          	ld	a4,4(ra)
    800011cc:	0080006f          	j	800011d4 <test_6+0x44>
    800011d0:	00010713          	mv	a4,sp
    800011d4:	010913b7          	lui	t2,0x1091
    800011d8:	1193839b          	addiw	t2,t2,281 # 1091119 <tohost-0x7ef6eee7>
    800011dc:	00c39393          	slli	t2,t2,0xc
    800011e0:	21338393          	addi	t2,t2,531
    800011e4:	00c39393          	slli	t2,t2,0xc
    800011e8:	93138393          	addi	t2,t2,-1743
    800011ec:	00d39393          	slli	t2,t2,0xd
    800011f0:	72838393          	addi	t2,t2,1832
    800011f4:	14771063          	bne	a4,t2,80001334 <fail>

00000000800011f8 <test_7>:
    800011f8:	00700193          	li	gp,7
    800011fc:	00001097          	auipc	ra,0x1
    80001200:	e2408093          	addi	ra,ra,-476 # 80002020 <begin_signature>
    80001204:	0292a137          	lui	sp,0x292a
    80001208:	2b31011b          	addiw	sp,sp,691 # 292a2b3 <tohost-0x7d6d5d4d>
    8000120c:	00c11113          	slli	sp,sp,0xc
    80001210:	c2d10113          	addi	sp,sp,-979
    80001214:	00c11113          	slli	sp,sp,0xc
    80001218:	2e310113          	addi	sp,sp,739
    8000121c:	00c11113          	slli	sp,sp,0xc
    80001220:	f3010113          	addi	sp,sp,-208
    80001224:	00000797          	auipc	a5,0x0
    80001228:	01478793          	addi	a5,a5,20 # 80001238 <test_7+0x40>
    8000122c:	0020b2a3          	sd	sp,5(ra)
    80001230:	0050b703          	ld	a4,5(ra)
    80001234:	0080006f          	j	8000123c <test_7+0x44>
    80001238:	00010713          	mv	a4,sp
    8000123c:	0292a3b7          	lui	t2,0x292a
    80001240:	2b33839b          	addiw	t2,t2,691 # 292a2b3 <tohost-0x7d6d5d4d>
    80001244:	00c39393          	slli	t2,t2,0xc
    80001248:	c2d38393          	addi	t2,t2,-979
    8000124c:	00c39393          	slli	t2,t2,0xc
    80001250:	2e338393          	addi	t2,t2,739
    80001254:	00c39393          	slli	t2,t2,0xc
    80001258:	f3038393          	addi	t2,t2,-208
    8000125c:	0c771c63          	bne	a4,t2,80001334 <fail>

0000000080001260 <test_8>:
    80001260:	00800193          	li	gp,8
    80001264:	00001097          	auipc	ra,0x1
    80001268:	dbc08093          	addi	ra,ra,-580 # 80002020 <begin_signature>
    8000126c:	03132137          	lui	sp,0x3132
    80001270:	3331011b          	addiw	sp,sp,819 # 3132333 <tohost-0x7cecdccd>
    80001274:	00c11113          	slli	sp,sp,0xc
    80001278:	43510113          	addi	sp,sp,1077
    8000127c:	00c11113          	slli	sp,sp,0xc
    80001280:	36310113          	addi	sp,sp,867
    80001284:	00c11113          	slli	sp,sp,0xc
    80001288:	73810113          	addi	sp,sp,1848
    8000128c:	00000797          	auipc	a5,0x0
    80001290:	01478793          	addi	a5,a5,20 # 800012a0 <test_8+0x40>
    80001294:	0020b323          	sd	sp,6(ra)
    80001298:	0060b703          	ld	a4,6(ra)
    8000129c:	0080006f          	j	800012a4 <test_8+0x44>
    800012a0:	00010713          	mv	a4,sp
    800012a4:	031323b7          	lui	t2,0x3132
    800012a8:	3333839b          	addiw	t2,t2,819 # 3132333 <tohost-0x7cecdccd>
    800012ac:	00c39393          	slli	t2,t2,0xc
    800012b0:	43538393          	addi	t2,t2,1077
    800012b4:	00c39393          	slli	t2,t2,0xc
    800012b8:	36338393          	addi	t2,t2,867
    800012bc:	00c39393          	slli	t2,t2,0xc
    800012c0:	73838393          	addi	t2,t2,1848
    800012c4:	06771863          	bne	a4,t2,80001334 <fail>

00000000800012c8 <test_9>:
    800012c8:	00900193          	li	gp,9
    800012cc:	00001097          	auipc	ra,0x1
    800012d0:	d5408093          	addi	ra,ra,-684 # 80002020 <begin_signature>
    800012d4:	00e4f137          	lui	sp,0xe4f
    800012d8:	8ed1011b          	addiw	sp,sp,-1811 # e4e8ed <tohost-0x7f1b1713>
    800012dc:	00c11113          	slli	sp,sp,0xc
    800012e0:	f0f10113          	addi	sp,sp,-241
    800012e4:	00c11113          	slli	sp,sp,0xc
    800012e8:	4f910113          	addi	sp,sp,1273
    800012ec:	00e11113          	slli	sp,sp,0xe
    800012f0:	f4010113          	addi	sp,sp,-192
    800012f4:	00000797          	auipc	a5,0x0
    800012f8:	01478793          	addi	a5,a5,20 # 80001308 <test_9+0x40>
    800012fc:	0020b3a3          	sd	sp,7(ra)
    80001300:	0070b703          	ld	a4,7(ra)
    80001304:	0080006f          	j	8000130c <test_9+0x44>
    80001308:	00010713          	mv	a4,sp
    8000130c:	00e4f3b7          	lui	t2,0xe4f
    80001310:	8ed3839b          	addiw	t2,t2,-1811 # e4e8ed <tohost-0x7f1b1713>
    80001314:	00c39393          	slli	t2,t2,0xc
    80001318:	f0f38393          	addi	t2,t2,-241
    8000131c:	00c39393          	slli	t2,t2,0xc
    80001320:	4f938393          	addi	t2,t2,1273
    80001324:	00e39393          	slli	t2,t2,0xe
    80001328:	f4038393          	addi	t2,t2,-192
    8000132c:	00771463          	bne	a4,t2,80001334 <fail>
    80001330:	02301a63          	bne	zero,gp,80001364 <pass>

0000000080001334 <fail>:
    80001334:	0ff0000f          	fence
    80001338:	00001597          	auipc	a1,0x1
    8000133c:	cc858593          	addi	a1,a1,-824 # 80002000 <hello>
    80001340:	00f00613          	li	a2,15
    80001344:	04000893          	li	a7,64
    80001348:	00000073          	ecall
    8000134c:	00018063          	beqz	gp,8000134c <fail+0x18>
    80001350:	00119193          	slli	gp,gp,0x1
    80001354:	0011e193          	ori	gp,gp,1
    80001358:	05d00893          	li	a7,93
    8000135c:	00018513          	mv	a0,gp
    80001360:	00000073          	ecall

0000000080001364 <pass>:
    80001364:	0ff0000f          	fence
    80001368:	00100513          	li	a0,1
    8000136c:	00001597          	auipc	a1,0x1
    80001370:	c9458593          	addi	a1,a1,-876 # 80002000 <hello>
    80001374:	00f00613          	li	a2,15
    80001378:	04000893          	li	a7,64
    8000137c:	00000073          	ecall
    80001380:	00100193          	li	gp,1
    80001384:	05d00893          	li	a7,93
    80001388:	00000513          	li	a0,0
    8000138c:	00000073          	ecall

0000000080001390 <mtvec_handler>:
    80001390:	00600293          	li	t0,6
    80001394:	34202373          	csrr	t1,mcause
    80001398:	f8629ee3          	bne	t0,t1,80001334 <fail>
    8000139c:	34179073          	csrw	mepc,a5
    800013a0:	30200073          	mret
    800013a4:	c0001073          	unimp
