
rv64uf-p-move:     file format elf64-littleriscv


Disassembly of section .text:

0000000080001000 <test_2>:
    80001000:	00200193          	li	gp,2
    80001004:	0030d073          	csrwi	fcsr,1
    80001008:	00001537          	lui	a0,0x1
    8000100c:	2345051b          	addiw	a0,a0,564 # 1234 <tohost-0x7fffedcc>
    80001010:	003515f3          	fscsr	a1,a0
    80001014:	00100393          	li	t2,1
    80001018:	2a759463          	bne	a1,t2,800012c0 <fail>

000000008000101c <test_3>:
    8000101c:	00300193          	li	gp,3
    80001020:	00302573          	frcsr	a0
    80001024:	03400393          	li	t2,52
    80001028:	28751c63          	bne	a0,t2,800012c0 <fail>

000000008000102c <test_4>:
    8000102c:	00400193          	li	gp,4
    80001030:	00102573          	frflags	a0
    80001034:	01400393          	li	t2,20
    80001038:	28751463          	bne	a0,t2,800012c0 <fail>

000000008000103c <test_5>:
    8000103c:	00500193          	li	gp,5
    80001040:	00215573          	fsrmi	a0,2
    80001044:	00100393          	li	t2,1
    80001048:	26751c63          	bne	a0,t2,800012c0 <fail>

000000008000104c <test_6>:
    8000104c:	00600193          	li	gp,6
    80001050:	00302573          	frcsr	a0
    80001054:	05400393          	li	t2,84
    80001058:	26751463          	bne	a0,t2,800012c0 <fail>

000000008000105c <test_7>:
    8000105c:	00700193          	li	gp,7
    80001060:	00127573          	csrrci	a0,fflags,4
    80001064:	01400393          	li	t2,20
    80001068:	24751c63          	bne	a0,t2,800012c0 <fail>

000000008000106c <test_8>:
    8000106c:	00800193          	li	gp,8
    80001070:	00302573          	frcsr	a0
    80001074:	05000393          	li	t2,80
    80001078:	24751463          	bne	a0,t2,800012c0 <fail>

000000008000107c <test_10>:
    8000107c:	00a00193          	li	gp,10
    80001080:	123455b7          	lui	a1,0x12345
    80001084:	6785859b          	addiw	a1,a1,1656 # 12345678 <tohost-0x6dcba988>
    80001088:	00000613          	li	a2,0
    8000108c:	f00580d3          	fmv.w.x	ft1,a1
    80001090:	f0060153          	fmv.w.x	ft2,a2
    80001094:	20208053          	fsgnj.s	ft0,ft1,ft2
    80001098:	e0000553          	fmv.x.w	a0,ft0
    8000109c:	123453b7          	lui	t2,0x12345
    800010a0:	6783839b          	addiw	t2,t2,1656 # 12345678 <tohost-0x6dcba988>
    800010a4:	20751e63          	bne	a0,t2,800012c0 <fail>

00000000800010a8 <test_11>:
    800010a8:	00b00193          	li	gp,11
    800010ac:	123455b7          	lui	a1,0x12345
    800010b0:	6785859b          	addiw	a1,a1,1656 # 12345678 <tohost-0x6dcba988>
    800010b4:	fff00613          	li	a2,-1
    800010b8:	f00580d3          	fmv.w.x	ft1,a1
    800010bc:	f0060153          	fmv.w.x	ft2,a2
    800010c0:	20208053          	fsgnj.s	ft0,ft1,ft2
    800010c4:	e0000553          	fmv.x.w	a0,ft0
    800010c8:	923453b7          	lui	t2,0x92345
    800010cc:	6783839b          	addiw	t2,t2,1656 # ffffffff92345678 <_end+0xffffffff12343658>
    800010d0:	1e751863          	bne	a0,t2,800012c0 <fail>

00000000800010d4 <test_12>:
    800010d4:	00c00193          	li	gp,12
    800010d8:	000925b7          	lui	a1,0x92
    800010dc:	3455859b          	addiw	a1,a1,837 # 92345 <tohost-0x7ff6dcbb>
    800010e0:	00c59593          	slli	a1,a1,0xc
    800010e4:	67858593          	addi	a1,a1,1656
    800010e8:	00000613          	li	a2,0
    800010ec:	f00580d3          	fmv.w.x	ft1,a1
    800010f0:	f0060153          	fmv.w.x	ft2,a2
    800010f4:	20208053          	fsgnj.s	ft0,ft1,ft2
    800010f8:	e0000553          	fmv.x.w	a0,ft0
    800010fc:	123453b7          	lui	t2,0x12345
    80001100:	6783839b          	addiw	t2,t2,1656 # 12345678 <tohost-0x6dcba988>
    80001104:	1a751e63          	bne	a0,t2,800012c0 <fail>

0000000080001108 <test_13>:
    80001108:	00d00193          	li	gp,13
    8000110c:	000925b7          	lui	a1,0x92
    80001110:	3455859b          	addiw	a1,a1,837 # 92345 <tohost-0x7ff6dcbb>
    80001114:	00c59593          	slli	a1,a1,0xc
    80001118:	67858593          	addi	a1,a1,1656
    8000111c:	fff00613          	li	a2,-1
    80001120:	f00580d3          	fmv.w.x	ft1,a1
    80001124:	f0060153          	fmv.w.x	ft2,a2
    80001128:	20208053          	fsgnj.s	ft0,ft1,ft2
    8000112c:	e0000553          	fmv.x.w	a0,ft0
    80001130:	923453b7          	lui	t2,0x92345
    80001134:	6783839b          	addiw	t2,t2,1656 # ffffffff92345678 <_end+0xffffffff12343658>
    80001138:	18751463          	bne	a0,t2,800012c0 <fail>

000000008000113c <test_20>:
    8000113c:	01400193          	li	gp,20
    80001140:	123455b7          	lui	a1,0x12345
    80001144:	6785859b          	addiw	a1,a1,1656 # 12345678 <tohost-0x6dcba988>
    80001148:	00000613          	li	a2,0
    8000114c:	f00580d3          	fmv.w.x	ft1,a1
    80001150:	f0060153          	fmv.w.x	ft2,a2
    80001154:	20209053          	fsgnjn.s	ft0,ft1,ft2
    80001158:	e0000553          	fmv.x.w	a0,ft0
    8000115c:	923453b7          	lui	t2,0x92345
    80001160:	6783839b          	addiw	t2,t2,1656 # ffffffff92345678 <_end+0xffffffff12343658>
    80001164:	14751e63          	bne	a0,t2,800012c0 <fail>

0000000080001168 <test_21>:
    80001168:	01500193          	li	gp,21
    8000116c:	123455b7          	lui	a1,0x12345
    80001170:	6785859b          	addiw	a1,a1,1656 # 12345678 <tohost-0x6dcba988>
    80001174:	fff00613          	li	a2,-1
    80001178:	f00580d3          	fmv.w.x	ft1,a1
    8000117c:	f0060153          	fmv.w.x	ft2,a2
    80001180:	20209053          	fsgnjn.s	ft0,ft1,ft2
    80001184:	e0000553          	fmv.x.w	a0,ft0
    80001188:	123453b7          	lui	t2,0x12345
    8000118c:	6783839b          	addiw	t2,t2,1656 # 12345678 <tohost-0x6dcba988>
    80001190:	12751863          	bne	a0,t2,800012c0 <fail>

0000000080001194 <test_22>:
    80001194:	01600193          	li	gp,22
    80001198:	000925b7          	lui	a1,0x92
    8000119c:	3455859b          	addiw	a1,a1,837 # 92345 <tohost-0x7ff6dcbb>
    800011a0:	00c59593          	slli	a1,a1,0xc
    800011a4:	67858593          	addi	a1,a1,1656
    800011a8:	00000613          	li	a2,0
    800011ac:	f00580d3          	fmv.w.x	ft1,a1
    800011b0:	f0060153          	fmv.w.x	ft2,a2
    800011b4:	20209053          	fsgnjn.s	ft0,ft1,ft2
    800011b8:	e0000553          	fmv.x.w	a0,ft0
    800011bc:	923453b7          	lui	t2,0x92345
    800011c0:	6783839b          	addiw	t2,t2,1656 # ffffffff92345678 <_end+0xffffffff12343658>
    800011c4:	0e751e63          	bne	a0,t2,800012c0 <fail>

00000000800011c8 <test_23>:
    800011c8:	01700193          	li	gp,23
    800011cc:	000925b7          	lui	a1,0x92
    800011d0:	3455859b          	addiw	a1,a1,837 # 92345 <tohost-0x7ff6dcbb>
    800011d4:	00c59593          	slli	a1,a1,0xc
    800011d8:	67858593          	addi	a1,a1,1656
    800011dc:	fff00613          	li	a2,-1
    800011e0:	f00580d3          	fmv.w.x	ft1,a1
    800011e4:	f0060153          	fmv.w.x	ft2,a2
    800011e8:	20209053          	fsgnjn.s	ft0,ft1,ft2
    800011ec:	e0000553          	fmv.x.w	a0,ft0
    800011f0:	123453b7          	lui	t2,0x12345
    800011f4:	6783839b          	addiw	t2,t2,1656 # 12345678 <tohost-0x6dcba988>
    800011f8:	0c751463          	bne	a0,t2,800012c0 <fail>

00000000800011fc <test_30>:
    800011fc:	01e00193          	li	gp,30
    80001200:	123455b7          	lui	a1,0x12345
    80001204:	6785859b          	addiw	a1,a1,1656 # 12345678 <tohost-0x6dcba988>
    80001208:	00000613          	li	a2,0
    8000120c:	f00580d3          	fmv.w.x	ft1,a1
    80001210:	f0060153          	fmv.w.x	ft2,a2
    80001214:	2020a053          	fsgnjx.s	ft0,ft1,ft2
    80001218:	e0000553          	fmv.x.w	a0,ft0
    8000121c:	123453b7          	lui	t2,0x12345
    80001220:	6783839b          	addiw	t2,t2,1656 # 12345678 <tohost-0x6dcba988>
    80001224:	08751e63          	bne	a0,t2,800012c0 <fail>

0000000080001228 <test_31>:
    80001228:	01f00193          	li	gp,31
    8000122c:	123455b7          	lui	a1,0x12345
    80001230:	6785859b          	addiw	a1,a1,1656 # 12345678 <tohost-0x6dcba988>
    80001234:	fff00613          	li	a2,-1
    80001238:	f00580d3          	fmv.w.x	ft1,a1
    8000123c:	f0060153          	fmv.w.x	ft2,a2
    80001240:	2020a053          	fsgnjx.s	ft0,ft1,ft2
    80001244:	e0000553          	fmv.x.w	a0,ft0
    80001248:	923453b7          	lui	t2,0x92345
    8000124c:	6783839b          	addiw	t2,t2,1656 # ffffffff92345678 <_end+0xffffffff12343658>
    80001250:	06751863          	bne	a0,t2,800012c0 <fail>

0000000080001254 <test_32>:
    80001254:	02000193          	li	gp,32
    80001258:	000925b7          	lui	a1,0x92
    8000125c:	3455859b          	addiw	a1,a1,837 # 92345 <tohost-0x7ff6dcbb>
    80001260:	00c59593          	slli	a1,a1,0xc
    80001264:	67858593          	addi	a1,a1,1656
    80001268:	00000613          	li	a2,0
    8000126c:	f00580d3          	fmv.w.x	ft1,a1
    80001270:	f0060153          	fmv.w.x	ft2,a2
    80001274:	2020a053          	fsgnjx.s	ft0,ft1,ft2
    80001278:	e0000553          	fmv.x.w	a0,ft0
    8000127c:	923453b7          	lui	t2,0x92345
    80001280:	6783839b          	addiw	t2,t2,1656 # ffffffff92345678 <_end+0xffffffff12343658>
    80001284:	02751e63          	bne	a0,t2,800012c0 <fail>

0000000080001288 <test_33>:
    80001288:	02100193          	li	gp,33
    8000128c:	000925b7          	lui	a1,0x92
    80001290:	3455859b          	addiw	a1,a1,837 # 92345 <tohost-0x7ff6dcbb>
    80001294:	00c59593          	slli	a1,a1,0xc
    80001298:	67858593          	addi	a1,a1,1656
    8000129c:	fff00613          	li	a2,-1
    800012a0:	f00580d3          	fmv.w.x	ft1,a1
    800012a4:	f0060153          	fmv.w.x	ft2,a2
    800012a8:	2020a053          	fsgnjx.s	ft0,ft1,ft2
    800012ac:	e0000553          	fmv.x.w	a0,ft0
    800012b0:	123453b7          	lui	t2,0x12345
    800012b4:	6783839b          	addiw	t2,t2,1656 # 12345678 <tohost-0x6dcba988>
    800012b8:	00751463          	bne	a0,t2,800012c0 <fail>
    800012bc:	02301a63          	bne	zero,gp,800012f0 <pass>

00000000800012c0 <fail>:
    800012c0:	0ff0000f          	fence
    800012c4:	00001597          	auipc	a1,0x1
    800012c8:	d3c58593          	addi	a1,a1,-708 # 80002000 <hello>
    800012cc:	00f00613          	li	a2,15
    800012d0:	04000893          	li	a7,64
    800012d4:	00000073          	ecall
    800012d8:	00018063          	beqz	gp,800012d8 <fail+0x18>
    800012dc:	00119193          	slli	gp,gp,0x1
    800012e0:	0011e193          	ori	gp,gp,1
    800012e4:	05d00893          	li	a7,93
    800012e8:	00018513          	mv	a0,gp
    800012ec:	00000073          	ecall

00000000800012f0 <pass>:
    800012f0:	0ff0000f          	fence
    800012f4:	00100513          	li	a0,1
    800012f8:	00001597          	auipc	a1,0x1
    800012fc:	d0858593          	addi	a1,a1,-760 # 80002000 <hello>
    80001300:	00f00613          	li	a2,15
    80001304:	04000893          	li	a7,64
    80001308:	00000073          	ecall
    8000130c:	00100193          	li	gp,1
    80001310:	05d00893          	li	a7,93
    80001314:	00000513          	li	a0,0
    80001318:	00000073          	ecall
    8000131c:	c0001073          	unimp
