
rv64ui-p-lwu:     file format elf64-littleriscv


Disassembly of section .text:

0000000080001000 <test_2>:
    80001000:	00200193          	li	gp,2
    80001004:	00ff07b7          	lui	a5,0xff0
    80001008:	0ff7879b          	addiw	a5,a5,255 # ff00ff <tohost-0x7f00ff01>
    8000100c:	00001097          	auipc	ra,0x1
    80001010:	01408093          	addi	ra,ra,20 # 80002020 <begin_signature>
    80001014:	0000e703          	lwu	a4,0(ra)
    80001018:	00ff03b7          	lui	t2,0xff0
    8000101c:	0ff3839b          	addiw	t2,t2,255 # ff00ff <tohost-0x7f00ff01>
    80001020:	30771a63          	bne	a4,t2,80001334 <fail>

0000000080001024 <test_3>:
    80001024:	00300193          	li	gp,3
    80001028:	000107b7          	lui	a5,0x10
    8000102c:	f017879b          	addiw	a5,a5,-255 # ff01 <tohost-0x7fff00ff>
    80001030:	01079793          	slli	a5,a5,0x10
    80001034:	f0078793          	addi	a5,a5,-256
    80001038:	00001097          	auipc	ra,0x1
    8000103c:	fe808093          	addi	ra,ra,-24 # 80002020 <begin_signature>
    80001040:	0040e703          	lwu	a4,4(ra)
    80001044:	000103b7          	lui	t2,0x10
    80001048:	f013839b          	addiw	t2,t2,-255 # ff01 <tohost-0x7fff00ff>
    8000104c:	01039393          	slli	t2,t2,0x10
    80001050:	f0038393          	addi	t2,t2,-256
    80001054:	2e771063          	bne	a4,t2,80001334 <fail>

0000000080001058 <test_4>:
    80001058:	00400193          	li	gp,4
    8000105c:	0ff017b7          	lui	a5,0xff01
    80001060:	ff07879b          	addiw	a5,a5,-16 # ff00ff0 <tohost-0x700ff010>
    80001064:	00001097          	auipc	ra,0x1
    80001068:	fbc08093          	addi	ra,ra,-68 # 80002020 <begin_signature>
    8000106c:	0080e703          	lwu	a4,8(ra)
    80001070:	0ff013b7          	lui	t2,0xff01
    80001074:	ff03839b          	addiw	t2,t2,-16 # ff00ff0 <tohost-0x700ff010>
    80001078:	2a771e63          	bne	a4,t2,80001334 <fail>

000000008000107c <test_5>:
    8000107c:	00500193          	li	gp,5
    80001080:	000f07b7          	lui	a5,0xf0
    80001084:	0ff7879b          	addiw	a5,a5,255 # f00ff <tohost-0x7ff0ff01>
    80001088:	00c79793          	slli	a5,a5,0xc
    8000108c:	00f78793          	addi	a5,a5,15
    80001090:	00001097          	auipc	ra,0x1
    80001094:	f9008093          	addi	ra,ra,-112 # 80002020 <begin_signature>
    80001098:	00c0e703          	lwu	a4,12(ra)
    8000109c:	000f03b7          	lui	t2,0xf0
    800010a0:	0ff3839b          	addiw	t2,t2,255 # f00ff <tohost-0x7ff0ff01>
    800010a4:	00c39393          	slli	t2,t2,0xc
    800010a8:	00f38393          	addi	t2,t2,15
    800010ac:	28771463          	bne	a4,t2,80001334 <fail>

00000000800010b0 <test_6>:
    800010b0:	00600193          	li	gp,6
    800010b4:	00ff07b7          	lui	a5,0xff0
    800010b8:	0ff7879b          	addiw	a5,a5,255 # ff00ff <tohost-0x7f00ff01>
    800010bc:	00001097          	auipc	ra,0x1
    800010c0:	f7008093          	addi	ra,ra,-144 # 8000202c <tdat4>
    800010c4:	ff40e703          	lwu	a4,-12(ra)
    800010c8:	00ff03b7          	lui	t2,0xff0
    800010cc:	0ff3839b          	addiw	t2,t2,255 # ff00ff <tohost-0x7f00ff01>
    800010d0:	26771263          	bne	a4,t2,80001334 <fail>

00000000800010d4 <test_7>:
    800010d4:	00700193          	li	gp,7
    800010d8:	000107b7          	lui	a5,0x10
    800010dc:	f017879b          	addiw	a5,a5,-255 # ff01 <tohost-0x7fff00ff>
    800010e0:	01079793          	slli	a5,a5,0x10
    800010e4:	f0078793          	addi	a5,a5,-256
    800010e8:	00001097          	auipc	ra,0x1
    800010ec:	f4408093          	addi	ra,ra,-188 # 8000202c <tdat4>
    800010f0:	ff80e703          	lwu	a4,-8(ra)
    800010f4:	000103b7          	lui	t2,0x10
    800010f8:	f013839b          	addiw	t2,t2,-255 # ff01 <tohost-0x7fff00ff>
    800010fc:	01039393          	slli	t2,t2,0x10
    80001100:	f0038393          	addi	t2,t2,-256
    80001104:	22771863          	bne	a4,t2,80001334 <fail>

0000000080001108 <test_8>:
    80001108:	00800193          	li	gp,8
    8000110c:	0ff017b7          	lui	a5,0xff01
    80001110:	ff07879b          	addiw	a5,a5,-16 # ff00ff0 <tohost-0x700ff010>
    80001114:	00001097          	auipc	ra,0x1
    80001118:	f1808093          	addi	ra,ra,-232 # 8000202c <tdat4>
    8000111c:	ffc0e703          	lwu	a4,-4(ra)
    80001120:	0ff013b7          	lui	t2,0xff01
    80001124:	ff03839b          	addiw	t2,t2,-16 # ff00ff0 <tohost-0x700ff010>
    80001128:	20771663          	bne	a4,t2,80001334 <fail>

000000008000112c <test_9>:
    8000112c:	00900193          	li	gp,9
    80001130:	000f07b7          	lui	a5,0xf0
    80001134:	0ff7879b          	addiw	a5,a5,255 # f00ff <tohost-0x7ff0ff01>
    80001138:	00c79793          	slli	a5,a5,0xc
    8000113c:	00f78793          	addi	a5,a5,15
    80001140:	00001097          	auipc	ra,0x1
    80001144:	eec08093          	addi	ra,ra,-276 # 8000202c <tdat4>
    80001148:	0000e703          	lwu	a4,0(ra)
    8000114c:	000f03b7          	lui	t2,0xf0
    80001150:	0ff3839b          	addiw	t2,t2,255 # f00ff <tohost-0x7ff0ff01>
    80001154:	00c39393          	slli	t2,t2,0xc
    80001158:	00f38393          	addi	t2,t2,15
    8000115c:	1c771c63          	bne	a4,t2,80001334 <fail>

0000000080001160 <test_10>:
    80001160:	00a00193          	li	gp,10
    80001164:	00001097          	auipc	ra,0x1
    80001168:	ebc08093          	addi	ra,ra,-324 # 80002020 <begin_signature>
    8000116c:	fe008093          	addi	ra,ra,-32
    80001170:	0200e283          	lwu	t0,32(ra)
    80001174:	00ff03b7          	lui	t2,0xff0
    80001178:	0ff3839b          	addiw	t2,t2,255 # ff00ff <tohost-0x7f00ff01>
    8000117c:	1a729c63          	bne	t0,t2,80001334 <fail>

0000000080001180 <test_11>:
    80001180:	00b00193          	li	gp,11
    80001184:	00001097          	auipc	ra,0x1
    80001188:	e9c08093          	addi	ra,ra,-356 # 80002020 <begin_signature>
    8000118c:	ffd08093          	addi	ra,ra,-3
    80001190:	0070e283          	lwu	t0,7(ra)
    80001194:	000103b7          	lui	t2,0x10
    80001198:	f013839b          	addiw	t2,t2,-255 # ff01 <tohost-0x7fff00ff>
    8000119c:	01039393          	slli	t2,t2,0x10
    800011a0:	f0038393          	addi	t2,t2,-256
    800011a4:	18729863          	bne	t0,t2,80001334 <fail>

00000000800011a8 <test_12>:
    800011a8:	00c00193          	li	gp,12
    800011ac:	00000213          	li	tp,0
    800011b0:	00001097          	auipc	ra,0x1
    800011b4:	e7408093          	addi	ra,ra,-396 # 80002024 <tdat2>
    800011b8:	0040e703          	lwu	a4,4(ra)
    800011bc:	00070313          	mv	t1,a4
    800011c0:	0ff013b7          	lui	t2,0xff01
    800011c4:	ff03839b          	addiw	t2,t2,-16 # ff00ff0 <tohost-0x700ff010>
    800011c8:	16731663          	bne	t1,t2,80001334 <fail>
    800011cc:	00120213          	addi	tp,tp,1 # 1 <tohost-0x7fffffff>
    800011d0:	00200293          	li	t0,2
    800011d4:	fc521ee3          	bne	tp,t0,800011b0 <test_12+0x8>

00000000800011d8 <test_13>:
    800011d8:	00d00193          	li	gp,13
    800011dc:	00000213          	li	tp,0
    800011e0:	00001097          	auipc	ra,0x1
    800011e4:	e4808093          	addi	ra,ra,-440 # 80002028 <tdat3>
    800011e8:	0040e703          	lwu	a4,4(ra)
    800011ec:	00000013          	nop
    800011f0:	00070313          	mv	t1,a4
    800011f4:	000f03b7          	lui	t2,0xf0
    800011f8:	0ff3839b          	addiw	t2,t2,255 # f00ff <tohost-0x7ff0ff01>
    800011fc:	00c39393          	slli	t2,t2,0xc
    80001200:	00f38393          	addi	t2,t2,15
    80001204:	12731863          	bne	t1,t2,80001334 <fail>
    80001208:	00120213          	addi	tp,tp,1 # 1 <tohost-0x7fffffff>
    8000120c:	00200293          	li	t0,2
    80001210:	fc5218e3          	bne	tp,t0,800011e0 <test_13+0x8>

0000000080001214 <test_14>:
    80001214:	00e00193          	li	gp,14
    80001218:	00000213          	li	tp,0
    8000121c:	00001097          	auipc	ra,0x1
    80001220:	e0408093          	addi	ra,ra,-508 # 80002020 <begin_signature>
    80001224:	0040e703          	lwu	a4,4(ra)
    80001228:	00000013          	nop
    8000122c:	00000013          	nop
    80001230:	00070313          	mv	t1,a4
    80001234:	000103b7          	lui	t2,0x10
    80001238:	f013839b          	addiw	t2,t2,-255 # ff01 <tohost-0x7fff00ff>
    8000123c:	01039393          	slli	t2,t2,0x10
    80001240:	f0038393          	addi	t2,t2,-256
    80001244:	0e731863          	bne	t1,t2,80001334 <fail>
    80001248:	00120213          	addi	tp,tp,1 # 1 <tohost-0x7fffffff>
    8000124c:	00200293          	li	t0,2
    80001250:	fc5216e3          	bne	tp,t0,8000121c <test_14+0x8>

0000000080001254 <test_15>:
    80001254:	00f00193          	li	gp,15
    80001258:	00000213          	li	tp,0
    8000125c:	00001097          	auipc	ra,0x1
    80001260:	dc808093          	addi	ra,ra,-568 # 80002024 <tdat2>
    80001264:	0040e703          	lwu	a4,4(ra)
    80001268:	0ff013b7          	lui	t2,0xff01
    8000126c:	ff03839b          	addiw	t2,t2,-16 # ff00ff0 <tohost-0x700ff010>
    80001270:	0c771263          	bne	a4,t2,80001334 <fail>
    80001274:	00120213          	addi	tp,tp,1 # 1 <tohost-0x7fffffff>
    80001278:	00200293          	li	t0,2
    8000127c:	fe5210e3          	bne	tp,t0,8000125c <test_15+0x8>

0000000080001280 <test_16>:
    80001280:	01000193          	li	gp,16
    80001284:	00000213          	li	tp,0
    80001288:	00001097          	auipc	ra,0x1
    8000128c:	da008093          	addi	ra,ra,-608 # 80002028 <tdat3>
    80001290:	00000013          	nop
    80001294:	0040e703          	lwu	a4,4(ra)
    80001298:	000f03b7          	lui	t2,0xf0
    8000129c:	0ff3839b          	addiw	t2,t2,255 # f00ff <tohost-0x7ff0ff01>
    800012a0:	00c39393          	slli	t2,t2,0xc
    800012a4:	00f38393          	addi	t2,t2,15
    800012a8:	08771663          	bne	a4,t2,80001334 <fail>
    800012ac:	00120213          	addi	tp,tp,1 # 1 <tohost-0x7fffffff>
    800012b0:	00200293          	li	t0,2
    800012b4:	fc521ae3          	bne	tp,t0,80001288 <test_16+0x8>

00000000800012b8 <test_17>:
    800012b8:	01100193          	li	gp,17
    800012bc:	00000213          	li	tp,0
    800012c0:	00001097          	auipc	ra,0x1
    800012c4:	d6008093          	addi	ra,ra,-672 # 80002020 <begin_signature>
    800012c8:	00000013          	nop
    800012cc:	00000013          	nop
    800012d0:	0040e703          	lwu	a4,4(ra)
    800012d4:	000103b7          	lui	t2,0x10
    800012d8:	f013839b          	addiw	t2,t2,-255 # ff01 <tohost-0x7fff00ff>
    800012dc:	01039393          	slli	t2,t2,0x10
    800012e0:	f0038393          	addi	t2,t2,-256
    800012e4:	04771863          	bne	a4,t2,80001334 <fail>
    800012e8:	00120213          	addi	tp,tp,1 # 1 <tohost-0x7fffffff>
    800012ec:	00200293          	li	t0,2
    800012f0:	fc5218e3          	bne	tp,t0,800012c0 <test_17+0x8>

00000000800012f4 <test_18>:
    800012f4:	01200193          	li	gp,18
    800012f8:	00001297          	auipc	t0,0x1
    800012fc:	d2828293          	addi	t0,t0,-728 # 80002020 <begin_signature>
    80001300:	0002e103          	lwu	sp,0(t0)
    80001304:	00200113          	li	sp,2
    80001308:	00200393          	li	t2,2
    8000130c:	02711463          	bne	sp,t2,80001334 <fail>

0000000080001310 <test_19>:
    80001310:	01300193          	li	gp,19
    80001314:	00001297          	auipc	t0,0x1
    80001318:	d0c28293          	addi	t0,t0,-756 # 80002020 <begin_signature>
    8000131c:	0002e103          	lwu	sp,0(t0)
    80001320:	00000013          	nop
    80001324:	00200113          	li	sp,2
    80001328:	00200393          	li	t2,2
    8000132c:	00711463          	bne	sp,t2,80001334 <fail>
    80001330:	02301a63          	bne	zero,gp,80001364 <pass>

0000000080001334 <fail>:
    80001334:	0ff0000f          	fence
    80001338:	00001597          	auipc	a1,0x1
    8000133c:	cc858593          	addi	a1,a1,-824 # 80002000 <hello>
    80001340:	00f00613          	li	a2,15
    80001344:	04000893          	li	a7,64
    80001348:	00000073          	ecall
    8000134c:	00018063          	beqz	gp,8000134c <fail+0x18>
    80001350:	00119193          	slli	gp,gp,0x1
    80001354:	0011e193          	ori	gp,gp,1
    80001358:	05d00893          	li	a7,93
    8000135c:	00018513          	mv	a0,gp
    80001360:	00000073          	ecall

0000000080001364 <pass>:
    80001364:	0ff0000f          	fence
    80001368:	00100513          	li	a0,1
    8000136c:	00001597          	auipc	a1,0x1
    80001370:	c9458593          	addi	a1,a1,-876 # 80002000 <hello>
    80001374:	00f00613          	li	a2,15
    80001378:	04000893          	li	a7,64
    8000137c:	00000073          	ecall
    80001380:	00100193          	li	gp,1
    80001384:	05d00893          	li	a7,93
    80001388:	00000513          	li	a0,0
    8000138c:	00000073          	ecall
    80001390:	c0001073          	unimp
