
rv64um-p-divu:     file format elf64-littleriscv


Disassembly of section .text:

0000000080001000 <test_2>:
    80001000:	00200193          	li	gp,2
    80001004:	01400093          	li	ra,20
    80001008:	00600113          	li	sp,6
    8000100c:	0220d733          	divu	a4,ra,sp
    80001010:	00300393          	li	t2,3
    80001014:	0e771a63          	bne	a4,t2,80001108 <fail>

0000000080001018 <test_3>:
    80001018:	00300193          	li	gp,3
    8000101c:	fec00093          	li	ra,-20
    80001020:	00600113          	li	sp,6
    80001024:	0220d733          	divu	a4,ra,sp
    80001028:	02aab3b7          	lui	t2,0x2aab
    8000102c:	aab3839b          	addiw	t2,t2,-1365 # 2aaaaab <tohost-0x7d555555>
    80001030:	00c39393          	slli	t2,t2,0xc
    80001034:	aab38393          	addi	t2,t2,-1365
    80001038:	00c39393          	slli	t2,t2,0xc
    8000103c:	aab38393          	addi	t2,t2,-1365
    80001040:	00c39393          	slli	t2,t2,0xc
    80001044:	aa738393          	addi	t2,t2,-1369
    80001048:	0c771063          	bne	a4,t2,80001108 <fail>

000000008000104c <test_4>:
    8000104c:	00400193          	li	gp,4
    80001050:	01400093          	li	ra,20
    80001054:	ffa00113          	li	sp,-6
    80001058:	0220d733          	divu	a4,ra,sp
    8000105c:	00000393          	li	t2,0
    80001060:	0a771463          	bne	a4,t2,80001108 <fail>

0000000080001064 <test_5>:
    80001064:	00500193          	li	gp,5
    80001068:	fec00093          	li	ra,-20
    8000106c:	ffa00113          	li	sp,-6
    80001070:	0220d733          	divu	a4,ra,sp
    80001074:	00000393          	li	t2,0
    80001078:	08771863          	bne	a4,t2,80001108 <fail>

000000008000107c <test_6>:
    8000107c:	00600193          	li	gp,6
    80001080:	fff0009b          	addiw	ra,zero,-1
    80001084:	03f09093          	slli	ra,ra,0x3f
    80001088:	00100113          	li	sp,1
    8000108c:	0220d733          	divu	a4,ra,sp
    80001090:	fff0039b          	addiw	t2,zero,-1
    80001094:	03f39393          	slli	t2,t2,0x3f
    80001098:	06771863          	bne	a4,t2,80001108 <fail>

000000008000109c <test_7>:
    8000109c:	00700193          	li	gp,7
    800010a0:	fff0009b          	addiw	ra,zero,-1
    800010a4:	03f09093          	slli	ra,ra,0x3f
    800010a8:	fff00113          	li	sp,-1
    800010ac:	0220d733          	divu	a4,ra,sp
    800010b0:	00000393          	li	t2,0
    800010b4:	04771a63          	bne	a4,t2,80001108 <fail>

00000000800010b8 <test_8>:
    800010b8:	00800193          	li	gp,8
    800010bc:	fff0009b          	addiw	ra,zero,-1
    800010c0:	03f09093          	slli	ra,ra,0x3f
    800010c4:	00000113          	li	sp,0
    800010c8:	0220d733          	divu	a4,ra,sp
    800010cc:	fff00393          	li	t2,-1
    800010d0:	02771c63          	bne	a4,t2,80001108 <fail>

00000000800010d4 <test_9>:
    800010d4:	00900193          	li	gp,9
    800010d8:	00100093          	li	ra,1
    800010dc:	00000113          	li	sp,0
    800010e0:	0220d733          	divu	a4,ra,sp
    800010e4:	fff00393          	li	t2,-1
    800010e8:	02771063          	bne	a4,t2,80001108 <fail>

00000000800010ec <test_10>:
    800010ec:	00a00193          	li	gp,10
    800010f0:	00000093          	li	ra,0
    800010f4:	00000113          	li	sp,0
    800010f8:	0220d733          	divu	a4,ra,sp
    800010fc:	fff00393          	li	t2,-1
    80001100:	00771463          	bne	a4,t2,80001108 <fail>
    80001104:	02301a63          	bne	zero,gp,80001138 <pass>

0000000080001108 <fail>:
    80001108:	0ff0000f          	fence
    8000110c:	00001597          	auipc	a1,0x1
    80001110:	ef458593          	addi	a1,a1,-268 # 80002000 <hello>
    80001114:	00f00613          	li	a2,15
    80001118:	04000893          	li	a7,64
    8000111c:	00000073          	ecall
    80001120:	00018063          	beqz	gp,80001120 <fail+0x18>
    80001124:	00119193          	slli	gp,gp,0x1
    80001128:	0011e193          	ori	gp,gp,1
    8000112c:	05d00893          	li	a7,93
    80001130:	00018513          	mv	a0,gp
    80001134:	00000073          	ecall

0000000080001138 <pass>:
    80001138:	0ff0000f          	fence
    8000113c:	00100513          	li	a0,1
    80001140:	00001597          	auipc	a1,0x1
    80001144:	ec058593          	addi	a1,a1,-320 # 80002000 <hello>
    80001148:	00f00613          	li	a2,15
    8000114c:	04000893          	li	a7,64
    80001150:	00000073          	ecall
    80001154:	00100193          	li	gp,1
    80001158:	05d00893          	li	a7,93
    8000115c:	00000513          	li	a0,0
    80001160:	00000073          	ecall
    80001164:	c0001073          	unimp
