
rv64um-p-mulh:     file format elf64-littleriscv


Disassembly of section .text:

0000000080001000 <test_2>:
    80001000:	00200193          	li	gp,2
    80001004:	00000093          	li	ra,0
    80001008:	00000113          	li	sp,0
    8000100c:	02209733          	mulh	a4,ra,sp
    80001010:	00000393          	li	t2,0
    80001014:	46771063          	bne	a4,t2,80001474 <fail>

0000000080001018 <test_3>:
    80001018:	00300193          	li	gp,3
    8000101c:	00100093          	li	ra,1
    80001020:	00100113          	li	sp,1
    80001024:	02209733          	mulh	a4,ra,sp
    80001028:	00000393          	li	t2,0
    8000102c:	44771463          	bne	a4,t2,80001474 <fail>

0000000080001030 <test_4>:
    80001030:	00400193          	li	gp,4
    80001034:	00300093          	li	ra,3
    80001038:	00700113          	li	sp,7
    8000103c:	02209733          	mulh	a4,ra,sp
    80001040:	00000393          	li	t2,0
    80001044:	42771863          	bne	a4,t2,80001474 <fail>

0000000080001048 <test_5>:
    80001048:	00500193          	li	gp,5
    8000104c:	00000093          	li	ra,0
    80001050:	ffff8137          	lui	sp,0xffff8
    80001054:	02209733          	mulh	a4,ra,sp
    80001058:	00000393          	li	t2,0
    8000105c:	40771c63          	bne	a4,t2,80001474 <fail>

0000000080001060 <test_6>:
    80001060:	00600193          	li	gp,6
    80001064:	800000b7          	lui	ra,0x80000
    80001068:	00000113          	li	sp,0
    8000106c:	02209733          	mulh	a4,ra,sp
    80001070:	00000393          	li	t2,0
    80001074:	40771063          	bne	a4,t2,80001474 <fail>

0000000080001078 <test_7>:
    80001078:	00700193          	li	gp,7
    8000107c:	800000b7          	lui	ra,0x80000
    80001080:	ffff8137          	lui	sp,0xffff8
    80001084:	02209733          	mulh	a4,ra,sp
    80001088:	00000393          	li	t2,0
    8000108c:	3e771463          	bne	a4,t2,80001474 <fail>

0000000080001090 <test_8>:
    80001090:	00800193          	li	gp,8
    80001094:	00d0009b          	addiw	ra,zero,13
    80001098:	02009093          	slli	ra,ra,0x20
    8000109c:	00b0011b          	addiw	sp,zero,11
    800010a0:	02011113          	slli	sp,sp,0x20
    800010a4:	022090b3          	mulh	ra,ra,sp
    800010a8:	08f00393          	li	t2,143
    800010ac:	3c709463          	bne	ra,t2,80001474 <fail>

00000000800010b0 <test_9>:
    800010b0:	00900193          	li	gp,9
    800010b4:	0070009b          	addiw	ra,zero,7
    800010b8:	02109093          	slli	ra,ra,0x21
    800010bc:	00b0011b          	addiw	sp,zero,11
    800010c0:	02011113          	slli	sp,sp,0x20
    800010c4:	02209133          	mulh	sp,ra,sp
    800010c8:	09a00393          	li	t2,154
    800010cc:	3a711463          	bne	sp,t2,80001474 <fail>

00000000800010d0 <test_10>:
    800010d0:	00a00193          	li	gp,10
    800010d4:	00d0009b          	addiw	ra,zero,13
    800010d8:	02009093          	slli	ra,ra,0x20
    800010dc:	021090b3          	mulh	ra,ra,ra
    800010e0:	0a900393          	li	t2,169
    800010e4:	38709863          	bne	ra,t2,80001474 <fail>

00000000800010e8 <test_11>:
    800010e8:	00b00193          	li	gp,11
    800010ec:	00000213          	li	tp,0
    800010f0:	00d0009b          	addiw	ra,zero,13
    800010f4:	02009093          	slli	ra,ra,0x20
    800010f8:	00b0011b          	addiw	sp,zero,11
    800010fc:	02011113          	slli	sp,sp,0x20
    80001100:	02209733          	mulh	a4,ra,sp
    80001104:	00070313          	mv	t1,a4
    80001108:	00120213          	addi	tp,tp,1 # 1 <tohost-0x7fffffff>
    8000110c:	00200293          	li	t0,2
    80001110:	fe5210e3          	bne	tp,t0,800010f0 <test_11+0x8>
    80001114:	08f00393          	li	t2,143
    80001118:	34731e63          	bne	t1,t2,80001474 <fail>

000000008000111c <test_12>:
    8000111c:	00c00193          	li	gp,12
    80001120:	00000213          	li	tp,0
    80001124:	0070009b          	addiw	ra,zero,7
    80001128:	02109093          	slli	ra,ra,0x21
    8000112c:	00b0011b          	addiw	sp,zero,11
    80001130:	02011113          	slli	sp,sp,0x20
    80001134:	02209733          	mulh	a4,ra,sp
    80001138:	00000013          	nop
    8000113c:	00070313          	mv	t1,a4
    80001140:	00120213          	addi	tp,tp,1 # 1 <tohost-0x7fffffff>
    80001144:	00200293          	li	t0,2
    80001148:	fc521ee3          	bne	tp,t0,80001124 <test_12+0x8>
    8000114c:	09a00393          	li	t2,154
    80001150:	32731263          	bne	t1,t2,80001474 <fail>

0000000080001154 <test_13>:
    80001154:	00d00193          	li	gp,13
    80001158:	00000213          	li	tp,0
    8000115c:	00f0009b          	addiw	ra,zero,15
    80001160:	02009093          	slli	ra,ra,0x20
    80001164:	00b0011b          	addiw	sp,zero,11
    80001168:	02011113          	slli	sp,sp,0x20
    8000116c:	02209733          	mulh	a4,ra,sp
    80001170:	00000013          	nop
    80001174:	00000013          	nop
    80001178:	00070313          	mv	t1,a4
    8000117c:	00120213          	addi	tp,tp,1 # 1 <tohost-0x7fffffff>
    80001180:	00200293          	li	t0,2
    80001184:	fc521ce3          	bne	tp,t0,8000115c <test_13+0x8>
    80001188:	0a500393          	li	t2,165
    8000118c:	2e731463          	bne	t1,t2,80001474 <fail>

0000000080001190 <test_14>:
    80001190:	00e00193          	li	gp,14
    80001194:	00000213          	li	tp,0
    80001198:	00d0009b          	addiw	ra,zero,13
    8000119c:	02009093          	slli	ra,ra,0x20
    800011a0:	00b0011b          	addiw	sp,zero,11
    800011a4:	02011113          	slli	sp,sp,0x20
    800011a8:	02209733          	mulh	a4,ra,sp
    800011ac:	00120213          	addi	tp,tp,1 # 1 <tohost-0x7fffffff>
    800011b0:	00200293          	li	t0,2
    800011b4:	fe5212e3          	bne	tp,t0,80001198 <test_14+0x8>
    800011b8:	08f00393          	li	t2,143
    800011bc:	2a771c63          	bne	a4,t2,80001474 <fail>

00000000800011c0 <test_15>:
    800011c0:	00f00193          	li	gp,15
    800011c4:	00000213          	li	tp,0
    800011c8:	0070009b          	addiw	ra,zero,7
    800011cc:	02109093          	slli	ra,ra,0x21
    800011d0:	00b0011b          	addiw	sp,zero,11
    800011d4:	02011113          	slli	sp,sp,0x20
    800011d8:	00000013          	nop
    800011dc:	02209733          	mulh	a4,ra,sp
    800011e0:	00120213          	addi	tp,tp,1 # 1 <tohost-0x7fffffff>
    800011e4:	00200293          	li	t0,2
    800011e8:	fe5210e3          	bne	tp,t0,800011c8 <test_15+0x8>
    800011ec:	09a00393          	li	t2,154
    800011f0:	28771263          	bne	a4,t2,80001474 <fail>

00000000800011f4 <test_16>:
    800011f4:	01000193          	li	gp,16
    800011f8:	00000213          	li	tp,0
    800011fc:	00f0009b          	addiw	ra,zero,15
    80001200:	02009093          	slli	ra,ra,0x20
    80001204:	00b0011b          	addiw	sp,zero,11
    80001208:	02011113          	slli	sp,sp,0x20
    8000120c:	00000013          	nop
    80001210:	00000013          	nop
    80001214:	02209733          	mulh	a4,ra,sp
    80001218:	00120213          	addi	tp,tp,1 # 1 <tohost-0x7fffffff>
    8000121c:	00200293          	li	t0,2
    80001220:	fc521ee3          	bne	tp,t0,800011fc <test_16+0x8>
    80001224:	0a500393          	li	t2,165
    80001228:	24771663          	bne	a4,t2,80001474 <fail>

000000008000122c <test_17>:
    8000122c:	01100193          	li	gp,17
    80001230:	00000213          	li	tp,0
    80001234:	00d0009b          	addiw	ra,zero,13
    80001238:	02009093          	slli	ra,ra,0x20
    8000123c:	00000013          	nop
    80001240:	00b0011b          	addiw	sp,zero,11
    80001244:	02011113          	slli	sp,sp,0x20
    80001248:	02209733          	mulh	a4,ra,sp
    8000124c:	00120213          	addi	tp,tp,1 # 1 <tohost-0x7fffffff>
    80001250:	00200293          	li	t0,2
    80001254:	fe5210e3          	bne	tp,t0,80001234 <test_17+0x8>
    80001258:	08f00393          	li	t2,143
    8000125c:	20771c63          	bne	a4,t2,80001474 <fail>

0000000080001260 <test_18>:
    80001260:	01200193          	li	gp,18
    80001264:	00000213          	li	tp,0
    80001268:	0070009b          	addiw	ra,zero,7
    8000126c:	02109093          	slli	ra,ra,0x21
    80001270:	00000013          	nop
    80001274:	00b0011b          	addiw	sp,zero,11
    80001278:	02011113          	slli	sp,sp,0x20
    8000127c:	00000013          	nop
    80001280:	02209733          	mulh	a4,ra,sp
    80001284:	00120213          	addi	tp,tp,1 # 1 <tohost-0x7fffffff>
    80001288:	00200293          	li	t0,2
    8000128c:	fc521ee3          	bne	tp,t0,80001268 <test_18+0x8>
    80001290:	09a00393          	li	t2,154
    80001294:	1e771063          	bne	a4,t2,80001474 <fail>

0000000080001298 <test_19>:
    80001298:	01300193          	li	gp,19
    8000129c:	00000213          	li	tp,0
    800012a0:	00f0009b          	addiw	ra,zero,15
    800012a4:	02009093          	slli	ra,ra,0x20
    800012a8:	00000013          	nop
    800012ac:	00000013          	nop
    800012b0:	00b0011b          	addiw	sp,zero,11
    800012b4:	02011113          	slli	sp,sp,0x20
    800012b8:	02209733          	mulh	a4,ra,sp
    800012bc:	00120213          	addi	tp,tp,1 # 1 <tohost-0x7fffffff>
    800012c0:	00200293          	li	t0,2
    800012c4:	fc521ee3          	bne	tp,t0,800012a0 <test_19+0x8>
    800012c8:	0a500393          	li	t2,165
    800012cc:	1a771463          	bne	a4,t2,80001474 <fail>

00000000800012d0 <test_20>:
    800012d0:	01400193          	li	gp,20
    800012d4:	00000213          	li	tp,0
    800012d8:	00b0011b          	addiw	sp,zero,11
    800012dc:	02011113          	slli	sp,sp,0x20
    800012e0:	00d0009b          	addiw	ra,zero,13
    800012e4:	02009093          	slli	ra,ra,0x20
    800012e8:	02209733          	mulh	a4,ra,sp
    800012ec:	00120213          	addi	tp,tp,1 # 1 <tohost-0x7fffffff>
    800012f0:	00200293          	li	t0,2
    800012f4:	fe5212e3          	bne	tp,t0,800012d8 <test_20+0x8>
    800012f8:	08f00393          	li	t2,143
    800012fc:	16771c63          	bne	a4,t2,80001474 <fail>

0000000080001300 <test_21>:
    80001300:	01500193          	li	gp,21
    80001304:	00000213          	li	tp,0
    80001308:	00b0011b          	addiw	sp,zero,11
    8000130c:	02011113          	slli	sp,sp,0x20
    80001310:	0070009b          	addiw	ra,zero,7
    80001314:	02109093          	slli	ra,ra,0x21
    80001318:	00000013          	nop
    8000131c:	02209733          	mulh	a4,ra,sp
    80001320:	00120213          	addi	tp,tp,1 # 1 <tohost-0x7fffffff>
    80001324:	00200293          	li	t0,2
    80001328:	fe5210e3          	bne	tp,t0,80001308 <test_21+0x8>
    8000132c:	09a00393          	li	t2,154
    80001330:	14771263          	bne	a4,t2,80001474 <fail>

0000000080001334 <test_22>:
    80001334:	01600193          	li	gp,22
    80001338:	00000213          	li	tp,0
    8000133c:	00b0011b          	addiw	sp,zero,11
    80001340:	02011113          	slli	sp,sp,0x20
    80001344:	00f0009b          	addiw	ra,zero,15
    80001348:	02009093          	slli	ra,ra,0x20
    8000134c:	00000013          	nop
    80001350:	00000013          	nop
    80001354:	02209733          	mulh	a4,ra,sp
    80001358:	00120213          	addi	tp,tp,1 # 1 <tohost-0x7fffffff>
    8000135c:	00200293          	li	t0,2
    80001360:	fc521ee3          	bne	tp,t0,8000133c <test_22+0x8>
    80001364:	0a500393          	li	t2,165
    80001368:	10771663          	bne	a4,t2,80001474 <fail>

000000008000136c <test_23>:
    8000136c:	01700193          	li	gp,23
    80001370:	00000213          	li	tp,0
    80001374:	00b0011b          	addiw	sp,zero,11
    80001378:	02011113          	slli	sp,sp,0x20
    8000137c:	00000013          	nop
    80001380:	00d0009b          	addiw	ra,zero,13
    80001384:	02009093          	slli	ra,ra,0x20
    80001388:	02209733          	mulh	a4,ra,sp
    8000138c:	00120213          	addi	tp,tp,1 # 1 <tohost-0x7fffffff>
    80001390:	00200293          	li	t0,2
    80001394:	fe5210e3          	bne	tp,t0,80001374 <test_23+0x8>
    80001398:	08f00393          	li	t2,143
    8000139c:	0c771c63          	bne	a4,t2,80001474 <fail>

00000000800013a0 <test_24>:
    800013a0:	01800193          	li	gp,24
    800013a4:	00000213          	li	tp,0
    800013a8:	00b0011b          	addiw	sp,zero,11
    800013ac:	02011113          	slli	sp,sp,0x20
    800013b0:	00000013          	nop
    800013b4:	0070009b          	addiw	ra,zero,7
    800013b8:	02109093          	slli	ra,ra,0x21
    800013bc:	00000013          	nop
    800013c0:	02209733          	mulh	a4,ra,sp
    800013c4:	00120213          	addi	tp,tp,1 # 1 <tohost-0x7fffffff>
    800013c8:	00200293          	li	t0,2
    800013cc:	fc521ee3          	bne	tp,t0,800013a8 <test_24+0x8>
    800013d0:	09a00393          	li	t2,154
    800013d4:	0a771063          	bne	a4,t2,80001474 <fail>

00000000800013d8 <test_25>:
    800013d8:	01900193          	li	gp,25
    800013dc:	00000213          	li	tp,0
    800013e0:	00b0011b          	addiw	sp,zero,11
    800013e4:	02011113          	slli	sp,sp,0x20
    800013e8:	00000013          	nop
    800013ec:	00000013          	nop
    800013f0:	00f0009b          	addiw	ra,zero,15
    800013f4:	02009093          	slli	ra,ra,0x20
    800013f8:	02209733          	mulh	a4,ra,sp
    800013fc:	00120213          	addi	tp,tp,1 # 1 <tohost-0x7fffffff>
    80001400:	00200293          	li	t0,2
    80001404:	fc521ee3          	bne	tp,t0,800013e0 <test_25+0x8>
    80001408:	0a500393          	li	t2,165
    8000140c:	06771463          	bne	a4,t2,80001474 <fail>

0000000080001410 <test_26>:
    80001410:	01a00193          	li	gp,26
    80001414:	01f0009b          	addiw	ra,zero,31
    80001418:	02009093          	slli	ra,ra,0x20
    8000141c:	02101133          	mulh	sp,zero,ra
    80001420:	00000393          	li	t2,0
    80001424:	04711863          	bne	sp,t2,80001474 <fail>

0000000080001428 <test_27>:
    80001428:	01b00193          	li	gp,27
    8000142c:	0010009b          	addiw	ra,zero,1
    80001430:	02509093          	slli	ra,ra,0x25
    80001434:	02009133          	mulh	sp,ra,zero
    80001438:	00000393          	li	t2,0
    8000143c:	02711c63          	bne	sp,t2,80001474 <fail>

0000000080001440 <test_28>:
    80001440:	01c00193          	li	gp,28
    80001444:	020010b3          	mulh	ra,zero,zero
    80001448:	00000393          	li	t2,0
    8000144c:	02709463          	bne	ra,t2,80001474 <fail>

0000000080001450 <test_29>:
    80001450:	01d00193          	li	gp,29
    80001454:	0210009b          	addiw	ra,zero,33
    80001458:	02009093          	slli	ra,ra,0x20
    8000145c:	0110011b          	addiw	sp,zero,17
    80001460:	02111113          	slli	sp,sp,0x21
    80001464:	02209033          	mulh	zero,ra,sp
    80001468:	00000393          	li	t2,0
    8000146c:	00701463          	bne	zero,t2,80001474 <fail>
    80001470:	02301a63          	bne	zero,gp,800014a4 <pass>

0000000080001474 <fail>:
    80001474:	0ff0000f          	fence
    80001478:	00001597          	auipc	a1,0x1
    8000147c:	b8858593          	addi	a1,a1,-1144 # 80002000 <hello>
    80001480:	00f00613          	li	a2,15
    80001484:	04000893          	li	a7,64
    80001488:	00000073          	ecall
    8000148c:	00018063          	beqz	gp,8000148c <fail+0x18>
    80001490:	00119193          	slli	gp,gp,0x1
    80001494:	0011e193          	ori	gp,gp,1
    80001498:	05d00893          	li	a7,93
    8000149c:	00018513          	mv	a0,gp
    800014a0:	00000073          	ecall

00000000800014a4 <pass>:
    800014a4:	0ff0000f          	fence
    800014a8:	00100513          	li	a0,1
    800014ac:	00001597          	auipc	a1,0x1
    800014b0:	b5458593          	addi	a1,a1,-1196 # 80002000 <hello>
    800014b4:	00f00613          	li	a2,15
    800014b8:	04000893          	li	a7,64
    800014bc:	00000073          	ecall
    800014c0:	00100193          	li	gp,1
    800014c4:	05d00893          	li	a7,93
    800014c8:	00000513          	li	a0,0
    800014cc:	00000073          	ecall
    800014d0:	c0001073          	unimp
