
rv64mi-p-ma_addr:     file format elf64-littleriscv


Disassembly of section .text:

0000000080001000 <fail-0x4e0>:
    80001000:	00001417          	auipc	s0,0x1
    80001004:	02040413          	addi	s0,s0,32 # 80002020 <begin_signature>
    80001008:	00400493          	li	s1,4
    8000100c:	00200193          	li	gp,2
    80001010:	00000397          	auipc	t2,0x0
    80001014:	01c38393          	addi	t2,t2,28 # 8000102c <fromhost+0xfec>
    80001018:	00140313          	addi	t1,s0,1
    8000101c:	00141303          	lh	t1,1(s0)
    80001020:	ffffc3b7          	lui	t2,0xffffc
    80001024:	bcc3839b          	addiw	t2,t2,-1076 # ffffffffffffbbcc <_end+0xffffffff7fff9a9c>
    80001028:	4a731c63          	bne	t1,t2,800014e0 <fail>
    8000102c:	00300193          	li	gp,3
    80001030:	00000397          	auipc	t2,0x0
    80001034:	01c38393          	addi	t2,t2,28 # 8000104c <fromhost+0x100c>
    80001038:	00140313          	addi	t1,s0,1
    8000103c:	00145303          	lhu	t1,1(s0)
    80001040:	0000c3b7          	lui	t2,0xc
    80001044:	bcc3839b          	addiw	t2,t2,-1076 # bbcc <tohost-0x7fff4434>
    80001048:	48731c63          	bne	t1,t2,800014e0 <fail>
    8000104c:	00400193          	li	gp,4
    80001050:	00000397          	auipc	t2,0x0
    80001054:	01c38393          	addi	t2,t2,28 # 8000106c <fromhost+0x102c>
    80001058:	00140313          	addi	t1,s0,1
    8000105c:	00142303          	lw	t1,1(s0)
    80001060:	99aac3b7          	lui	t2,0x99aac
    80001064:	bcc3839b          	addiw	t2,t2,-1076 # ffffffff99aabbcc <_end+0xffffffff19aa9a9c>
    80001068:	46731c63          	bne	t1,t2,800014e0 <fail>
    8000106c:	00500193          	li	gp,5
    80001070:	00000397          	auipc	t2,0x0
    80001074:	01c38393          	addi	t2,t2,28 # 8000108c <fromhost+0x104c>
    80001078:	00240313          	addi	t1,s0,2
    8000107c:	00242303          	lw	t1,2(s0)
    80001080:	8899b3b7          	lui	t2,0x8899b
    80001084:	abb3839b          	addiw	t2,t2,-1349 # ffffffff8899aabb <_end+0xffffffff0899898b>
    80001088:	44731c63          	bne	t1,t2,800014e0 <fail>
    8000108c:	00600193          	li	gp,6
    80001090:	00000397          	auipc	t2,0x0
    80001094:	01c38393          	addi	t2,t2,28 # 800010ac <fromhost+0x106c>
    80001098:	00340313          	addi	t1,s0,3
    8000109c:	00342303          	lw	t1,3(s0)
    800010a0:	7788a3b7          	lui	t2,0x7788a
    800010a4:	9aa3839b          	addiw	t2,t2,-1622 # 778899aa <tohost-0x8776656>
    800010a8:	42731c63          	bne	t1,t2,800014e0 <fail>
    800010ac:	00700193          	li	gp,7
    800010b0:	00000397          	auipc	t2,0x0
    800010b4:	02438393          	addi	t2,t2,36 # 800010d4 <fromhost+0x1094>
    800010b8:	00140313          	addi	t1,s0,1
    800010bc:	00146303          	lwu	t1,1(s0)
    800010c0:	000263b7          	lui	t2,0x26
    800010c4:	6ab3839b          	addiw	t2,t2,1707 # 266ab <tohost-0x7ffd9955>
    800010c8:	00e39393          	slli	t2,t2,0xe
    800010cc:	bcc38393          	addi	t2,t2,-1076
    800010d0:	40731863          	bne	t1,t2,800014e0 <fail>
    800010d4:	00800193          	li	gp,8
    800010d8:	00000397          	auipc	t2,0x0
    800010dc:	02438393          	addi	t2,t2,36 # 800010fc <fromhost+0x10bc>
    800010e0:	00240313          	addi	t1,s0,2
    800010e4:	00246303          	lwu	t1,2(s0)
    800010e8:	000893b7          	lui	t2,0x89
    800010ec:	99b3839b          	addiw	t2,t2,-1637 # 8899b <tohost-0x7ff77665>
    800010f0:	00c39393          	slli	t2,t2,0xc
    800010f4:	abb38393          	addi	t2,t2,-1349
    800010f8:	3e731463          	bne	t1,t2,800014e0 <fail>
    800010fc:	00900193          	li	gp,9
    80001100:	00000397          	auipc	t2,0x0
    80001104:	01c38393          	addi	t2,t2,28 # 8000111c <fromhost+0x10dc>
    80001108:	00340313          	addi	t1,s0,3
    8000110c:	00346303          	lwu	t1,3(s0)
    80001110:	7788a3b7          	lui	t2,0x7788a
    80001114:	9aa3839b          	addiw	t2,t2,-1622 # 778899aa <tohost-0x8776656>
    80001118:	3c731463          	bne	t1,t2,800014e0 <fail>
    8000111c:	00a00193          	li	gp,10
    80001120:	00000397          	auipc	t2,0x0
    80001124:	03438393          	addi	t2,t2,52 # 80001154 <fromhost+0x1114>
    80001128:	00140313          	addi	t1,s0,1
    8000112c:	00143303          	ld	t1,1(s0)
    80001130:	00aad3b7          	lui	t2,0xaad
    80001134:	cef3839b          	addiw	t2,t2,-785 # aaccef <tohost-0x7f553311>
    80001138:	00c39393          	slli	t2,t2,0xc
    8000113c:	11338393          	addi	t2,t2,275
    80001140:	00d39393          	slli	t2,t2,0xd
    80001144:	6ab38393          	addi	t2,t2,1707
    80001148:	00e39393          	slli	t2,t2,0xe
    8000114c:	bcc38393          	addi	t2,t2,-1076
    80001150:	38731863          	bne	t1,t2,800014e0 <fail>
    80001154:	00b00193          	li	gp,11
    80001158:	00000397          	auipc	t2,0x0
    8000115c:	03438393          	addi	t2,t2,52 # 8000118c <fromhost+0x114c>
    80001160:	00240313          	addi	t1,s0,2
    80001164:	00243303          	ld	t1,2(s0)
    80001168:	044553b7          	lui	t2,0x4455
    8000116c:	6673839b          	addiw	t2,t2,1639 # 4455667 <tohost-0x7bbaa999>
    80001170:	00c39393          	slli	t2,t2,0xc
    80001174:	78938393          	addi	t2,t2,1929
    80001178:	00c39393          	slli	t2,t2,0xc
    8000117c:	99b38393          	addi	t2,t2,-1637
    80001180:	00c39393          	slli	t2,t2,0xc
    80001184:	abb38393          	addi	t2,t2,-1349
    80001188:	34731c63          	bne	t1,t2,800014e0 <fail>
    8000118c:	00c00193          	li	gp,12
    80001190:	00000397          	auipc	t2,0x0
    80001194:	03438393          	addi	t2,t2,52 # 800011c4 <fromhost+0x1184>
    80001198:	00340313          	addi	t1,s0,3
    8000119c:	00343303          	ld	t1,3(s0)
    800011a0:	006693b7          	lui	t2,0x669
    800011a4:	8ab3839b          	addiw	t2,t2,-1877 # 6688ab <tohost-0x7f997755>
    800011a8:	00c39393          	slli	t2,t2,0xc
    800011ac:	ccf38393          	addi	t2,t2,-817
    800011b0:	00e39393          	slli	t2,t2,0xe
    800011b4:	c4538393          	addi	t2,t2,-955
    800011b8:	00d39393          	slli	t2,t2,0xd
    800011bc:	9aa38393          	addi	t2,t2,-1622
    800011c0:	32731063          	bne	t1,t2,800014e0 <fail>
    800011c4:	00d00193          	li	gp,13
    800011c8:	00000397          	auipc	t2,0x0
    800011cc:	03438393          	addi	t2,t2,52 # 800011fc <fromhost+0x11bc>
    800011d0:	00440313          	addi	t1,s0,4
    800011d4:	00443303          	ld	t1,4(s0)
    800011d8:	0111a3b7          	lui	t2,0x111a
    800011dc:	a233839b          	addiw	t2,t2,-1501 # 1119a23 <tohost-0x7eee65dd>
    800011e0:	00c39393          	slli	t2,t2,0xc
    800011e4:	ab338393          	addi	t2,t2,-1357
    800011e8:	00d39393          	slli	t2,t2,0xd
    800011ec:	77938393          	addi	t2,t2,1913
    800011f0:	00c39393          	slli	t2,t2,0xc
    800011f4:	89938393          	addi	t2,t2,-1895
    800011f8:	2e731463          	bne	t1,t2,800014e0 <fail>
    800011fc:	00e00193          	li	gp,14
    80001200:	00000397          	auipc	t2,0x0
    80001204:	03438393          	addi	t2,t2,52 # 80001234 <fromhost+0x11f4>
    80001208:	00540313          	addi	t1,s0,5
    8000120c:	00543303          	ld	t1,5(s0)
    80001210:	004493b7          	lui	t2,0x449
    80001214:	8cd3839b          	addiw	t2,t2,-1843 # 4488cd <tohost-0x7fbb7733>
    80001218:	00e39393          	slli	t2,t2,0xe
    8000121c:	45538393          	addi	t2,t2,1109
    80001220:	00c39393          	slli	t2,t2,0xc
    80001224:	66738393          	addi	t2,t2,1639
    80001228:	00c39393          	slli	t2,t2,0xc
    8000122c:	78838393          	addi	t2,t2,1928
    80001230:	2a731863          	bne	t1,t2,800014e0 <fail>
    80001234:	00f00193          	li	gp,15
    80001238:	00000397          	auipc	t2,0x0
    8000123c:	03438393          	addi	t2,t2,52 # 8000126c <fromhost+0x122c>
    80001240:	00640313          	addi	t1,s0,6
    80001244:	00643303          	ld	t1,6(s0)
    80001248:	ffb843b7          	lui	t2,0xffb84
    8000124c:	4893839b          	addiw	t2,t2,1161 # ffffffffffb84489 <_end+0xffffffff7fb82359>
    80001250:	00c39393          	slli	t2,t2,0xc
    80001254:	cd138393          	addi	t2,t2,-815
    80001258:	00d39393          	slli	t2,t2,0xd
    8000125c:	2ab38393          	addi	t2,t2,683
    80001260:	00d39393          	slli	t2,t2,0xd
    80001264:	67738393          	addi	t2,t2,1655
    80001268:	26731c63          	bne	t1,t2,800014e0 <fail>
    8000126c:	01000193          	li	gp,16
    80001270:	00000397          	auipc	t2,0x0
    80001274:	02c38393          	addi	t2,t2,44 # 8000129c <fromhost+0x125c>
    80001278:	00740313          	addi	t1,s0,7
    8000127c:	00743303          	ld	t1,7(s0)
    80001280:	ee1123b7          	lui	t2,0xee112
    80001284:	2333839b          	addiw	t2,t2,563 # ffffffffee112233 <_end+0xffffffff6e110103>
    80001288:	00c39393          	slli	t2,t2,0xc
    8000128c:	44538393          	addi	t2,t2,1093
    80001290:	00c39393          	slli	t2,t2,0xc
    80001294:	56638393          	addi	t2,t2,1382
    80001298:	24731463          	bne	t1,t2,800014e0 <fail>
    8000129c:	00600493          	li	s1,6
    800012a0:	01600193          	li	gp,22
    800012a4:	00000397          	auipc	t2,0x0
    800012a8:	03038393          	addi	t2,t2,48 # 800012d4 <fromhost+0x1294>
    800012ac:	00140313          	addi	t1,s0,1
    800012b0:	000410a3          	sh	zero,1(s0)
    800012b4:	00040303          	lb	t1,0(s0)
    800012b8:	22030463          	beqz	t1,800014e0 <fail>
    800012bc:	00340303          	lb	t1,3(s0)
    800012c0:	22030063          	beqz	t1,800014e0 <fail>
    800012c4:	00140303          	lb	t1,1(s0)
    800012c8:	20031c63          	bnez	t1,800014e0 <fail>
    800012cc:	00240303          	lb	t1,2(s0)
    800012d0:	20031863          	bnez	t1,800014e0 <fail>
    800012d4:	01700193          	li	gp,23
    800012d8:	00000397          	auipc	t2,0x0
    800012dc:	03038393          	addi	t2,t2,48 # 80001308 <fromhost+0x12c8>
    800012e0:	00540313          	addi	t1,s0,5
    800012e4:	000422a3          	sw	zero,5(s0)
    800012e8:	00440303          	lb	t1,4(s0)
    800012ec:	1e030a63          	beqz	t1,800014e0 <fail>
    800012f0:	00940303          	lb	t1,9(s0)
    800012f4:	1e030663          	beqz	t1,800014e0 <fail>
    800012f8:	00540303          	lb	t1,5(s0)
    800012fc:	1e031263          	bnez	t1,800014e0 <fail>
    80001300:	00840303          	lb	t1,8(s0)
    80001304:	1c031e63          	bnez	t1,800014e0 <fail>
    80001308:	01800193          	li	gp,24
    8000130c:	00000397          	auipc	t2,0x0
    80001310:	03038393          	addi	t2,t2,48 # 8000133c <fromhost+0x12fc>
    80001314:	00a40313          	addi	t1,s0,10
    80001318:	00042523          	sw	zero,10(s0)
    8000131c:	00940303          	lb	t1,9(s0)
    80001320:	1c030063          	beqz	t1,800014e0 <fail>
    80001324:	00e40303          	lb	t1,14(s0)
    80001328:	1a030c63          	beqz	t1,800014e0 <fail>
    8000132c:	00a40303          	lb	t1,10(s0)
    80001330:	1a031863          	bnez	t1,800014e0 <fail>
    80001334:	00d40303          	lb	t1,13(s0)
    80001338:	1a031463          	bnez	t1,800014e0 <fail>
    8000133c:	01900193          	li	gp,25
    80001340:	00000397          	auipc	t2,0x0
    80001344:	03038393          	addi	t2,t2,48 # 80001370 <fromhost+0x1330>
    80001348:	00f40313          	addi	t1,s0,15
    8000134c:	000427a3          	sw	zero,15(s0)
    80001350:	00e40303          	lb	t1,14(s0)
    80001354:	18030663          	beqz	t1,800014e0 <fail>
    80001358:	01340303          	lb	t1,19(s0)
    8000135c:	18030263          	beqz	t1,800014e0 <fail>
    80001360:	00f40303          	lb	t1,15(s0)
    80001364:	16031e63          	bnez	t1,800014e0 <fail>
    80001368:	01240303          	lb	t1,18(s0)
    8000136c:	16031a63          	bnez	t1,800014e0 <fail>
    80001370:	01a00193          	li	gp,26
    80001374:	00000397          	auipc	t2,0x0
    80001378:	03038393          	addi	t2,t2,48 # 800013a4 <fromhost+0x1364>
    8000137c:	01940313          	addi	t1,s0,25
    80001380:	00043ca3          	sd	zero,25(s0)
    80001384:	01840303          	lb	t1,24(s0)
    80001388:	14030c63          	beqz	t1,800014e0 <fail>
    8000138c:	02140303          	lb	t1,33(s0)
    80001390:	14030863          	beqz	t1,800014e0 <fail>
    80001394:	01940303          	lb	t1,25(s0)
    80001398:	14031463          	bnez	t1,800014e0 <fail>
    8000139c:	02040303          	lb	t1,32(s0)
    800013a0:	14031063          	bnez	t1,800014e0 <fail>
    800013a4:	01b00193          	li	gp,27
    800013a8:	00000397          	auipc	t2,0x0
    800013ac:	03038393          	addi	t2,t2,48 # 800013d8 <fromhost+0x1398>
    800013b0:	02240313          	addi	t1,s0,34
    800013b4:	02043123          	sd	zero,34(s0)
    800013b8:	02140303          	lb	t1,33(s0)
    800013bc:	12030263          	beqz	t1,800014e0 <fail>
    800013c0:	02a40303          	lb	t1,42(s0)
    800013c4:	10030e63          	beqz	t1,800014e0 <fail>
    800013c8:	02240303          	lb	t1,34(s0)
    800013cc:	10031a63          	bnez	t1,800014e0 <fail>
    800013d0:	02940303          	lb	t1,41(s0)
    800013d4:	10031663          	bnez	t1,800014e0 <fail>
    800013d8:	01c00193          	li	gp,28
    800013dc:	00000397          	auipc	t2,0x0
    800013e0:	03038393          	addi	t2,t2,48 # 8000140c <fromhost+0x13cc>
    800013e4:	02b40313          	addi	t1,s0,43
    800013e8:	020435a3          	sd	zero,43(s0)
    800013ec:	02a40303          	lb	t1,42(s0)
    800013f0:	0e030863          	beqz	t1,800014e0 <fail>
    800013f4:	03340303          	lb	t1,51(s0)
    800013f8:	0e030463          	beqz	t1,800014e0 <fail>
    800013fc:	02b40303          	lb	t1,43(s0)
    80001400:	0e031063          	bnez	t1,800014e0 <fail>
    80001404:	03240303          	lb	t1,50(s0)
    80001408:	0c031c63          	bnez	t1,800014e0 <fail>
    8000140c:	01d00193          	li	gp,29
    80001410:	00000397          	auipc	t2,0x0
    80001414:	03038393          	addi	t2,t2,48 # 80001440 <fromhost+0x1400>
    80001418:	03440313          	addi	t1,s0,52
    8000141c:	02043a23          	sd	zero,52(s0)
    80001420:	03340303          	lb	t1,51(s0)
    80001424:	0a030e63          	beqz	t1,800014e0 <fail>
    80001428:	03c40303          	lb	t1,60(s0)
    8000142c:	0a030a63          	beqz	t1,800014e0 <fail>
    80001430:	03440303          	lb	t1,52(s0)
    80001434:	0a031663          	bnez	t1,800014e0 <fail>
    80001438:	03b40303          	lb	t1,59(s0)
    8000143c:	0a031263          	bnez	t1,800014e0 <fail>
    80001440:	01e00193          	li	gp,30
    80001444:	00000397          	auipc	t2,0x0
    80001448:	03038393          	addi	t2,t2,48 # 80001474 <fromhost+0x1434>
    8000144c:	03d40313          	addi	t1,s0,61
    80001450:	02043ea3          	sd	zero,61(s0)
    80001454:	03c40303          	lb	t1,60(s0)
    80001458:	08030463          	beqz	t1,800014e0 <fail>
    8000145c:	04540303          	lb	t1,69(s0)
    80001460:	08030063          	beqz	t1,800014e0 <fail>
    80001464:	03d40303          	lb	t1,61(s0)
    80001468:	06031c63          	bnez	t1,800014e0 <fail>
    8000146c:	04440303          	lb	t1,68(s0)
    80001470:	06031863          	bnez	t1,800014e0 <fail>
    80001474:	01f00193          	li	gp,31
    80001478:	00000397          	auipc	t2,0x0
    8000147c:	03038393          	addi	t2,t2,48 # 800014a8 <fromhost+0x1468>
    80001480:	04640313          	addi	t1,s0,70
    80001484:	04043323          	sd	zero,70(s0)
    80001488:	04540303          	lb	t1,69(s0)
    8000148c:	04030a63          	beqz	t1,800014e0 <fail>
    80001490:	04e40303          	lb	t1,78(s0)
    80001494:	04030663          	beqz	t1,800014e0 <fail>
    80001498:	04640303          	lb	t1,70(s0)
    8000149c:	04031263          	bnez	t1,800014e0 <fail>
    800014a0:	04d40303          	lb	t1,77(s0)
    800014a4:	02031e63          	bnez	t1,800014e0 <fail>
    800014a8:	02000193          	li	gp,32
    800014ac:	00000397          	auipc	t2,0x0
    800014b0:	03038393          	addi	t2,t2,48 # 800014dc <fromhost+0x149c>
    800014b4:	04f40313          	addi	t1,s0,79
    800014b8:	040437a3          	sd	zero,79(s0)
    800014bc:	04e40303          	lb	t1,78(s0)
    800014c0:	02030063          	beqz	t1,800014e0 <fail>
    800014c4:	05740303          	lb	t1,87(s0)
    800014c8:	00030c63          	beqz	t1,800014e0 <fail>
    800014cc:	04f40303          	lb	t1,79(s0)
    800014d0:	00031863          	bnez	t1,800014e0 <fail>
    800014d4:	05640303          	lb	t1,86(s0)
    800014d8:	00031463          	bnez	t1,800014e0 <fail>
    800014dc:	02301a63          	bne	zero,gp,80001510 <pass>

00000000800014e0 <fail>:
    800014e0:	0ff0000f          	fence
    800014e4:	00001597          	auipc	a1,0x1
    800014e8:	b1c58593          	addi	a1,a1,-1252 # 80002000 <hello>
    800014ec:	00f00613          	li	a2,15
    800014f0:	04000893          	li	a7,64
    800014f4:	00000073          	ecall
    800014f8:	00018063          	beqz	gp,800014f8 <fail+0x18>
    800014fc:	00119193          	slli	gp,gp,0x1
    80001500:	0011e193          	ori	gp,gp,1
    80001504:	05d00893          	li	a7,93
    80001508:	00018513          	mv	a0,gp
    8000150c:	00000073          	ecall

0000000080001510 <pass>:
    80001510:	0ff0000f          	fence
    80001514:	00100513          	li	a0,1
    80001518:	00001597          	auipc	a1,0x1
    8000151c:	ae858593          	addi	a1,a1,-1304 # 80002000 <hello>
    80001520:	00f00613          	li	a2,15
    80001524:	04000893          	li	a7,64
    80001528:	00000073          	ecall
    8000152c:	00100193          	li	gp,1
    80001530:	05d00893          	li	a7,93
    80001534:	00000513          	li	a0,0
    80001538:	00000073          	ecall
    8000153c:	00000013          	nop

0000000080001540 <mtvec_handler>:
    80001540:	342022f3          	csrr	t0,mcause
    80001544:	f8929ee3          	bne	t0,s1,800014e0 <fail>
    80001548:	343022f3          	csrr	t0,mtval
    8000154c:	00028863          	beqz	t0,8000155c <mtvec_handler+0x1c>
    80001550:	f86298e3          	bne	t0,t1,800014e0 <fail>
    80001554:	00028283          	lb	t0,0(t0)
    80001558:	f80284e3          	beqz	t0,800014e0 <fail>
    8000155c:	34139073          	csrw	mepc,t2
    80001560:	30200073          	mret
    80001564:	c0001073          	unimp
