
rv64ua-p-amoand_d:     file format elf64-littleriscv


Disassembly of section .text:

0000000080001000 <test_2>:
    80001000:	00200193          	li	gp,2
    80001004:	80000537          	lui	a0,0x80000
    80001008:	80000593          	li	a1,-2048
    8000100c:	00001697          	auipc	a3,0x1
    80001010:	01468693          	addi	a3,a3,20 # 80002020 <begin_signature>
    80001014:	00a6b023          	sd	a0,0(a3)
    80001018:	60b6b72f          	amoand.d	a4,a1,(a3)
    8000101c:	800003b7          	lui	t2,0x80000
    80001020:	04771263          	bne	a4,t2,80001064 <fail>

0000000080001024 <test_3>:
    80001024:	00300193          	li	gp,3
    80001028:	0006b783          	ld	a5,0(a3)
    8000102c:	800003b7          	lui	t2,0x80000
    80001030:	02779a63          	bne	a5,t2,80001064 <fail>

0000000080001034 <test_4>:
    80001034:	00400193          	li	gp,4
    80001038:	0010059b          	addiw	a1,zero,1
    8000103c:	01f59593          	slli	a1,a1,0x1f
    80001040:	60b6b72f          	amoand.d	a4,a1,(a3)
    80001044:	800003b7          	lui	t2,0x80000
    80001048:	00771e63          	bne	a4,t2,80001064 <fail>

000000008000104c <test_5>:
    8000104c:	00500193          	li	gp,5
    80001050:	0006b783          	ld	a5,0(a3)
    80001054:	0010039b          	addiw	t2,zero,1
    80001058:	01f39393          	slli	t2,t2,0x1f
    8000105c:	00779463          	bne	a5,t2,80001064 <fail>
    80001060:	02301a63          	bne	zero,gp,80001094 <pass>

0000000080001064 <fail>:
    80001064:	0ff0000f          	fence
    80001068:	00001597          	auipc	a1,0x1
    8000106c:	f9858593          	addi	a1,a1,-104 # 80002000 <hello>
    80001070:	00f00613          	li	a2,15
    80001074:	04000893          	li	a7,64
    80001078:	00000073          	ecall
    8000107c:	00018063          	beqz	gp,8000107c <fail+0x18>
    80001080:	00119193          	slli	gp,gp,0x1
    80001084:	0011e193          	ori	gp,gp,1
    80001088:	05d00893          	li	a7,93
    8000108c:	00018513          	mv	a0,gp
    80001090:	00000073          	ecall

0000000080001094 <pass>:
    80001094:	0ff0000f          	fence
    80001098:	00100513          	li	a0,1
    8000109c:	00001597          	auipc	a1,0x1
    800010a0:	f6458593          	addi	a1,a1,-156 # 80002000 <hello>
    800010a4:	00f00613          	li	a2,15
    800010a8:	04000893          	li	a7,64
    800010ac:	00000073          	ecall
    800010b0:	00100193          	li	gp,1
    800010b4:	05d00893          	li	a7,93
    800010b8:	00000513          	li	a0,0
    800010bc:	00000073          	ecall
    800010c0:	c0001073          	unimp
