
rv64ud-p-fclass:     file format elf64-littleriscv


Disassembly of section .text:

0000000080001000 <test_2>:
    80001000:	00200193          	li	gp,2
    80001004:	fff0051b          	addiw	a0,zero,-1
    80001008:	03451513          	slli	a0,a0,0x34
    8000100c:	f2050553          	fmv.d.x	fa0,a0
    80001010:	e2051553          	fclass.d	a0,fa0
    80001014:	00100393          	li	t2,1
    80001018:	10751863          	bne	a0,t2,80001128 <fail>

000000008000101c <test_3>:
    8000101c:	00300193          	li	gp,3
    80001020:	bff0051b          	addiw	a0,zero,-1025
    80001024:	03451513          	slli	a0,a0,0x34
    80001028:	f2050553          	fmv.d.x	fa0,a0
    8000102c:	e2051553          	fclass.d	a0,fa0
    80001030:	00200393          	li	t2,2
    80001034:	0e751a63          	bne	a0,t2,80001128 <fail>

0000000080001038 <test_4>:
    80001038:	00400193          	li	gp,4
    8000103c:	8010051b          	addiw	a0,zero,-2047
    80001040:	03451513          	slli	a0,a0,0x34
    80001044:	fff50513          	addi	a0,a0,-1
    80001048:	f2050553          	fmv.d.x	fa0,a0
    8000104c:	e2051553          	fclass.d	a0,fa0
    80001050:	00400393          	li	t2,4
    80001054:	0c751a63          	bne	a0,t2,80001128 <fail>

0000000080001058 <test_5>:
    80001058:	00500193          	li	gp,5
    8000105c:	fff0051b          	addiw	a0,zero,-1
    80001060:	03f51513          	slli	a0,a0,0x3f
    80001064:	f2050553          	fmv.d.x	fa0,a0
    80001068:	e2051553          	fclass.d	a0,fa0
    8000106c:	00800393          	li	t2,8
    80001070:	0a751c63          	bne	a0,t2,80001128 <fail>

0000000080001074 <test_6>:
    80001074:	00600193          	li	gp,6
    80001078:	00000513          	li	a0,0
    8000107c:	f2050553          	fmv.d.x	fa0,a0
    80001080:	e2051553          	fclass.d	a0,fa0
    80001084:	01000393          	li	t2,16
    80001088:	0a751063          	bne	a0,t2,80001128 <fail>

000000008000108c <test_7>:
    8000108c:	00700193          	li	gp,7
    80001090:	0010051b          	addiw	a0,zero,1
    80001094:	03451513          	slli	a0,a0,0x34
    80001098:	fff50513          	addi	a0,a0,-1
    8000109c:	f2050553          	fmv.d.x	fa0,a0
    800010a0:	e2051553          	fclass.d	a0,fa0
    800010a4:	02000393          	li	t2,32
    800010a8:	08751063          	bne	a0,t2,80001128 <fail>

00000000800010ac <test_8>:
    800010ac:	00800193          	li	gp,8
    800010b0:	3ff0051b          	addiw	a0,zero,1023
    800010b4:	03451513          	slli	a0,a0,0x34
    800010b8:	f2050553          	fmv.d.x	fa0,a0
    800010bc:	e2051553          	fclass.d	a0,fa0
    800010c0:	04000393          	li	t2,64
    800010c4:	06751263          	bne	a0,t2,80001128 <fail>

00000000800010c8 <test_9>:
    800010c8:	00900193          	li	gp,9
    800010cc:	7ff0051b          	addiw	a0,zero,2047
    800010d0:	03451513          	slli	a0,a0,0x34
    800010d4:	f2050553          	fmv.d.x	fa0,a0
    800010d8:	e2051553          	fclass.d	a0,fa0
    800010dc:	08000393          	li	t2,128
    800010e0:	04751463          	bne	a0,t2,80001128 <fail>

00000000800010e4 <test_10>:
    800010e4:	00a00193          	li	gp,10
    800010e8:	7ff0051b          	addiw	a0,zero,2047
    800010ec:	03451513          	slli	a0,a0,0x34
    800010f0:	00150513          	addi	a0,a0,1
    800010f4:	f2050553          	fmv.d.x	fa0,a0
    800010f8:	e2051553          	fclass.d	a0,fa0
    800010fc:	10000393          	li	t2,256
    80001100:	02751463          	bne	a0,t2,80001128 <fail>

0000000080001104 <test_11>:
    80001104:	00b00193          	li	gp,11
    80001108:	00001537          	lui	a0,0x1
    8000110c:	fff5051b          	addiw	a0,a0,-1 # fff <tohost-0x7ffff001>
    80001110:	03351513          	slli	a0,a0,0x33
    80001114:	f2050553          	fmv.d.x	fa0,a0
    80001118:	e2051553          	fclass.d	a0,fa0
    8000111c:	20000393          	li	t2,512
    80001120:	00751463          	bne	a0,t2,80001128 <fail>
    80001124:	02301a63          	bne	zero,gp,80001158 <pass>

0000000080001128 <fail>:
    80001128:	0ff0000f          	fence
    8000112c:	00001597          	auipc	a1,0x1
    80001130:	ed458593          	addi	a1,a1,-300 # 80002000 <hello>
    80001134:	00f00613          	li	a2,15
    80001138:	04000893          	li	a7,64
    8000113c:	00000073          	ecall
    80001140:	00018063          	beqz	gp,80001140 <fail+0x18>
    80001144:	00119193          	slli	gp,gp,0x1
    80001148:	0011e193          	ori	gp,gp,1
    8000114c:	05d00893          	li	a7,93
    80001150:	00018513          	mv	a0,gp
    80001154:	00000073          	ecall

0000000080001158 <pass>:
    80001158:	0ff0000f          	fence
    8000115c:	00100513          	li	a0,1
    80001160:	00001597          	auipc	a1,0x1
    80001164:	ea058593          	addi	a1,a1,-352 # 80002000 <hello>
    80001168:	00f00613          	li	a2,15
    8000116c:	04000893          	li	a7,64
    80001170:	00000073          	ecall
    80001174:	00100193          	li	gp,1
    80001178:	05d00893          	li	a7,93
    8000117c:	00000513          	li	a0,0
    80001180:	00000073          	ecall
    80001184:	c0001073          	unimp
