
rv64mi-p-csr:     file format elf64-littleriscv


Disassembly of section .text:

0000000080001000 <test_18-0x18>:
    80001000:	000022b7          	lui	t0,0x2
    80001004:	8002829b          	addiw	t0,t0,-2048 # 1800 <tohost-0x7fffe800>
    80001008:	3002b073          	csrc	mstatus,t0
    8000100c:	30002373          	csrr	t1,mstatus
    80001010:	0062f2b3          	and	t0,t0,t1
    80001014:	02029463          	bnez	t0,8000103c <test_19>

0000000080001018 <test_18>:
    80001018:	01200193          	li	gp,18
    8000101c:	30002573          	csrr	a0,mstatus
    80001020:	0030059b          	addiw	a1,zero,3
    80001024:	02059593          	slli	a1,a1,0x20
    80001028:	00b57533          	and	a0,a0,a1
    8000102c:	0010039b          	addiw	t2,zero,1
    80001030:	02139393          	slli	t2,t2,0x21
    80001034:	26751463          	bne	a0,t2,8000129c <fail>
    80001038:	0200006f          	j	80001058 <test_25>

000000008000103c <test_19>:
    8000103c:	01300193          	li	gp,19
    80001040:	30002573          	csrr	a0,mstatus
    80001044:	0030059b          	addiw	a1,zero,3
    80001048:	02059593          	slli	a1,a1,0x20
    8000104c:	00b57533          	and	a0,a0,a1
    80001050:	00000393          	li	t2,0
    80001054:	24751463          	bne	a0,t2,8000129c <fail>

0000000080001058 <test_25>:
    80001058:	01900193          	li	gp,25
    8000105c:	c0003073          	csrc	cycle,zero
    80001060:	00000393          	li	t2,0
    80001064:	22701c63          	bne	zero,t2,8000129c <fail>

0000000080001068 <test_26>:
    80001068:	01a00193          	li	gp,26
    8000106c:	c0002073          	rdcycle	zero
    80001070:	00000393          	li	t2,0
    80001074:	22701463          	bne	zero,t2,8000129c <fail>

0000000080001078 <test_27>:
    80001078:	01b00193          	li	gp,27
    8000107c:	c0007073          	csrci	cycle,0
    80001080:	00000393          	li	t2,0
    80001084:	20701c63          	bne	zero,t2,8000129c <fail>

0000000080001088 <test_28>:
    80001088:	01c00193          	li	gp,28
    8000108c:	c0006073          	csrsi	cycle,0
    80001090:	00000393          	li	t2,0
    80001094:	20701463          	bne	zero,t2,8000129c <fail>

0000000080001098 <test_20>:
    80001098:	01400193          	li	gp,20
    8000109c:	34001073          	csrw	mscratch,zero
    800010a0:	34002573          	csrr	a0,mscratch
    800010a4:	00000393          	li	t2,0
    800010a8:	1e751a63          	bne	a0,t2,8000129c <fail>

00000000800010ac <test_21>:
    800010ac:	01500193          	li	gp,21
    800010b0:	34005573          	csrrwi	a0,mscratch,0
    800010b4:	3407d573          	csrrwi	a0,mscratch,15
    800010b8:	00000393          	li	t2,0
    800010bc:	1e751063          	bne	a0,t2,8000129c <fail>

00000000800010c0 <test_22>:
    800010c0:	01600193          	li	gp,22
    800010c4:	34086073          	csrsi	mscratch,16
    800010c8:	34002573          	csrr	a0,mscratch
    800010cc:	01f00393          	li	t2,31
    800010d0:	1c751663          	bne	a0,t2,8000129c <fail>
    800010d4:	3401d073          	csrwi	mscratch,3

00000000800010d8 <test_2>:
    800010d8:	00200193          	li	gp,2
    800010dc:	34002573          	csrr	a0,mscratch
    800010e0:	00300393          	li	t2,3
    800010e4:	1a751c63          	bne	a0,t2,8000129c <fail>

00000000800010e8 <test_3>:
    800010e8:	00300193          	li	gp,3
    800010ec:	3400f5f3          	csrrci	a1,mscratch,1
    800010f0:	00300393          	li	t2,3
    800010f4:	1a759463          	bne	a1,t2,8000129c <fail>

00000000800010f8 <test_4>:
    800010f8:	00400193          	li	gp,4
    800010fc:	34026673          	csrrsi	a2,mscratch,4
    80001100:	00200393          	li	t2,2
    80001104:	18761c63          	bne	a2,t2,8000129c <fail>

0000000080001108 <test_5>:
    80001108:	00500193          	li	gp,5
    8000110c:	340156f3          	csrrwi	a3,mscratch,2
    80001110:	00600393          	li	t2,6
    80001114:	18769463          	bne	a3,t2,8000129c <fail>

0000000080001118 <test_6>:
    80001118:	00600193          	li	gp,6
    8000111c:	0bad2537          	lui	a0,0xbad2
    80001120:	dea5051b          	addiw	a0,a0,-534 # bad1dea <tohost-0x7452e216>
    80001124:	340515f3          	csrrw	a1,mscratch,a0
    80001128:	00200393          	li	t2,2
    8000112c:	16759863          	bne	a1,t2,8000129c <fail>

0000000080001130 <test_7>:
    80001130:	00700193          	li	gp,7
    80001134:	00002537          	lui	a0,0x2
    80001138:	dea5051b          	addiw	a0,a0,-534 # 1dea <tohost-0x7fffe216>
    8000113c:	340535f3          	csrrc	a1,mscratch,a0
    80001140:	0bad23b7          	lui	t2,0xbad2
    80001144:	dea3839b          	addiw	t2,t2,-534 # bad1dea <tohost-0x7452e216>
    80001148:	14759a63          	bne	a1,t2,8000129c <fail>

000000008000114c <test_8>:
    8000114c:	00800193          	li	gp,8
    80001150:	0000c537          	lui	a0,0xc
    80001154:	eef5051b          	addiw	a0,a0,-273 # beef <tohost-0x7fff4111>
    80001158:	340525f3          	csrrs	a1,mscratch,a0
    8000115c:	0bad03b7          	lui	t2,0xbad0
    80001160:	12759e63          	bne	a1,t2,8000129c <fail>

0000000080001164 <test_9>:
    80001164:	00900193          	li	gp,9
    80001168:	0bad2537          	lui	a0,0xbad2
    8000116c:	dea5051b          	addiw	a0,a0,-534 # bad1dea <tohost-0x7452e216>
    80001170:	34051573          	csrrw	a0,mscratch,a0
    80001174:	0badc3b7          	lui	t2,0xbadc
    80001178:	eef3839b          	addiw	t2,t2,-273 # badbeef <tohost-0x74524111>
    8000117c:	12751063          	bne	a0,t2,8000129c <fail>

0000000080001180 <test_10>:
    80001180:	00a00193          	li	gp,10
    80001184:	00002537          	lui	a0,0x2
    80001188:	dea5051b          	addiw	a0,a0,-534 # 1dea <tohost-0x7fffe216>
    8000118c:	34053573          	csrrc	a0,mscratch,a0
    80001190:	0bad23b7          	lui	t2,0xbad2
    80001194:	dea3839b          	addiw	t2,t2,-534 # bad1dea <tohost-0x7452e216>
    80001198:	10751263          	bne	a0,t2,8000129c <fail>

000000008000119c <test_11>:
    8000119c:	00b00193          	li	gp,11
    800011a0:	0000c537          	lui	a0,0xc
    800011a4:	eef5051b          	addiw	a0,a0,-273 # beef <tohost-0x7fff4111>
    800011a8:	34052573          	csrrs	a0,mscratch,a0
    800011ac:	0bad03b7          	lui	t2,0xbad0
    800011b0:	0e751663          	bne	a0,t2,8000129c <fail>

00000000800011b4 <test_12>:
    800011b4:	00c00193          	li	gp,12
    800011b8:	34002573          	csrr	a0,mscratch
    800011bc:	0badc3b7          	lui	t2,0xbadc
    800011c0:	eef3839b          	addiw	t2,t2,-273 # badbeef <tohost-0x74524111>
    800011c4:	0c751c63          	bne	a0,t2,8000129c <fail>
    800011c8:	30102573          	csrr	a0,misa
    800011cc:	02057513          	andi	a0,a0,32
    800011d0:	02050863          	beqz	a0,80001200 <test_13+0x14>
    800011d4:	000065b7          	lui	a1,0x6
    800011d8:	3005a073          	csrs	mstatus,a1
    800011dc:	f0000053          	fmv.w.x	ft0,zero
    800011e0:	3005b073          	csrc	mstatus,a1
    800011e4:	00001597          	auipc	a1,0x1
    800011e8:	e3c58593          	addi	a1,a1,-452 # 80002020 <begin_signature>

00000000800011ec <test_13>:
    800011ec:	00d00193          	li	gp,13
    800011f0:	0005a027          	fsw	ft0,0(a1)
    800011f4:	0005a503          	lw	a0,0(a1)
    800011f8:	00100393          	li	t2,1
    800011fc:	0a751063          	bne	a0,t2,8000129c <fail>
    80001200:	30102573          	csrr	a0,misa
    80001204:	01455513          	srli	a0,a0,0x14
    80001208:	00157513          	andi	a0,a0,1
    8000120c:	06050063          	beqz	a0,8000126c <finish>
    80001210:	3060d073          	csrwi	mcounteren,1
    80001214:	30102573          	csrr	a0,misa
    80001218:	01255513          	srli	a0,a0,0x12
    8000121c:	00157513          	andi	a0,a0,1
    80001220:	00050463          	beqz	a0,80001228 <test_13+0x3c>
    80001224:	1060d073          	csrwi	scounteren,1
    80001228:	000022b7          	lui	t0,0x2
    8000122c:	8002829b          	addiw	t0,t0,-2048 # 1800 <tohost-0x7fffe800>
    80001230:	3002b073          	csrc	mstatus,t0
    80001234:	00000297          	auipc	t0,0x0
    80001238:	01028293          	addi	t0,t0,16 # 80001244 <test_14>
    8000123c:	34129073          	csrw	mepc,t0
    80001240:	30200073          	mret

0000000080001244 <test_14>:
    80001244:	00e00193          	li	gp,14
    80001248:	0ff00513          	li	a0,255
    8000124c:	c0001573          	csrrw	a0,cycle,zero
    80001250:	0ff00393          	li	t2,255
    80001254:	04751463          	bne	a0,t2,8000129c <fail>

0000000080001258 <test_15>:
    80001258:	00f00193          	li	gp,15
    8000125c:	0ff00513          	li	a0,255
    80001260:	30002573          	csrr	a0,mstatus
    80001264:	0ff00393          	li	t2,255
    80001268:	02751a63          	bne	a0,t2,8000129c <fail>

000000008000126c <finish>:
    8000126c:	0ff0000f          	fence
    80001270:	00100513          	li	a0,1
    80001274:	00001597          	auipc	a1,0x1
    80001278:	d8c58593          	addi	a1,a1,-628 # 80002000 <hello>
    8000127c:	00f00613          	li	a2,15
    80001280:	04000893          	li	a7,64
    80001284:	00000073          	ecall
    80001288:	00100193          	li	gp,1
    8000128c:	05d00893          	li	a7,93
    80001290:	00000513          	li	a0,0
    80001294:	00000073          	ecall
    80001298:	02301a63          	bne	zero,gp,800012cc <pass>

000000008000129c <fail>:
    8000129c:	0ff0000f          	fence
    800012a0:	00001597          	auipc	a1,0x1
    800012a4:	d6058593          	addi	a1,a1,-672 # 80002000 <hello>
    800012a8:	00f00613          	li	a2,15
    800012ac:	04000893          	li	a7,64
    800012b0:	00000073          	ecall
    800012b4:	00018063          	beqz	gp,800012b4 <fail+0x18>
    800012b8:	00119193          	slli	gp,gp,0x1
    800012bc:	0011e193          	ori	gp,gp,1
    800012c0:	05d00893          	li	a7,93
    800012c4:	00018513          	mv	a0,gp
    800012c8:	00000073          	ecall

00000000800012cc <pass>:
    800012cc:	0ff0000f          	fence
    800012d0:	00100513          	li	a0,1
    800012d4:	00001597          	auipc	a1,0x1
    800012d8:	d2c58593          	addi	a1,a1,-724 # 80002000 <hello>
    800012dc:	00f00613          	li	a2,15
    800012e0:	04000893          	li	a7,64
    800012e4:	00000073          	ecall
    800012e8:	00100193          	li	gp,1
    800012ec:	05d00893          	li	a7,93
    800012f0:	00000513          	li	a0,0
    800012f4:	00000073          	ecall

00000000800012f8 <mtvec_handler>:
    800012f8:	00d00293          	li	t0,13
    800012fc:	0051e663          	bltu	gp,t0,80001308 <mtvec_handler+0x10>
    80001300:	00f00293          	li	t0,15
    80001304:	0232fe63          	bgeu	t0,gp,80001340 <privileged>
    80001308:	342022f3          	csrr	t0,mcause
    8000130c:	00800313          	li	t1,8
    80001310:	f86296e3          	bne	t0,t1,8000129c <fail>
    80001314:	0ff0000f          	fence
    80001318:	00100513          	li	a0,1
    8000131c:	00001597          	auipc	a1,0x1
    80001320:	ce458593          	addi	a1,a1,-796 # 80002000 <hello>
    80001324:	00f00613          	li	a2,15
    80001328:	04000893          	li	a7,64
    8000132c:	00000073          	ecall
    80001330:	00100193          	li	gp,1
    80001334:	05d00893          	li	a7,93
    80001338:	00000513          	li	a0,0
    8000133c:	00000073          	ecall

0000000080001340 <privileged>:
    80001340:	342022f3          	csrr	t0,mcause
    80001344:	00200313          	li	t1,2
    80001348:	f4629ae3          	bne	t0,t1,8000129c <fail>
    8000134c:	341022f3          	csrr	t0,mepc
    80001350:	00428293          	addi	t0,t0,4
    80001354:	34129073          	csrw	mepc,t0
    80001358:	30200073          	mret
    8000135c:	c0001073          	unimp
