
rv64ui-p-bne:     file format elf64-littleriscv


Disassembly of section .text:

0000000080001000 <test_2>:
    80001000:	00200193          	li	gp,2
    80001004:	00000093          	li	ra,0
    80001008:	00100113          	li	sp,1
    8000100c:	00209663          	bne	ra,sp,80001018 <test_2+0x18>
    80001010:	2a301a63          	bne	zero,gp,800012c4 <fail>
    80001014:	00301663          	bne	zero,gp,80001020 <test_3>
    80001018:	fe209ee3          	bne	ra,sp,80001014 <test_2+0x14>
    8000101c:	2a301463          	bne	zero,gp,800012c4 <fail>

0000000080001020 <test_3>:
    80001020:	00300193          	li	gp,3
    80001024:	00100093          	li	ra,1
    80001028:	00000113          	li	sp,0
    8000102c:	00209663          	bne	ra,sp,80001038 <test_3+0x18>
    80001030:	28301a63          	bne	zero,gp,800012c4 <fail>
    80001034:	00301663          	bne	zero,gp,80001040 <test_4>
    80001038:	fe209ee3          	bne	ra,sp,80001034 <test_3+0x14>
    8000103c:	28301463          	bne	zero,gp,800012c4 <fail>

0000000080001040 <test_4>:
    80001040:	00400193          	li	gp,4
    80001044:	fff00093          	li	ra,-1
    80001048:	00100113          	li	sp,1
    8000104c:	00209663          	bne	ra,sp,80001058 <test_4+0x18>
    80001050:	26301a63          	bne	zero,gp,800012c4 <fail>
    80001054:	00301663          	bne	zero,gp,80001060 <test_5>
    80001058:	fe209ee3          	bne	ra,sp,80001054 <test_4+0x14>
    8000105c:	26301463          	bne	zero,gp,800012c4 <fail>

0000000080001060 <test_5>:
    80001060:	00500193          	li	gp,5
    80001064:	00100093          	li	ra,1
    80001068:	fff00113          	li	sp,-1
    8000106c:	00209663          	bne	ra,sp,80001078 <test_5+0x18>
    80001070:	24301a63          	bne	zero,gp,800012c4 <fail>
    80001074:	00301663          	bne	zero,gp,80001080 <test_6>
    80001078:	fe209ee3          	bne	ra,sp,80001074 <test_5+0x14>
    8000107c:	24301463          	bne	zero,gp,800012c4 <fail>

0000000080001080 <test_6>:
    80001080:	00600193          	li	gp,6
    80001084:	00000093          	li	ra,0
    80001088:	00000113          	li	sp,0
    8000108c:	00209463          	bne	ra,sp,80001094 <test_6+0x14>
    80001090:	00301463          	bne	zero,gp,80001098 <test_6+0x18>
    80001094:	22301863          	bne	zero,gp,800012c4 <fail>
    80001098:	fe209ee3          	bne	ra,sp,80001094 <test_6+0x14>

000000008000109c <test_7>:
    8000109c:	00700193          	li	gp,7
    800010a0:	00100093          	li	ra,1
    800010a4:	00100113          	li	sp,1
    800010a8:	00209463          	bne	ra,sp,800010b0 <test_7+0x14>
    800010ac:	00301463          	bne	zero,gp,800010b4 <test_7+0x18>
    800010b0:	20301a63          	bne	zero,gp,800012c4 <fail>
    800010b4:	fe209ee3          	bne	ra,sp,800010b0 <test_7+0x14>

00000000800010b8 <test_8>:
    800010b8:	00800193          	li	gp,8
    800010bc:	fff00093          	li	ra,-1
    800010c0:	fff00113          	li	sp,-1
    800010c4:	00209463          	bne	ra,sp,800010cc <test_8+0x14>
    800010c8:	00301463          	bne	zero,gp,800010d0 <test_8+0x18>
    800010cc:	1e301c63          	bne	zero,gp,800012c4 <fail>
    800010d0:	fe209ee3          	bne	ra,sp,800010cc <test_8+0x14>

00000000800010d4 <test_9>:
    800010d4:	00900193          	li	gp,9
    800010d8:	00000213          	li	tp,0
    800010dc:	00000093          	li	ra,0
    800010e0:	00000113          	li	sp,0
    800010e4:	1e209063          	bne	ra,sp,800012c4 <fail>
    800010e8:	00120213          	addi	tp,tp,1 # 1 <tohost-0x7fffffff>
    800010ec:	00200293          	li	t0,2
    800010f0:	fe5216e3          	bne	tp,t0,800010dc <test_9+0x8>

00000000800010f4 <test_10>:
    800010f4:	00a00193          	li	gp,10
    800010f8:	00000213          	li	tp,0
    800010fc:	00000093          	li	ra,0
    80001100:	00000113          	li	sp,0
    80001104:	00000013          	nop
    80001108:	1a209e63          	bne	ra,sp,800012c4 <fail>
    8000110c:	00120213          	addi	tp,tp,1 # 1 <tohost-0x7fffffff>
    80001110:	00200293          	li	t0,2
    80001114:	fe5214e3          	bne	tp,t0,800010fc <test_10+0x8>

0000000080001118 <test_11>:
    80001118:	00b00193          	li	gp,11
    8000111c:	00000213          	li	tp,0
    80001120:	00000093          	li	ra,0
    80001124:	00000113          	li	sp,0
    80001128:	00000013          	nop
    8000112c:	00000013          	nop
    80001130:	18209a63          	bne	ra,sp,800012c4 <fail>
    80001134:	00120213          	addi	tp,tp,1 # 1 <tohost-0x7fffffff>
    80001138:	00200293          	li	t0,2
    8000113c:	fe5212e3          	bne	tp,t0,80001120 <test_11+0x8>

0000000080001140 <test_12>:
    80001140:	00c00193          	li	gp,12
    80001144:	00000213          	li	tp,0
    80001148:	00000093          	li	ra,0
    8000114c:	00000013          	nop
    80001150:	00000113          	li	sp,0
    80001154:	16209863          	bne	ra,sp,800012c4 <fail>
    80001158:	00120213          	addi	tp,tp,1 # 1 <tohost-0x7fffffff>
    8000115c:	00200293          	li	t0,2
    80001160:	fe5214e3          	bne	tp,t0,80001148 <test_12+0x8>

0000000080001164 <test_13>:
    80001164:	00d00193          	li	gp,13
    80001168:	00000213          	li	tp,0
    8000116c:	00000093          	li	ra,0
    80001170:	00000013          	nop
    80001174:	00000113          	li	sp,0
    80001178:	00000013          	nop
    8000117c:	14209463          	bne	ra,sp,800012c4 <fail>
    80001180:	00120213          	addi	tp,tp,1 # 1 <tohost-0x7fffffff>
    80001184:	00200293          	li	t0,2
    80001188:	fe5212e3          	bne	tp,t0,8000116c <test_13+0x8>

000000008000118c <test_14>:
    8000118c:	00e00193          	li	gp,14
    80001190:	00000213          	li	tp,0
    80001194:	00000093          	li	ra,0
    80001198:	00000013          	nop
    8000119c:	00000013          	nop
    800011a0:	00000113          	li	sp,0
    800011a4:	12209063          	bne	ra,sp,800012c4 <fail>
    800011a8:	00120213          	addi	tp,tp,1 # 1 <tohost-0x7fffffff>
    800011ac:	00200293          	li	t0,2
    800011b0:	fe5212e3          	bne	tp,t0,80001194 <test_14+0x8>

00000000800011b4 <test_15>:
    800011b4:	00f00193          	li	gp,15
    800011b8:	00000213          	li	tp,0
    800011bc:	00000093          	li	ra,0
    800011c0:	00000113          	li	sp,0
    800011c4:	10209063          	bne	ra,sp,800012c4 <fail>
    800011c8:	00120213          	addi	tp,tp,1 # 1 <tohost-0x7fffffff>
    800011cc:	00200293          	li	t0,2
    800011d0:	fe5216e3          	bne	tp,t0,800011bc <test_15+0x8>

00000000800011d4 <test_16>:
    800011d4:	01000193          	li	gp,16
    800011d8:	00000213          	li	tp,0
    800011dc:	00000093          	li	ra,0
    800011e0:	00000113          	li	sp,0
    800011e4:	00000013          	nop
    800011e8:	0c209e63          	bne	ra,sp,800012c4 <fail>
    800011ec:	00120213          	addi	tp,tp,1 # 1 <tohost-0x7fffffff>
    800011f0:	00200293          	li	t0,2
    800011f4:	fe5214e3          	bne	tp,t0,800011dc <test_16+0x8>

00000000800011f8 <test_17>:
    800011f8:	01100193          	li	gp,17
    800011fc:	00000213          	li	tp,0
    80001200:	00000093          	li	ra,0
    80001204:	00000113          	li	sp,0
    80001208:	00000013          	nop
    8000120c:	00000013          	nop
    80001210:	0a209a63          	bne	ra,sp,800012c4 <fail>
    80001214:	00120213          	addi	tp,tp,1 # 1 <tohost-0x7fffffff>
    80001218:	00200293          	li	t0,2
    8000121c:	fe5212e3          	bne	tp,t0,80001200 <test_17+0x8>

0000000080001220 <test_18>:
    80001220:	01200193          	li	gp,18
    80001224:	00000213          	li	tp,0
    80001228:	00000093          	li	ra,0
    8000122c:	00000013          	nop
    80001230:	00000113          	li	sp,0
    80001234:	08209863          	bne	ra,sp,800012c4 <fail>
    80001238:	00120213          	addi	tp,tp,1 # 1 <tohost-0x7fffffff>
    8000123c:	00200293          	li	t0,2
    80001240:	fe5214e3          	bne	tp,t0,80001228 <test_18+0x8>

0000000080001244 <test_19>:
    80001244:	01300193          	li	gp,19
    80001248:	00000213          	li	tp,0
    8000124c:	00000093          	li	ra,0
    80001250:	00000013          	nop
    80001254:	00000113          	li	sp,0
    80001258:	00000013          	nop
    8000125c:	06209463          	bne	ra,sp,800012c4 <fail>
    80001260:	00120213          	addi	tp,tp,1 # 1 <tohost-0x7fffffff>
    80001264:	00200293          	li	t0,2
    80001268:	fe5212e3          	bne	tp,t0,8000124c <test_19+0x8>

000000008000126c <test_20>:
    8000126c:	01400193          	li	gp,20
    80001270:	00000213          	li	tp,0
    80001274:	00000093          	li	ra,0
    80001278:	00000013          	nop
    8000127c:	00000013          	nop
    80001280:	00000113          	li	sp,0
    80001284:	04209063          	bne	ra,sp,800012c4 <fail>
    80001288:	00120213          	addi	tp,tp,1 # 1 <tohost-0x7fffffff>
    8000128c:	00200293          	li	t0,2
    80001290:	fe5212e3          	bne	tp,t0,80001274 <test_20+0x8>

0000000080001294 <test_21>:
    80001294:	01500193          	li	gp,21
    80001298:	00100093          	li	ra,1
    8000129c:	00009a63          	bnez	ra,800012b0 <test_21+0x1c>
    800012a0:	00108093          	addi	ra,ra,1
    800012a4:	00108093          	addi	ra,ra,1
    800012a8:	00108093          	addi	ra,ra,1
    800012ac:	00108093          	addi	ra,ra,1
    800012b0:	00108093          	addi	ra,ra,1
    800012b4:	00108093          	addi	ra,ra,1
    800012b8:	00300393          	li	t2,3
    800012bc:	00709463          	bne	ra,t2,800012c4 <fail>
    800012c0:	02301a63          	bne	zero,gp,800012f4 <pass>

00000000800012c4 <fail>:
    800012c4:	0ff0000f          	fence
    800012c8:	00001597          	auipc	a1,0x1
    800012cc:	d3858593          	addi	a1,a1,-712 # 80002000 <hello>
    800012d0:	00f00613          	li	a2,15
    800012d4:	04000893          	li	a7,64
    800012d8:	00000073          	ecall
    800012dc:	00018063          	beqz	gp,800012dc <fail+0x18>
    800012e0:	00119193          	slli	gp,gp,0x1
    800012e4:	0011e193          	ori	gp,gp,1
    800012e8:	05d00893          	li	a7,93
    800012ec:	00018513          	mv	a0,gp
    800012f0:	00000073          	ecall

00000000800012f4 <pass>:
    800012f4:	0ff0000f          	fence
    800012f8:	00100513          	li	a0,1
    800012fc:	00001597          	auipc	a1,0x1
    80001300:	d0458593          	addi	a1,a1,-764 # 80002000 <hello>
    80001304:	00f00613          	li	a2,15
    80001308:	04000893          	li	a7,64
    8000130c:	00000073          	ecall
    80001310:	00100193          	li	gp,1
    80001314:	05d00893          	li	a7,93
    80001318:	00000513          	li	a0,0
    8000131c:	00000073          	ecall
    80001320:	c0001073          	unimp
