
rv64ui-p-ma_data:     file format elf64-littleriscv


Disassembly of section .text:

0000000080001000 <fail-0x1c78>:
    80001000:	00002417          	auipc	s0,0x2
    80001004:	02040413          	addi	s0,s0,32 # 80003020 <begin_signature>
    80001008:	00100193          	li	gp,1
    8000100c:	20100313          	li	t1,513
    80001010:	00141383          	lh	t2,1(s0)
    80001014:	00730463          	beq	t1,t2,8000101c <fromhost+0xfdc>
    80001018:	4610106f          	j	80002c78 <fail>
    8000101c:	00200193          	li	gp,2
    80001020:	20100313          	li	t1,513
    80001024:	00145383          	lhu	t2,1(s0)
    80001028:	00730463          	beq	t1,t2,80001030 <fromhost+0xff0>
    8000102c:	44d0106f          	j	80002c78 <fail>
    80001030:	00300193          	li	gp,3
    80001034:	04030337          	lui	t1,0x4030
    80001038:	2013031b          	addiw	t1,t1,513 # 4030201 <tohost-0x7bfcfdff>
    8000103c:	00142383          	lw	t2,1(s0)
    80001040:	00730463          	beq	t1,t2,80001048 <fromhost+0x1008>
    80001044:	4350106f          	j	80002c78 <fail>
    80001048:	00400193          	li	gp,4
    8000104c:	05040337          	lui	t1,0x5040
    80001050:	3023031b          	addiw	t1,t1,770 # 5040302 <tohost-0x7afbfcfe>
    80001054:	00242383          	lw	t2,2(s0)
    80001058:	00730463          	beq	t1,t2,80001060 <fromhost+0x1020>
    8000105c:	41d0106f          	j	80002c78 <fail>
    80001060:	00500193          	li	gp,5
    80001064:	06050337          	lui	t1,0x6050
    80001068:	4033031b          	addiw	t1,t1,1027 # 6050403 <tohost-0x79fafbfd>
    8000106c:	00342383          	lw	t2,3(s0)
    80001070:	00730463          	beq	t1,t2,80001078 <fromhost+0x1038>
    80001074:	4050106f          	j	80002c78 <fail>
    80001078:	00600193          	li	gp,6
    8000107c:	04030337          	lui	t1,0x4030
    80001080:	2013031b          	addiw	t1,t1,513 # 4030201 <tohost-0x7bfcfdff>
    80001084:	00146383          	lwu	t2,1(s0)
    80001088:	00730463          	beq	t1,t2,80001090 <fromhost+0x1050>
    8000108c:	3ed0106f          	j	80002c78 <fail>
    80001090:	00700193          	li	gp,7
    80001094:	05040337          	lui	t1,0x5040
    80001098:	3023031b          	addiw	t1,t1,770 # 5040302 <tohost-0x7afbfcfe>
    8000109c:	00246383          	lwu	t2,2(s0)
    800010a0:	00730463          	beq	t1,t2,800010a8 <fromhost+0x1068>
    800010a4:	3d50106f          	j	80002c78 <fail>
    800010a8:	00800193          	li	gp,8
    800010ac:	06050337          	lui	t1,0x6050
    800010b0:	4033031b          	addiw	t1,t1,1027 # 6050403 <tohost-0x79fafbfd>
    800010b4:	00346383          	lwu	t2,3(s0)
    800010b8:	00730463          	beq	t1,t2,800010c0 <fromhost+0x1080>
    800010bc:	3bd0106f          	j	80002c78 <fail>
    800010c0:	00900193          	li	gp,9
    800010c4:	08070337          	lui	t1,0x8070
    800010c8:	6053031b          	addiw	t1,t1,1541 # 8070605 <tohost-0x77f8f9fb>
    800010cc:	01031313          	slli	t1,t1,0x10
    800010d0:	40330313          	addi	t1,t1,1027
    800010d4:	01031313          	slli	t1,t1,0x10
    800010d8:	20130313          	addi	t1,t1,513
    800010dc:	00143383          	ld	t2,1(s0)
    800010e0:	00730463          	beq	t1,t2,800010e8 <fromhost+0x10a8>
    800010e4:	3950106f          	j	80002c78 <fail>
    800010e8:	00a00193          	li	gp,10
    800010ec:	04840337          	lui	t1,0x4840
    800010f0:	3833031b          	addiw	t1,t1,899 # 4840383 <tohost-0x7b7bfc7d>
    800010f4:	00f31313          	slli	t1,t1,0xf
    800010f8:	14130313          	addi	t1,t1,321
    800010fc:	01231313          	slli	t1,t1,0x12
    80001100:	30230313          	addi	t1,t1,770
    80001104:	00243383          	ld	t2,2(s0)
    80001108:	00730463          	beq	t1,t2,80001110 <fromhost+0x10d0>
    8000110c:	36d0106f          	j	80002c78 <fail>
    80001110:	00b00193          	li	gp,11
    80001114:	0a091337          	lui	t1,0xa091
    80001118:	8073031b          	addiw	t1,t1,-2041 # a090807 <tohost-0x75f6f7f9>
    8000111c:	01031313          	slli	t1,t1,0x10
    80001120:	60530313          	addi	t1,t1,1541
    80001124:	01031313          	slli	t1,t1,0x10
    80001128:	40330313          	addi	t1,t1,1027
    8000112c:	00343383          	ld	t2,3(s0)
    80001130:	00730463          	beq	t1,t2,80001138 <fromhost+0x10f8>
    80001134:	3450106f          	j	80002c78 <fail>
    80001138:	00c00193          	li	gp,12
    8000113c:	01614337          	lui	t1,0x1614
    80001140:	1213031b          	addiw	t1,t1,289 # 1614121 <tohost-0x7e9ebedf>
    80001144:	01231313          	slli	t1,t1,0x12
    80001148:	38330313          	addi	t1,t1,899
    8000114c:	01131313          	slli	t1,t1,0x11
    80001150:	50430313          	addi	t1,t1,1284
    80001154:	00443383          	ld	t2,4(s0)
    80001158:	00730463          	beq	t1,t2,80001160 <fromhost+0x1120>
    8000115c:	31d0106f          	j	80002c78 <fail>
    80001160:	00d00193          	li	gp,13
    80001164:	00060337          	lui	t1,0x60
    80001168:	5853031b          	addiw	t1,t1,1413 # 60585 <tohost-0x7ff9fa7b>
    8000116c:	00d31313          	slli	t1,t1,0xd
    80001170:	09130313          	addi	t1,t1,145
    80001174:	00c31313          	slli	t1,t1,0xc
    80001178:	80730313          	addi	t1,t1,-2041
    8000117c:	01031313          	slli	t1,t1,0x10
    80001180:	60530313          	addi	t1,t1,1541
    80001184:	00543383          	ld	t2,5(s0)
    80001188:	00730463          	beq	t1,t2,80001190 <fromhost+0x1150>
    8000118c:	2ed0106f          	j	80002c78 <fail>
    80001190:	00e00193          	li	gp,14
    80001194:	06860337          	lui	t1,0x6860
    80001198:	5853031b          	addiw	t1,t1,1413 # 6860585 <tohost-0x7979fa7b>
    8000119c:	00e31313          	slli	t1,t1,0xe
    800011a0:	12130313          	addi	t1,t1,289
    800011a4:	01331313          	slli	t1,t1,0x13
    800011a8:	70630313          	addi	t1,t1,1798
    800011ac:	00643383          	ld	t2,6(s0)
    800011b0:	00730463          	beq	t1,t2,800011b8 <fromhost+0x1178>
    800011b4:	2c50106f          	j	80002c78 <fail>
    800011b8:	00f00193          	li	gp,15
    800011bc:	00038337          	lui	t1,0x38
    800011c0:	3433031b          	addiw	t1,t1,835 # 38343 <tohost-0x7ffc7cbd>
    800011c4:	01131313          	slli	t1,t1,0x11
    800011c8:	58530313          	addi	t1,t1,1413
    800011cc:	00d31313          	slli	t1,t1,0xd
    800011d0:	09130313          	addi	t1,t1,145
    800011d4:	00c31313          	slli	t1,t1,0xc
    800011d8:	80730313          	addi	t1,t1,-2041
    800011dc:	00743383          	ld	t2,7(s0)
    800011e0:	00730463          	beq	t1,t2,800011e8 <fromhost+0x11a8>
    800011e4:	2950106f          	j	80002c78 <fail>
    800011e8:	01000193          	li	gp,16
    800011ec:	00002337          	lui	t1,0x2
    800011f0:	01f3031b          	addiw	t1,t1,31 # 201f <tohost-0x7fffdfe1>
    800011f4:	01f41383          	lh	t2,31(s0)
    800011f8:	00730463          	beq	t1,t2,80001200 <fromhost+0x11c0>
    800011fc:	27d0106f          	j	80002c78 <fail>
    80001200:	01100193          	li	gp,17
    80001204:	00002337          	lui	t1,0x2
    80001208:	01f3031b          	addiw	t1,t1,31 # 201f <tohost-0x7fffdfe1>
    8000120c:	01f45383          	lhu	t2,31(s0)
    80001210:	00730463          	beq	t1,t2,80001218 <fromhost+0x11d8>
    80001214:	2650106f          	j	80002c78 <fail>
    80001218:	01200193          	li	gp,18
    8000121c:	201f2337          	lui	t1,0x201f2
    80001220:	e1d3031b          	addiw	t1,t1,-483 # 201f1e1d <tohost-0x5fe0e1e3>
    80001224:	01d42383          	lw	t2,29(s0)
    80001228:	00730463          	beq	t1,t2,80001230 <fromhost+0x11f0>
    8000122c:	24d0106f          	j	80002c78 <fail>
    80001230:	01300193          	li	gp,19
    80001234:	21202337          	lui	t1,0x21202
    80001238:	f1e3031b          	addiw	t1,t1,-226 # 21201f1e <tohost-0x5edfe0e2>
    8000123c:	01e42383          	lw	t2,30(s0)
    80001240:	00730463          	beq	t1,t2,80001248 <fromhost+0x1208>
    80001244:	2350106f          	j	80002c78 <fail>
    80001248:	01400193          	li	gp,20
    8000124c:	22212337          	lui	t1,0x22212
    80001250:	01f3031b          	addiw	t1,t1,31 # 2221201f <tohost-0x5ddedfe1>
    80001254:	01f42383          	lw	t2,31(s0)
    80001258:	00730463          	beq	t1,t2,80001260 <fromhost+0x1220>
    8000125c:	21d0106f          	j	80002c78 <fail>
    80001260:	01500193          	li	gp,21
    80001264:	201f2337          	lui	t1,0x201f2
    80001268:	e1d3031b          	addiw	t1,t1,-483 # 201f1e1d <tohost-0x5fe0e1e3>
    8000126c:	01d46383          	lwu	t2,29(s0)
    80001270:	00730463          	beq	t1,t2,80001278 <fromhost+0x1238>
    80001274:	2050106f          	j	80002c78 <fail>
    80001278:	01600193          	li	gp,22
    8000127c:	21202337          	lui	t1,0x21202
    80001280:	f1e3031b          	addiw	t1,t1,-226 # 21201f1e <tohost-0x5edfe0e2>
    80001284:	01e46383          	lwu	t2,30(s0)
    80001288:	00730463          	beq	t1,t2,80001290 <fromhost+0x1250>
    8000128c:	1ed0106f          	j	80002c78 <fail>
    80001290:	01700193          	li	gp,23
    80001294:	22212337          	lui	t1,0x22212
    80001298:	01f3031b          	addiw	t1,t1,31 # 2221201f <tohost-0x5ddedfe1>
    8000129c:	01f46383          	lwu	t2,31(s0)
    800012a0:	00730463          	beq	t1,t2,800012a8 <fromhost+0x1268>
    800012a4:	1d50106f          	j	80002c78 <fail>
    800012a8:	01800193          	li	gp,24
    800012ac:	00101337          	lui	t1,0x101
    800012b0:	f8f3031b          	addiw	t1,t1,-113 # 100f8f <tohost-0x7feff071>
    800012b4:	00f31313          	slli	t1,t1,0xf
    800012b8:	74730313          	addi	t1,t1,1863
    800012bc:	00d31313          	slli	t1,t1,0xd
    800012c0:	0d930313          	addi	t1,t1,217
    800012c4:	00d31313          	slli	t1,t1,0xd
    800012c8:	a1930313          	addi	t1,t1,-1511
    800012cc:	01943383          	ld	t2,25(s0)
    800012d0:	00730463          	beq	t1,t2,800012d8 <fromhost+0x1298>
    800012d4:	1a50106f          	j	80002c78 <fail>
    800012d8:	01900193          	li	gp,25
    800012dc:	01090337          	lui	t1,0x1090
    800012e0:	0f93031b          	addiw	t1,t1,249 # 10900f9 <tohost-0x7ef6ff07>
    800012e4:	00c31313          	slli	t1,t1,0xc
    800012e8:	f0f30313          	addi	t1,t1,-241
    800012ec:	00c31313          	slli	t1,t1,0xc
    800012f0:	8e130313          	addi	t1,t1,-1823
    800012f4:	00d31313          	slli	t1,t1,0xd
    800012f8:	b1a30313          	addi	t1,t1,-1254
    800012fc:	01a43383          	ld	t2,26(s0)
    80001300:	00730463          	beq	t1,t2,80001308 <fromhost+0x12c8>
    80001304:	1750106f          	j	80002c78 <fail>
    80001308:	01a00193          	li	gp,26
    8000130c:	01111337          	lui	t1,0x1111
    80001310:	9013031b          	addiw	t1,t1,-1791 # 1110901 <tohost-0x7eeef6ff>
    80001314:	00c31313          	slli	t1,t1,0xc
    80001318:	f8f30313          	addi	t1,t1,-113
    8000131c:	00c31313          	slli	t1,t1,0xc
    80001320:	0e930313          	addi	t1,t1,233
    80001324:	00d31313          	slli	t1,t1,0xd
    80001328:	c1b30313          	addi	t1,t1,-997
    8000132c:	01b43383          	ld	t2,27(s0)
    80001330:	00730463          	beq	t1,t2,80001338 <fromhost+0x12f8>
    80001334:	1450106f          	j	80002c78 <fail>
    80001338:	01b00193          	li	gp,27
    8000133c:	00119337          	lui	t1,0x119
    80001340:	1113031b          	addiw	t1,t1,273 # 119111 <tohost-0x7fee6eef>
    80001344:	00c31313          	slli	t1,t1,0xc
    80001348:	90130313          	addi	t1,t1,-1791
    8000134c:	01031313          	slli	t1,t1,0x10
    80001350:	8f130313          	addi	t1,t1,-1807
    80001354:	00d31313          	slli	t1,t1,0xd
    80001358:	d1c30313          	addi	t1,t1,-740
    8000135c:	01c43383          	ld	t2,28(s0)
    80001360:	00730463          	beq	t1,t2,80001368 <fromhost+0x1328>
    80001364:	1150106f          	j	80002c78 <fail>
    80001368:	01c00193          	li	gp,28
    8000136c:	00121337          	lui	t1,0x121
    80001370:	1913031b          	addiw	t1,t1,401 # 121191 <tohost-0x7fedee6f>
    80001374:	00c31313          	slli	t1,t1,0xc
    80001378:	10930313          	addi	t1,t1,265
    8000137c:	01031313          	slli	t1,t1,0x10
    80001380:	0f930313          	addi	t1,t1,249
    80001384:	00d31313          	slli	t1,t1,0xd
    80001388:	e1d30313          	addi	t1,t1,-483
    8000138c:	01d43383          	ld	t2,29(s0)
    80001390:	00730463          	beq	t1,t2,80001398 <fromhost+0x1358>
    80001394:	0e50106f          	j	80002c78 <fail>
    80001398:	01d00193          	li	gp,29
    8000139c:	01292337          	lui	t1,0x1292
    800013a0:	1193031b          	addiw	t1,t1,281 # 1292119 <tohost-0x7ed6dee7>
    800013a4:	00c31313          	slli	t1,t1,0xc
    800013a8:	11130313          	addi	t1,t1,273
    800013ac:	00c31313          	slli	t1,t1,0xc
    800013b0:	90130313          	addi	t1,t1,-1791
    800013b4:	00d31313          	slli	t1,t1,0xd
    800013b8:	f1e30313          	addi	t1,t1,-226
    800013bc:	01e43383          	ld	t2,30(s0)
    800013c0:	00730463          	beq	t1,t2,800013c8 <fromhost+0x1388>
    800013c4:	0b50106f          	j	80002c78 <fail>
    800013c8:	01e00193          	li	gp,30
    800013cc:	01313337          	lui	t1,0x1313
    800013d0:	9213031b          	addiw	t1,t1,-1759 # 1312921 <tohost-0x7eced6df>
    800013d4:	00c31313          	slli	t1,t1,0xc
    800013d8:	19130313          	addi	t1,t1,401
    800013dc:	00c31313          	slli	t1,t1,0xc
    800013e0:	10930313          	addi	t1,t1,265
    800013e4:	00d31313          	slli	t1,t1,0xd
    800013e8:	01f30313          	addi	t1,t1,31
    800013ec:	01f43383          	ld	t2,31(s0)
    800013f0:	00730463          	beq	t1,t2,800013f8 <fromhost+0x13b8>
    800013f4:	0850106f          	j	80002c78 <fail>
    800013f8:	01f00193          	li	gp,31
    800013fc:	00004337          	lui	t1,0x4
    80001400:	03f3031b          	addiw	t1,t1,63 # 403f <tohost-0x7fffbfc1>
    80001404:	03f41383          	lh	t2,63(s0)
    80001408:	00730463          	beq	t1,t2,80001410 <fromhost+0x13d0>
    8000140c:	06d0106f          	j	80002c78 <fail>
    80001410:	02000193          	li	gp,32
    80001414:	00004337          	lui	t1,0x4
    80001418:	03f3031b          	addiw	t1,t1,63 # 403f <tohost-0x7fffbfc1>
    8000141c:	03f45383          	lhu	t2,63(s0)
    80001420:	00730463          	beq	t1,t2,80001428 <fromhost+0x13e8>
    80001424:	0550106f          	j	80002c78 <fail>
    80001428:	02100193          	li	gp,33
    8000142c:	403f4337          	lui	t1,0x403f4
    80001430:	e3d3031b          	addiw	t1,t1,-451 # 403f3e3d <tohost-0x3fc0c1c3>
    80001434:	03d42383          	lw	t2,61(s0)
    80001438:	00730463          	beq	t1,t2,80001440 <fromhost+0x1400>
    8000143c:	03d0106f          	j	80002c78 <fail>
    80001440:	02200193          	li	gp,34
    80001444:	41404337          	lui	t1,0x41404
    80001448:	f3e3031b          	addiw	t1,t1,-194 # 41403f3e <tohost-0x3ebfc0c2>
    8000144c:	03e42383          	lw	t2,62(s0)
    80001450:	00730463          	beq	t1,t2,80001458 <fromhost+0x1418>
    80001454:	0250106f          	j	80002c78 <fail>
    80001458:	02300193          	li	gp,35
    8000145c:	42414337          	lui	t1,0x42414
    80001460:	03f3031b          	addiw	t1,t1,63 # 4241403f <tohost-0x3dbebfc1>
    80001464:	03f42383          	lw	t2,63(s0)
    80001468:	00730463          	beq	t1,t2,80001470 <fromhost+0x1430>
    8000146c:	00d0106f          	j	80002c78 <fail>
    80001470:	02400193          	li	gp,36
    80001474:	403f4337          	lui	t1,0x403f4
    80001478:	e3d3031b          	addiw	t1,t1,-451 # 403f3e3d <tohost-0x3fc0c1c3>
    8000147c:	03d46383          	lwu	t2,61(s0)
    80001480:	00730463          	beq	t1,t2,80001488 <fromhost+0x1448>
    80001484:	7f40106f          	j	80002c78 <fail>
    80001488:	02500193          	li	gp,37
    8000148c:	41404337          	lui	t1,0x41404
    80001490:	f3e3031b          	addiw	t1,t1,-194 # 41403f3e <tohost-0x3ebfc0c2>
    80001494:	03e46383          	lwu	t2,62(s0)
    80001498:	00730463          	beq	t1,t2,800014a0 <fromhost+0x1460>
    8000149c:	7dc0106f          	j	80002c78 <fail>
    800014a0:	02600193          	li	gp,38
    800014a4:	42414337          	lui	t1,0x42414
    800014a8:	03f3031b          	addiw	t1,t1,63 # 4241403f <tohost-0x3dbebfc1>
    800014ac:	03f46383          	lwu	t2,63(s0)
    800014b0:	00730463          	beq	t1,t2,800014b8 <fromhost+0x1478>
    800014b4:	7c40106f          	j	80002c78 <fail>
    800014b8:	02700193          	li	gp,39
    800014bc:	01010337          	lui	t1,0x1010
    800014c0:	cf93031b          	addiw	t1,t1,-775 # 100fcf9 <tohost-0x7eff0307>
    800014c4:	00c31313          	slli	t1,t1,0xc
    800014c8:	f4f30313          	addi	t1,t1,-177
    800014cc:	00c31313          	slli	t1,t1,0xc
    800014d0:	0ed30313          	addi	t1,t1,237
    800014d4:	00e31313          	slli	t1,t1,0xe
    800014d8:	a3930313          	addi	t1,t1,-1479
    800014dc:	03943383          	ld	t2,57(s0)
    800014e0:	00730463          	beq	t1,t2,800014e8 <fromhost+0x14a8>
    800014e4:	7940106f          	j	80002c78 <fail>
    800014e8:	02800193          	li	gp,40
    800014ec:	01050337          	lui	t1,0x1050
    800014f0:	0fd3031b          	addiw	t1,t1,253 # 10500fd <tohost-0x7efaff03>
    800014f4:	00c31313          	slli	t1,t1,0xc
    800014f8:	f8f30313          	addi	t1,t1,-113
    800014fc:	00c31313          	slli	t1,t1,0xc
    80001500:	4f130313          	addi	t1,t1,1265
    80001504:	00e31313          	slli	t1,t1,0xe
    80001508:	b3a30313          	addi	t1,t1,-1222
    8000150c:	03a43383          	ld	t2,58(s0)
    80001510:	00730463          	beq	t1,t2,80001518 <fromhost+0x14d8>
    80001514:	7640106f          	j	80002c78 <fail>
    80001518:	02900193          	li	gp,41
    8000151c:	00011337          	lui	t1,0x11
    80001520:	9053031b          	addiw	t1,t1,-1787 # 10905 <tohost-0x7ffef6fb>
    80001524:	01031313          	slli	t1,t1,0x10
    80001528:	0fd30313          	addi	t1,t1,253
    8000152c:	01031313          	slli	t1,t1,0x10
    80001530:	8f530313          	addi	t1,t1,-1803
    80001534:	00e31313          	slli	t1,t1,0xe
    80001538:	c3b30313          	addi	t1,t1,-965
    8000153c:	03b43383          	ld	t2,59(s0)
    80001540:	00730463          	beq	t1,t2,80001548 <fromhost+0x1508>
    80001544:	7340106f          	j	80002c78 <fail>
    80001548:	02a00193          	li	gp,42
    8000154c:	00011337          	lui	t1,0x11
    80001550:	d093031b          	addiw	t1,t1,-759 # 10d09 <tohost-0x7ffef2f7>
    80001554:	01031313          	slli	t1,t1,0x10
    80001558:	50130313          	addi	t1,t1,1281
    8000155c:	01031313          	slli	t1,t1,0x10
    80001560:	cf930313          	addi	t1,t1,-775
    80001564:	00e31313          	slli	t1,t1,0xe
    80001568:	d3c30313          	addi	t1,t1,-708
    8000156c:	03c43383          	ld	t2,60(s0)
    80001570:	00730463          	beq	t1,t2,80001578 <fromhost+0x1538>
    80001574:	7040106f          	j	80002c78 <fail>
    80001578:	02b00193          	li	gp,43
    8000157c:	00111337          	lui	t1,0x111
    80001580:	0d13031b          	addiw	t1,t1,209 # 1110d1 <tohost-0x7feeef2f>
    80001584:	00c31313          	slli	t1,t1,0xc
    80001588:	90530313          	addi	t1,t1,-1787
    8000158c:	01031313          	slli	t1,t1,0x10
    80001590:	0fd30313          	addi	t1,t1,253
    80001594:	00e31313          	slli	t1,t1,0xe
    80001598:	e3d30313          	addi	t1,t1,-451
    8000159c:	03d43383          	ld	t2,61(s0)
    800015a0:	00730463          	beq	t1,t2,800015a8 <fromhost+0x1568>
    800015a4:	6d40106f          	j	80002c78 <fail>
    800015a8:	02c00193          	li	gp,44
    800015ac:	00115337          	lui	t1,0x115
    800015b0:	1113031b          	addiw	t1,t1,273 # 115111 <tohost-0x7feeaeef>
    800015b4:	00c31313          	slli	t1,t1,0xc
    800015b8:	d0930313          	addi	t1,t1,-759
    800015bc:	01031313          	slli	t1,t1,0x10
    800015c0:	50130313          	addi	t1,t1,1281
    800015c4:	00e31313          	slli	t1,t1,0xe
    800015c8:	f3e30313          	addi	t1,t1,-194
    800015cc:	03e43383          	ld	t2,62(s0)
    800015d0:	00730463          	beq	t1,t2,800015d8 <fromhost+0x1598>
    800015d4:	6a40106f          	j	80002c78 <fail>
    800015d8:	02d00193          	li	gp,45
    800015dc:	01191337          	lui	t1,0x1191
    800015e0:	5113031b          	addiw	t1,t1,1297 # 1191511 <tohost-0x7ee6eaef>
    800015e4:	00c31313          	slli	t1,t1,0xc
    800015e8:	0d130313          	addi	t1,t1,209
    800015ec:	00c31313          	slli	t1,t1,0xc
    800015f0:	90530313          	addi	t1,t1,-1787
    800015f4:	00e31313          	slli	t1,t1,0xe
    800015f8:	03f30313          	addi	t1,t1,63
    800015fc:	03f43383          	ld	t2,63(s0)
    80001600:	00730463          	beq	t1,t2,80001608 <fromhost+0x15c8>
    80001604:	6740106f          	j	80002c78 <fail>
    80001608:	02e00193          	li	gp,46
    8000160c:	ffff8337          	lui	t1,0xffff8
    80001610:	1803031b          	addiw	t1,t1,384 # ffffffffffff8180 <_end+0xffffffff7fff4fe0>
    80001614:	006410a3          	sh	t1,1(s0)
    80001618:	00141383          	lh	t2,1(s0)
    8000161c:	00730463          	beq	t1,t2,80001624 <fromhost+0x15e4>
    80001620:	6580106f          	j	80002c78 <fail>
    80001624:	02f00193          	li	gp,47
    80001628:	00008337          	lui	t1,0x8
    8000162c:	3823031b          	addiw	t1,t1,898 # 8382 <tohost-0x7fff7c7e>
    80001630:	006410a3          	sh	t1,1(s0)
    80001634:	00145383          	lhu	t2,1(s0)
    80001638:	00730463          	beq	t1,t2,80001640 <fromhost+0x1600>
    8000163c:	63c0106f          	j	80002c78 <fail>
    80001640:	03000193          	li	gp,48
    80001644:	87868337          	lui	t1,0x87868
    80001648:	5843031b          	addiw	t1,t1,1412 # ffffffff87868584 <_end+0xffffffff078653e4>
    8000164c:	006420a3          	sw	t1,1(s0)
    80001650:	00142383          	lw	t2,1(s0)
    80001654:	00730463          	beq	t1,t2,8000165c <fromhost+0x161c>
    80001658:	6200106f          	j	80002c78 <fail>
    8000165c:	03100193          	li	gp,49
    80001660:	8b8a9337          	lui	t1,0x8b8a9
    80001664:	9883031b          	addiw	t1,t1,-1656 # ffffffff8b8a8988 <_end+0xffffffff0b8a57e8>
    80001668:	00642123          	sw	t1,2(s0)
    8000166c:	00242383          	lw	t2,2(s0)
    80001670:	00730463          	beq	t1,t2,80001678 <fromhost+0x1638>
    80001674:	6040106f          	j	80002c78 <fail>
    80001678:	03200193          	li	gp,50
    8000167c:	8f8e9337          	lui	t1,0x8f8e9
    80001680:	d8c3031b          	addiw	t1,t1,-628 # ffffffff8f8e8d8c <_end+0xffffffff0f8e5bec>
    80001684:	006421a3          	sw	t1,3(s0)
    80001688:	00342383          	lw	t2,3(s0)
    8000168c:	00730463          	beq	t1,t2,80001694 <fromhost+0x1654>
    80001690:	5e80106f          	j	80002c78 <fail>
    80001694:	03300193          	li	gp,51
    80001698:	00094337          	lui	t1,0x94
    8000169c:	9293031b          	addiw	t1,t1,-1751 # 93929 <tohost-0x7ff6c6d7>
    800016a0:	00c31313          	slli	t1,t1,0xc
    800016a4:	19030313          	addi	t1,t1,400
    800016a8:	006420a3          	sw	t1,1(s0)
    800016ac:	00146383          	lwu	t2,1(s0)
    800016b0:	00730463          	beq	t1,t2,800016b8 <fromhost+0x1678>
    800016b4:	5c40106f          	j	80002c78 <fail>
    800016b8:	03400193          	li	gp,52
    800016bc:	00098337          	lui	t1,0x98
    800016c0:	9693031b          	addiw	t1,t1,-1687 # 97969 <tohost-0x7ff68697>
    800016c4:	00c31313          	slli	t1,t1,0xc
    800016c8:	59430313          	addi	t1,t1,1428
    800016cc:	00642123          	sw	t1,2(s0)
    800016d0:	00246383          	lwu	t2,2(s0)
    800016d4:	00730463          	beq	t1,t2,800016dc <fromhost+0x169c>
    800016d8:	5a00106f          	j	80002c78 <fail>
    800016dc:	03500193          	li	gp,53
    800016e0:	0004e337          	lui	t1,0x4e
    800016e4:	cd53031b          	addiw	t1,t1,-811 # 4dcd5 <tohost-0x7ffb232b>
    800016e8:	00d31313          	slli	t1,t1,0xd
    800016ec:	99830313          	addi	t1,t1,-1640
    800016f0:	006421a3          	sw	t1,3(s0)
    800016f4:	00346383          	lwu	t2,3(s0)
    800016f8:	00730463          	beq	t1,t2,80001700 <fromhost+0x16c0>
    800016fc:	57c0106f          	j	80002c78 <fail>
    80001700:	03600193          	li	gp,54
    80001704:	ffd1d337          	lui	t1,0xffd1d
    80001708:	1513031b          	addiw	t1,t1,337 # ffffffffffd1d151 <_end+0xffffffff7fd19fb1>
    8000170c:	00c31313          	slli	t1,t1,0xc
    80001710:	d0530313          	addi	t1,t1,-763
    80001714:	01031313          	slli	t1,t1,0x10
    80001718:	cf530313          	addi	t1,t1,-779
    8000171c:	00d31313          	slli	t1,t1,0xd
    80001720:	d9c30313          	addi	t1,t1,-612
    80001724:	006430a3          	sd	t1,1(s0)
    80001728:	00143383          	ld	t2,1(s0)
    8000172c:	00730463          	beq	t1,t2,80001734 <fromhost+0x16f4>
    80001730:	5480106f          	j	80002c78 <fail>
    80001734:	03700193          	li	gp,55
    80001738:	ff575337          	lui	t1,0xff575
    8000173c:	5533031b          	addiw	t1,t1,1363 # ffffffffff575553 <_end+0xffffffff7f5723b3>
    80001740:	00c31313          	slli	t1,t1,0xc
    80001744:	51530313          	addi	t1,t1,1301
    80001748:	00e31313          	slli	t1,t1,0xe
    8000174c:	d3530313          	addi	t1,t1,-715
    80001750:	00d31313          	slli	t1,t1,0xd
    80001754:	5a430313          	addi	t1,t1,1444
    80001758:	00643123          	sd	t1,2(s0)
    8000175c:	00243383          	ld	t2,2(s0)
    80001760:	00730463          	beq	t1,t2,80001768 <fromhost+0x1728>
    80001764:	5140106f          	j	80002c78 <fail>
    80001768:	03800193          	li	gp,56
    8000176c:	ffd9e337          	lui	t1,0xffd9e
    80001770:	9593031b          	addiw	t1,t1,-1703 # ffffffffffd9d959 <_end+0xffffffff7fd9a7b9>
    80001774:	00d31313          	slli	t1,t1,0xd
    80001778:	b0b30313          	addi	t1,t1,-1269
    8000177c:	01031313          	slli	t1,t1,0x10
    80001780:	aeb30313          	addi	t1,t1,-1301
    80001784:	00c31313          	slli	t1,t1,0xc
    80001788:	dac30313          	addi	t1,t1,-596
    8000178c:	006431a3          	sd	t1,3(s0)
    80001790:	00343383          	ld	t2,3(s0)
    80001794:	00730463          	beq	t1,t2,8000179c <fromhost+0x175c>
    80001798:	4e00106f          	j	80002c78 <fail>
    8000179c:	03900193          	li	gp,57
    800017a0:	ff777337          	lui	t1,0xff777
    800017a4:	5733031b          	addiw	t1,t1,1395 # ffffffffff777573 <_end+0xffffffff7f7743d3>
    800017a8:	00c31313          	slli	t1,t1,0xc
    800017ac:	71730313          	addi	t1,t1,1815
    800017b0:	00f31313          	slli	t1,t1,0xf
    800017b4:	b6b30313          	addi	t1,t1,-1173
    800017b8:	00c31313          	slli	t1,t1,0xc
    800017bc:	5b430313          	addi	t1,t1,1460
    800017c0:	00643223          	sd	t1,4(s0)
    800017c4:	00443383          	ld	t2,4(s0)
    800017c8:	00730463          	beq	t1,t2,800017d0 <fromhost+0x1790>
    800017cc:	4ac0106f          	j	80002c78 <fail>
    800017d0:	03a00193          	li	gp,58
    800017d4:	ffff1337          	lui	t1,0xffff1
    800017d8:	f0b3031b          	addiw	t1,t1,-245 # ffffffffffff0f0b <_end+0xffffffff7ffedd6b>
    800017dc:	01031313          	slli	t1,t1,0x10
    800017e0:	70330313          	addi	t1,t1,1795
    800017e4:	01031313          	slli	t1,t1,0x10
    800017e8:	efb30313          	addi	t1,t1,-261
    800017ec:	00e31313          	slli	t1,t1,0xe
    800017f0:	dbc30313          	addi	t1,t1,-580
    800017f4:	006432a3          	sd	t1,5(s0)
    800017f8:	00543383          	ld	t2,5(s0)
    800017fc:	00730463          	beq	t1,t2,80001804 <fromhost+0x17c4>
    80001800:	4780106f          	j	80002c78 <fail>
    80001804:	03b00193          	li	gp,59
    80001808:	ffe5e337          	lui	t1,0xffe5e
    8000180c:	5653031b          	addiw	t1,t1,1381 # ffffffffffe5e565 <_end+0xffffffff7fe5b3c5>
    80001810:	00e31313          	slli	t1,t1,0xe
    80001814:	91930313          	addi	t1,t1,-1767
    80001818:	00d31313          	slli	t1,t1,0xd
    8000181c:	f1b30313          	addi	t1,t1,-229
    80001820:	00e31313          	slli	t1,t1,0xe
    80001824:	5c430313          	addi	t1,t1,1476
    80001828:	00643323          	sd	t1,6(s0)
    8000182c:	00643383          	ld	t2,6(s0)
    80001830:	00730463          	beq	t1,t2,80001838 <fromhost+0x17f8>
    80001834:	4440106f          	j	80002c78 <fail>
    80001838:	03c00193          	li	gp,60
    8000183c:	ffe9f337          	lui	t1,0xffe9f
    80001840:	9693031b          	addiw	t1,t1,-1687 # ffffffffffe9e969 <_end+0xffffffff7fe9b7c9>
    80001844:	00d31313          	slli	t1,t1,0xd
    80001848:	d0d30313          	addi	t1,t1,-755
    8000184c:	01031313          	slli	t1,t1,0x10
    80001850:	ced30313          	addi	t1,t1,-787
    80001854:	00c31313          	slli	t1,t1,0xc
    80001858:	dcc30313          	addi	t1,t1,-564
    8000185c:	006433a3          	sd	t1,7(s0)
    80001860:	00743383          	ld	t2,7(s0)
    80001864:	00730463          	beq	t1,t2,8000186c <fromhost+0x182c>
    80001868:	4100106f          	j	80002c78 <fail>
    8000186c:	03d00193          	li	gp,61
    80001870:	ffffd337          	lui	t1,0xffffd
    80001874:	5d43031b          	addiw	t1,t1,1492 # ffffffffffffd5d4 <_end+0xffffffff7fffa434>
    80001878:	00641fa3          	sh	t1,31(s0)
    8000187c:	01f41383          	lh	t2,31(s0)
    80001880:	00730463          	beq	t1,t2,80001888 <fromhost+0x1848>
    80001884:	3f40106f          	j	80002c78 <fail>
    80001888:	03e00193          	li	gp,62
    8000188c:	0000d337          	lui	t1,0xd
    80001890:	7d63031b          	addiw	t1,t1,2006 # d7d6 <tohost-0x7fff282a>
    80001894:	00641fa3          	sh	t1,31(s0)
    80001898:	01f45383          	lhu	t2,31(s0)
    8000189c:	00730463          	beq	t1,t2,800018a4 <fromhost+0x1864>
    800018a0:	3d80106f          	j	80002c78 <fail>
    800018a4:	03f00193          	li	gp,63
    800018a8:	dbdae337          	lui	t1,0xdbdae
    800018ac:	9d83031b          	addiw	t1,t1,-1576 # ffffffffdbdad9d8 <_end+0xffffffff5bdaa838>
    800018b0:	00642ea3          	sw	t1,29(s0)
    800018b4:	01d42383          	lw	t2,29(s0)
    800018b8:	00730463          	beq	t1,t2,800018c0 <fromhost+0x1880>
    800018bc:	3bc0106f          	j	80002c78 <fail>
    800018c0:	04000193          	li	gp,64
    800018c4:	dfdee337          	lui	t1,0xdfdee
    800018c8:	ddc3031b          	addiw	t1,t1,-548 # ffffffffdfdedddc <_end+0xffffffff5fdeac3c>
    800018cc:	00642f23          	sw	t1,30(s0)
    800018d0:	01e42383          	lw	t2,30(s0)
    800018d4:	00730463          	beq	t1,t2,800018dc <fromhost+0x189c>
    800018d8:	3a00106f          	j	80002c78 <fail>
    800018dc:	04100193          	li	gp,65
    800018e0:	e3e2e337          	lui	t1,0xe3e2e
    800018e4:	1e03031b          	addiw	t1,t1,480 # ffffffffe3e2e1e0 <_end+0xffffffff63e2b040>
    800018e8:	00642fa3          	sw	t1,31(s0)
    800018ec:	01f42383          	lw	t2,31(s0)
    800018f0:	00730463          	beq	t1,t2,800018f8 <fromhost+0x18b8>
    800018f4:	3840106f          	j	80002c78 <fail>
    800018f8:	04200193          	li	gp,66
    800018fc:	00074337          	lui	t1,0x74
    80001900:	f373031b          	addiw	t1,t1,-201 # 73f37 <tohost-0x7ff8c0c9>
    80001904:	00d31313          	slli	t1,t1,0xd
    80001908:	5e430313          	addi	t1,t1,1508
    8000190c:	00642ea3          	sw	t1,29(s0)
    80001910:	01d46383          	lwu	t2,29(s0)
    80001914:	00730463          	beq	t1,t2,8000191c <fromhost+0x18dc>
    80001918:	3600106f          	j	80002c78 <fail>
    8000191c:	04300193          	li	gp,67
    80001920:	000ec337          	lui	t1,0xec
    80001924:	eaf3031b          	addiw	t1,t1,-337 # ebeaf <tohost-0x7ff14151>
    80001928:	00c31313          	slli	t1,t1,0xc
    8000192c:	9e830313          	addi	t1,t1,-1560
    80001930:	00642f23          	sw	t1,30(s0)
    80001934:	01e46383          	lwu	t2,30(s0)
    80001938:	00730463          	beq	t1,t2,80001940 <fromhost+0x1900>
    8000193c:	33c0106f          	j	80002c78 <fail>
    80001940:	04400193          	li	gp,68
    80001944:	000f0337          	lui	t1,0xf0
    80001948:	eef3031b          	addiw	t1,t1,-273 # efeef <tohost-0x7ff10111>
    8000194c:	00c31313          	slli	t1,t1,0xc
    80001950:	dec30313          	addi	t1,t1,-532
    80001954:	00642fa3          	sw	t1,31(s0)
    80001958:	01f46383          	lwu	t2,31(s0)
    8000195c:	00730463          	beq	t1,t2,80001964 <fromhost+0x1924>
    80001960:	3180106f          	j	80002c78 <fail>
    80001964:	04500193          	li	gp,69
    80001968:	fffc0337          	lui	t1,0xfffc0
    8000196c:	b7b3031b          	addiw	t1,t1,-1157 # fffffffffffbfb7b <_end+0xffffffff7ffbc9db>
    80001970:	00f31313          	slli	t1,t1,0xf
    80001974:	d3d30313          	addi	t1,t1,-707
    80001978:	00e31313          	slli	t1,t1,0xe
    8000197c:	f2f30313          	addi	t1,t1,-209
    80001980:	00c31313          	slli	t1,t1,0xc
    80001984:	1f030313          	addi	t1,t1,496
    80001988:	00643ca3          	sd	t1,25(s0)
    8000198c:	01943383          	ld	t2,25(s0)
    80001990:	00730463          	beq	t1,t2,80001998 <fromhost+0x1958>
    80001994:	2e40106f          	j	80002c78 <fail>
    80001998:	04600193          	li	gp,70
    8000199c:	ffff0337          	lui	t1,0xffff0
    800019a0:	dfd3031b          	addiw	t1,t1,-515 # fffffffffffefdfd <_end+0xffffffff7ffecc5d>
    800019a4:	01031313          	slli	t1,t1,0x10
    800019a8:	bfb30313          	addi	t1,t1,-1029
    800019ac:	01031313          	slli	t1,t1,0x10
    800019b0:	9f830313          	addi	t1,t1,-1544
    800019b4:	00643d23          	sd	t1,26(s0)
    800019b8:	01a43383          	ld	t2,26(s0)
    800019bc:	00730463          	beq	t1,t2,800019c4 <fromhost+0x1984>
    800019c0:	2b80106f          	j	80002c78 <fail>
    800019c4:	04700193          	li	gp,71
    800019c8:	01c18337          	lui	t1,0x1c18
    800019cc:	1413031b          	addiw	t1,t1,321 # 1c18141 <tohost-0x7e3e7ebf>
    800019d0:	01131313          	slli	t1,t1,0x11
    800019d4:	18130313          	addi	t1,t1,385
    800019d8:	01131313          	slli	t1,t1,0x11
    800019dc:	10030313          	addi	t1,t1,256
    800019e0:	00643da3          	sd	t1,27(s0)
    800019e4:	01b43383          	ld	t2,27(s0)
    800019e8:	00730463          	beq	t1,t2,800019f0 <fromhost+0x19b0>
    800019ec:	28c0106f          	j	80002c78 <fail>
    800019f0:	04800193          	li	gp,72
    800019f4:	00f0e337          	lui	t1,0xf0e
    800019f8:	0d13031b          	addiw	t1,t1,209 # f0e0d1 <tohost-0x7f0f1f2f>
    800019fc:	00c31313          	slli	t1,t1,0xc
    80001a00:	c0b30313          	addi	t1,t1,-1013
    80001a04:	00c31313          	slli	t1,t1,0xc
    80001a08:	0a130313          	addi	t1,t1,161
    80001a0c:	00c31313          	slli	t1,t1,0xc
    80001a10:	90830313          	addi	t1,t1,-1784
    80001a14:	00643e23          	sd	t1,28(s0)
    80001a18:	01c43383          	ld	t2,28(s0)
    80001a1c:	00730463          	beq	t1,t2,80001a24 <fromhost+0x19e4>
    80001a20:	2580106f          	j	80002c78 <fail>
    80001a24:	04900193          	li	gp,73
    80001a28:	01716337          	lui	t1,0x1716
    80001a2c:	1513031b          	addiw	t1,t1,337 # 1716151 <tohost-0x7e8e9eaf>
    80001a30:	00c31313          	slli	t1,t1,0xc
    80001a34:	41330313          	addi	t1,t1,1043
    80001a38:	00c31313          	slli	t1,t1,0xc
    80001a3c:	12130313          	addi	t1,t1,289
    80001a40:	00c31313          	slli	t1,t1,0xc
    80001a44:	11030313          	addi	t1,t1,272
    80001a48:	00643ea3          	sd	t1,29(s0)
    80001a4c:	01d43383          	ld	t2,29(s0)
    80001a50:	00730463          	beq	t1,t2,80001a58 <fromhost+0x1a18>
    80001a54:	2240106f          	j	80002c78 <fail>
    80001a58:	04a00193          	li	gp,74
    80001a5c:	001f2337          	lui	t1,0x1f2
    80001a60:	e1d3031b          	addiw	t1,t1,-483 # 1f1e1d <tohost-0x7fe0e1e3>
    80001a64:	00e31313          	slli	t1,t1,0xe
    80001a68:	70730313          	addi	t1,t1,1799
    80001a6c:	00d31313          	slli	t1,t1,0xd
    80001a70:	8d130313          	addi	t1,t1,-1839
    80001a74:	00d31313          	slli	t1,t1,0xd
    80001a78:	91830313          	addi	t1,t1,-1768
    80001a7c:	00643f23          	sd	t1,30(s0)
    80001a80:	01e43383          	ld	t2,30(s0)
    80001a84:	00730463          	beq	t1,t2,80001a8c <fromhost+0x1a4c>
    80001a88:	1f00106f          	j	80002c78 <fail>
    80001a8c:	04b00193          	li	gp,75
    80001a90:	009ca337          	lui	t1,0x9ca
    80001a94:	8953031b          	addiw	t1,t1,-1899 # 9c9895 <tohost-0x7f63676b>
    80001a98:	00c31313          	slli	t1,t1,0xc
    80001a9c:	90930313          	addi	t1,t1,-1783
    80001aa0:	00d31313          	slli	t1,t1,0xd
    80001aa4:	91130313          	addi	t1,t1,-1775
    80001aa8:	00d31313          	slli	t1,t1,0xd
    80001aac:	12030313          	addi	t1,t1,288
    80001ab0:	00643fa3          	sd	t1,31(s0)
    80001ab4:	01f43383          	ld	t2,31(s0)
    80001ab8:	00730463          	beq	t1,t2,80001ac0 <fromhost+0x1a80>
    80001abc:	1bc0106f          	j	80002c78 <fail>
    80001ac0:	04c00193          	li	gp,76
    80001ac4:	00003337          	lui	t1,0x3
    80001ac8:	5343031b          	addiw	t1,t1,1332 # 3534 <tohost-0x7fffcacc>
    80001acc:	02641fa3          	sh	t1,63(s0)
    80001ad0:	03f41383          	lh	t2,63(s0)
    80001ad4:	00730463          	beq	t1,t2,80001adc <fromhost+0x1a9c>
    80001ad8:	1a00106f          	j	80002c78 <fail>
    80001adc:	04d00193          	li	gp,77
    80001ae0:	00003337          	lui	t1,0x3
    80001ae4:	7363031b          	addiw	t1,t1,1846 # 3736 <tohost-0x7fffc8ca>
    80001ae8:	02641fa3          	sh	t1,63(s0)
    80001aec:	03f45383          	lhu	t2,63(s0)
    80001af0:	00730463          	beq	t1,t2,80001af8 <fromhost+0x1ab8>
    80001af4:	1840106f          	j	80002c78 <fail>
    80001af8:	04e00193          	li	gp,78
    80001afc:	3b3a4337          	lui	t1,0x3b3a4
    80001b00:	9383031b          	addiw	t1,t1,-1736 # 3b3a3938 <tohost-0x44c5c6c8>
    80001b04:	02642ea3          	sw	t1,61(s0)
    80001b08:	03d42383          	lw	t2,61(s0)
    80001b0c:	00730463          	beq	t1,t2,80001b14 <fromhost+0x1ad4>
    80001b10:	1680106f          	j	80002c78 <fail>
    80001b14:	04f00193          	li	gp,79
    80001b18:	3f3e4337          	lui	t1,0x3f3e4
    80001b1c:	d3c3031b          	addiw	t1,t1,-708 # 3f3e3d3c <tohost-0x40c1c2c4>
    80001b20:	02642f23          	sw	t1,62(s0)
    80001b24:	03e42383          	lw	t2,62(s0)
    80001b28:	00730463          	beq	t1,t2,80001b30 <fromhost+0x1af0>
    80001b2c:	14c0106f          	j	80002c78 <fail>
    80001b30:	05000193          	li	gp,80
    80001b34:	43424337          	lui	t1,0x43424
    80001b38:	1403031b          	addiw	t1,t1,320 # 43424140 <tohost-0x3cbdbec0>
    80001b3c:	02642fa3          	sw	t1,63(s0)
    80001b40:	03f42383          	lw	t2,63(s0)
    80001b44:	00730463          	beq	t1,t2,80001b4c <fromhost+0x1b0c>
    80001b48:	1300106f          	j	80002c78 <fail>
    80001b4c:	05100193          	li	gp,81
    80001b50:	47464337          	lui	t1,0x47464
    80001b54:	5443031b          	addiw	t1,t1,1348 # 47464544 <tohost-0x38b9babc>
    80001b58:	02642ea3          	sw	t1,61(s0)
    80001b5c:	03d46383          	lwu	t2,61(s0)
    80001b60:	00730463          	beq	t1,t2,80001b68 <fromhost+0x1b28>
    80001b64:	1140106f          	j	80002c78 <fail>
    80001b68:	05200193          	li	gp,82
    80001b6c:	4b4a5337          	lui	t1,0x4b4a5
    80001b70:	9483031b          	addiw	t1,t1,-1720 # 4b4a4948 <tohost-0x34b5b6b8>
    80001b74:	02642f23          	sw	t1,62(s0)
    80001b78:	03e46383          	lwu	t2,62(s0)
    80001b7c:	00730463          	beq	t1,t2,80001b84 <fromhost+0x1b44>
    80001b80:	0f80106f          	j	80002c78 <fail>
    80001b84:	05300193          	li	gp,83
    80001b88:	4f4e5337          	lui	t1,0x4f4e5
    80001b8c:	d4c3031b          	addiw	t1,t1,-692 # 4f4e4d4c <tohost-0x30b1b2b4>
    80001b90:	02642fa3          	sw	t1,63(s0)
    80001b94:	03f46383          	lwu	t2,63(s0)
    80001b98:	00730463          	beq	t1,t2,80001ba0 <fromhost+0x1b60>
    80001b9c:	0dc0106f          	j	80002c78 <fail>
    80001ba0:	05400193          	li	gp,84
    80001ba4:	05756337          	lui	t1,0x5756
    80001ba8:	5553031b          	addiw	t1,t1,1365 # 5756555 <tohost-0x7a8a9aab>
    80001bac:	00c31313          	slli	t1,t1,0xc
    80001bb0:	45330313          	addi	t1,t1,1107
    80001bb4:	00c31313          	slli	t1,t1,0xc
    80001bb8:	52530313          	addi	t1,t1,1317
    80001bbc:	00c31313          	slli	t1,t1,0xc
    80001bc0:	15030313          	addi	t1,t1,336
    80001bc4:	02643ca3          	sd	t1,57(s0)
    80001bc8:	03943383          	ld	t2,57(s0)
    80001bcc:	00730463          	beq	t1,t2,80001bd4 <fromhost+0x1b94>
    80001bd0:	0a80106f          	j	80002c78 <fail>
    80001bd4:	05500193          	li	gp,85
    80001bd8:	017d8337          	lui	t1,0x17d8
    80001bdc:	9753031b          	addiw	t1,t1,-1675 # 17d7975 <tohost-0x7e82868b>
    80001be0:	00c31313          	slli	t1,t1,0xc
    80001be4:	71730313          	addi	t1,t1,1815
    80001be8:	00d31313          	slli	t1,t1,0xd
    80001bec:	ad330313          	addi	t1,t1,-1325
    80001bf0:	00d31313          	slli	t1,t1,0xd
    80001bf4:	95830313          	addi	t1,t1,-1704
    80001bf8:	02643d23          	sd	t1,58(s0)
    80001bfc:	03a43383          	ld	t2,58(s0)
    80001c00:	00730463          	beq	t1,t2,80001c08 <fromhost+0x1bc8>
    80001c04:	0740106f          	j	80002c78 <fail>
    80001c08:	05600193          	li	gp,86
    80001c0c:	00ced337          	lui	t1,0xced
    80001c10:	ccb3031b          	addiw	t1,t1,-821 # cecccb <tohost-0x7f313335>
    80001c14:	00d31313          	slli	t1,t1,0xd
    80001c18:	91930313          	addi	t1,t1,-1767
    80001c1c:	00d31313          	slli	t1,t1,0xd
    80001c20:	b1330313          	addi	t1,t1,-1261
    80001c24:	00d31313          	slli	t1,t1,0xd
    80001c28:	16030313          	addi	t1,t1,352
    80001c2c:	02643da3          	sd	t1,59(s0)
    80001c30:	03b43383          	ld	t2,59(s0)
    80001c34:	00730463          	beq	t1,t2,80001c3c <fromhost+0x1bfc>
    80001c38:	0400106f          	j	80002c78 <fail>
    80001c3c:	05700193          	li	gp,87
    80001c40:	06f6e337          	lui	t1,0x6f6e
    80001c44:	6d73031b          	addiw	t1,t1,1751 # 6f6e6d7 <tohost-0x79091929>
    80001c48:	00c31313          	slli	t1,t1,0xc
    80001c4c:	c6b30313          	addi	t1,t1,-917
    80001c50:	00c31313          	slli	t1,t1,0xc
    80001c54:	6a730313          	addi	t1,t1,1703
    80001c58:	00c31313          	slli	t1,t1,0xc
    80001c5c:	96830313          	addi	t1,t1,-1688
    80001c60:	02643e23          	sd	t1,60(s0)
    80001c64:	03c43383          	ld	t2,60(s0)
    80001c68:	00730463          	beq	t1,t2,80001c70 <fromhost+0x1c30>
    80001c6c:	00c0106f          	j	80002c78 <fail>
    80001c70:	05800193          	li	gp,88
    80001c74:	07776337          	lui	t1,0x7776
    80001c78:	7573031b          	addiw	t1,t1,1879 # 7776757 <tohost-0x788898a9>
    80001c7c:	00c31313          	slli	t1,t1,0xc
    80001c80:	47330313          	addi	t1,t1,1139
    80001c84:	00c31313          	slli	t1,t1,0xc
    80001c88:	72730313          	addi	t1,t1,1831
    80001c8c:	00c31313          	slli	t1,t1,0xc
    80001c90:	17030313          	addi	t1,t1,368
    80001c94:	02643ea3          	sd	t1,61(s0)
    80001c98:	03d43383          	ld	t2,61(s0)
    80001c9c:	7c731ee3          	bne	t1,t2,80002c78 <fail>
    80001ca0:	05900193          	li	gp,89
    80001ca4:	00ff0337          	lui	t1,0xff0
    80001ca8:	cfb3031b          	addiw	t1,t1,-773 # fefcfb <tohost-0x7f010305>
    80001cac:	00c31313          	slli	t1,t1,0xc
    80001cb0:	f8f30313          	addi	t1,t1,-113
    80001cb4:	00c31313          	slli	t1,t1,0xc
    80001cb8:	6f530313          	addi	t1,t1,1781
    80001cbc:	00f31313          	slli	t1,t1,0xf
    80001cc0:	97830313          	addi	t1,t1,-1672
    80001cc4:	02643f23          	sd	t1,62(s0)
    80001cc8:	03e43383          	ld	t2,62(s0)
    80001ccc:	7a7316e3          	bne	t1,t2,80002c78 <fail>
    80001cd0:	05a00193          	li	gp,90
    80001cd4:	fff0f337          	lui	t1,0xfff0f
    80001cd8:	0d13031b          	addiw	t1,t1,209 # fffffffffff0f0d1 <_end+0xffffffff7ff0bf31>
    80001cdc:	00c31313          	slli	t1,t1,0xc
    80001ce0:	b0930313          	addi	t1,t1,-1271
    80001ce4:	01031313          	slli	t1,t1,0x10
    80001ce8:	70530313          	addi	t1,t1,1797
    80001cec:	00f31313          	slli	t1,t1,0xf
    80001cf0:	18030313          	addi	t1,t1,384
    80001cf4:	02643fa3          	sd	t1,63(s0)
    80001cf8:	03f43383          	ld	t2,63(s0)
    80001cfc:	76731ee3          	bne	t1,t2,80002c78 <fail>
    80001d00:	05b00193          	li	gp,91
    80001d04:	0000a337          	lui	t1,0xa
    80001d08:	9983031b          	addiw	t1,t1,-1640 # 9998 <tohost-0x7fff6668>
    80001d0c:	f9800393          	li	t2,-104
    80001d10:	006410a3          	sh	t1,1(s0)
    80001d14:	00140e03          	lb	t3,1(s0)
    80001d18:	77c390e3          	bne	t2,t3,80002c78 <fail>
    80001d1c:	05c00193          	li	gp,92
    80001d20:	0000a337          	lui	t1,0xa
    80001d24:	b9a3031b          	addiw	t1,t1,-1126 # 9b9a <tohost-0x7fff6466>
    80001d28:	f9b00393          	li	t2,-101
    80001d2c:	006410a3          	sh	t1,1(s0)
    80001d30:	00240e03          	lb	t3,2(s0)
    80001d34:	75c392e3          	bne	t2,t3,80002c78 <fail>
    80001d38:	05d00193          	li	gp,93
    80001d3c:	0000a337          	lui	t1,0xa
    80001d40:	d9c3031b          	addiw	t1,t1,-612 # 9d9c <tohost-0x7fff6264>
    80001d44:	09c00393          	li	t2,156
    80001d48:	006410a3          	sh	t1,1(s0)
    80001d4c:	00144e03          	lbu	t3,1(s0)
    80001d50:	73c394e3          	bne	t2,t3,80002c78 <fail>
    80001d54:	05e00193          	li	gp,94
    80001d58:	0000a337          	lui	t1,0xa
    80001d5c:	f9e3031b          	addiw	t1,t1,-98 # 9f9e <tohost-0x7fff6062>
    80001d60:	09f00393          	li	t2,159
    80001d64:	006410a3          	sh	t1,1(s0)
    80001d68:	00244e03          	lbu	t3,2(s0)
    80001d6c:	71c396e3          	bne	t2,t3,80002c78 <fail>
    80001d70:	05f00193          	li	gp,95
    80001d74:	00052337          	lui	t1,0x52
    80001d78:	d153031b          	addiw	t1,t1,-747 # 51d15 <tohost-0x7ffae2eb>
    80001d7c:	00d31313          	slli	t1,t1,0xd
    80001d80:	1a030313          	addi	t1,t1,416
    80001d84:	fa000393          	li	t2,-96
    80001d88:	006420a3          	sw	t1,1(s0)
    80001d8c:	00140e03          	lb	t3,1(s0)
    80001d90:	6fc394e3          	bne	t2,t3,80002c78 <fail>
    80001d94:	06000193          	li	gp,96
    80001d98:	00054337          	lui	t1,0x54
    80001d9c:	d353031b          	addiw	t1,t1,-715 # 53d35 <tohost-0x7ffac2cb>
    80001da0:	00d31313          	slli	t1,t1,0xd
    80001da4:	5a430313          	addi	t1,t1,1444
    80001da8:	0a500393          	li	t2,165
    80001dac:	00642123          	sw	t1,2(s0)
    80001db0:	00344e03          	lbu	t3,3(s0)
    80001db4:	6dc392e3          	bne	t2,t3,80002c78 <fail>
    80001db8:	06100193          	li	gp,97
    80001dbc:	000ac337          	lui	t1,0xac
    80001dc0:	aab3031b          	addiw	t1,t1,-1365 # abaab <tohost-0x7ff54555>
    80001dc4:	00c31313          	slli	t1,t1,0xc
    80001dc8:	9a830313          	addi	t1,t1,-1624
    80001dcc:	ffffb3b7          	lui	t2,0xffffb
    80001dd0:	aa93839b          	addiw	t2,t2,-1367 # ffffffffffffaaa9 <_end+0xffffffff7fff7909>
    80001dd4:	006421a3          	sw	t1,3(s0)
    80001dd8:	00441e03          	lh	t3,4(s0)
    80001ddc:	69c39ee3          	bne	t2,t3,80002c78 <fail>
    80001de0:	06200193          	li	gp,98
    80001de4:	000b0337          	lui	t1,0xb0
    80001de8:	aeb3031b          	addiw	t1,t1,-1301 # afaeb <tohost-0x7ff50515>
    80001dec:	00c31313          	slli	t1,t1,0xc
    80001df0:	dac30313          	addi	t1,t1,-596
    80001df4:	0000b3b7          	lui	t2,0xb
    80001df8:	fae3839b          	addiw	t2,t2,-82 # afae <tohost-0x7fff5052>
    80001dfc:	006421a3          	sw	t1,3(s0)
    80001e00:	00545e03          	lhu	t3,5(s0)
    80001e04:	67c39ae3          	bne	t2,t3,80002c78 <fail>
    80001e08:	06300193          	li	gp,99
    80001e0c:	fedee337          	lui	t1,0xfedee
    80001e10:	ad73031b          	addiw	t1,t1,-1321 # fffffffffededad7 <_end+0xffffffff7edea937>
    80001e14:	00c31313          	slli	t1,t1,0xc
    80001e18:	d2d30313          	addi	t1,t1,-723
    80001e1c:	00e31313          	slli	t1,t1,0xe
    80001e20:	b2b30313          	addi	t1,t1,-1237
    80001e24:	00c31313          	slli	t1,t1,0xc
    80001e28:	1b030313          	addi	t1,t1,432
    80001e2c:	fb600393          	li	t2,-74
    80001e30:	006430a3          	sd	t1,1(s0)
    80001e34:	00740e03          	lb	t3,7(s0)
    80001e38:	65c390e3          	bne	t2,t3,80002c78 <fail>
    80001e3c:	06400193          	li	gp,100
    80001e40:	feff0337          	lui	t1,0xfeff0
    80001e44:	af73031b          	addiw	t1,t1,-1289 # fffffffffefefaf7 <_end+0xffffffff7efec957>
    80001e48:	00c31313          	slli	t1,t1,0xc
    80001e4c:	f2f30313          	addi	t1,t1,-209
    80001e50:	00c31313          	slli	t1,t1,0xc
    80001e54:	eeb30313          	addi	t1,t1,-277
    80001e58:	00e31313          	slli	t1,t1,0xe
    80001e5c:	9b830313          	addi	t1,t1,-1608
    80001e60:	0b900393          	li	t2,185
    80001e64:	00643123          	sd	t1,2(s0)
    80001e68:	00344e03          	lbu	t3,3(s0)
    80001e6c:	61c396e3          	bne	t2,t3,80002c78 <fail>
    80001e70:	06500193          	li	gp,101
    80001e74:	ff1f2337          	lui	t1,0xff1f2
    80001e78:	b173031b          	addiw	t1,t1,-1257 # ffffffffff1f1b17 <_end+0xffffffff7f1ee977>
    80001e7c:	00c31313          	slli	t1,t1,0xc
    80001e80:	13130313          	addi	t1,t1,305
    80001e84:	00c31313          	slli	t1,t1,0xc
    80001e88:	f0b30313          	addi	t1,t1,-245
    80001e8c:	00e31313          	slli	t1,t1,0xe
    80001e90:	1c030313          	addi	t1,t1,448
    80001e94:	ffffc3b7          	lui	t2,0xffffc
    80001e98:	7c63839b          	addiw	t2,t2,1990 # ffffffffffffc7c6 <_end+0xffffffff7fff9626>
    80001e9c:	006431a3          	sd	t1,3(s0)
    80001ea0:	00941e03          	lh	t3,9(s0)
    80001ea4:	5dc39ae3          	bne	t2,t3,80002c78 <fail>
    80001ea8:	06600193          	li	gp,102
    80001eac:	ff3f4337          	lui	t1,0xff3f4
    80001eb0:	b373031b          	addiw	t1,t1,-1225 # ffffffffff3f3b37 <_end+0xffffffff7f3f0997>
    80001eb4:	00c31313          	slli	t1,t1,0xc
    80001eb8:	33330313          	addi	t1,t1,819
    80001ebc:	00e31313          	slli	t1,t1,0xe
    80001ec0:	cad30313          	addi	t1,t1,-851
    80001ec4:	00c31313          	slli	t1,t1,0xc
    80001ec8:	9c830313          	addi	t1,t1,-1592
    80001ecc:	0000d3b7          	lui	t2,0xd
    80001ed0:	ac93839b          	addiw	t2,t2,-1335 # cac9 <tohost-0x7fff3537>
    80001ed4:	00643223          	sd	t1,4(s0)
    80001ed8:	00545e03          	lhu	t3,5(s0)
    80001edc:	59c39ee3          	bne	t2,t3,80002c78 <fail>
    80001ee0:	06700193          	li	gp,103
    80001ee4:	ff5f6337          	lui	t1,0xff5f6
    80001ee8:	b573031b          	addiw	t1,t1,-1193 # ffffffffff5f5b57 <_end+0xffffffff7f5f29b7>
    80001eec:	00c31313          	slli	t1,t1,0xc
    80001ef0:	53530313          	addi	t1,t1,1333
    80001ef4:	00e31313          	slli	t1,t1,0xe
    80001ef8:	d2d30313          	addi	t1,t1,-723
    80001efc:	00c31313          	slli	t1,t1,0xc
    80001f00:	1d030313          	addi	t1,t1,464
    80001f04:	d7d6d3b7          	lui	t2,0xd7d6d
    80001f08:	5d43839b          	addiw	t2,t2,1492 # ffffffffd7d6d5d4 <_end+0xffffffff57d6a434>
    80001f0c:	006432a3          	sd	t1,5(s0)
    80001f10:	00942e03          	lw	t3,9(s0)
    80001f14:	57c392e3          	bne	t2,t3,80002c78 <fail>
    80001f18:	06800193          	li	gp,104
    80001f1c:	ff7f8337          	lui	t1,0xff7f8
    80001f20:	b773031b          	addiw	t1,t1,-1161 # ffffffffff7f7b77 <_end+0xffffffff7f7f49d7>
    80001f24:	00c31313          	slli	t1,t1,0xc
    80001f28:	73730313          	addi	t1,t1,1847
    80001f2c:	00d31313          	slli	t1,t1,0xd
    80001f30:	ed730313          	addi	t1,t1,-297
    80001f34:	00d31313          	slli	t1,t1,0xd
    80001f38:	9d830313          	addi	t1,t1,-1576
    80001f3c:	dddce3b7          	lui	t2,0xdddce
    80001f40:	bda3839b          	addiw	t2,t2,-1062 # ffffffffdddcdbda <_end+0xffffffff5ddcaa3a>
    80001f44:	00643323          	sd	t1,6(s0)
    80001f48:	00842e03          	lw	t3,8(s0)
    80001f4c:	53c396e3          	bne	t2,t3,80002c78 <fail>
    80001f50:	06900193          	li	gp,105
    80001f54:	fff3f337          	lui	t1,0xfff3f
    80001f58:	3733031b          	addiw	t1,t1,883 # fffffffffff3f373 <_end+0xffffffff7ff3c1d3>
    80001f5c:	00f31313          	slli	t1,t1,0xf
    80001f60:	93930313          	addi	t1,t1,-1735
    80001f64:	00d31313          	slli	t1,t1,0xd
    80001f68:	f1730313          	addi	t1,t1,-233
    80001f6c:	00d31313          	slli	t1,t1,0xd
    80001f70:	1e030313          	addi	t1,t1,480
    80001f74:	000723b7          	lui	t2,0x72
    80001f78:	71f3839b          	addiw	t2,t2,1823 # 7271f <tohost-0x7ff8d8e1>
    80001f7c:	00d39393          	slli	t2,t2,0xd
    80001f80:	2e138393          	addi	t2,t2,737
    80001f84:	006433a3          	sd	t1,7(s0)
    80001f88:	00846e03          	lwu	t3,8(s0)
    80001f8c:	4fc396e3          	bne	t2,t3,80002c78 <fail>
    80001f90:	06a00193          	li	gp,106
    80001f94:	0000f337          	lui	t1,0xf
    80001f98:	9e83031b          	addiw	t1,t1,-1560 # e9e8 <tohost-0x7fff1618>
    80001f9c:	fe800393          	li	t2,-24
    80001fa0:	00641fa3          	sh	t1,31(s0)
    80001fa4:	01f40e03          	lb	t3,31(s0)
    80001fa8:	4dc398e3          	bne	t2,t3,80002c78 <fail>
    80001fac:	06b00193          	li	gp,107
    80001fb0:	0000f337          	lui	t1,0xf
    80001fb4:	bea3031b          	addiw	t1,t1,-1046 # ebea <tohost-0x7fff1416>
    80001fb8:	feb00393          	li	t2,-21
    80001fbc:	00641fa3          	sh	t1,31(s0)
    80001fc0:	02040e03          	lb	t3,32(s0)
    80001fc4:	4bc39ae3          	bne	t2,t3,80002c78 <fail>
    80001fc8:	06c00193          	li	gp,108
    80001fcc:	0000f337          	lui	t1,0xf
    80001fd0:	dec3031b          	addiw	t1,t1,-532 # edec <tohost-0x7fff1214>
    80001fd4:	0ec00393          	li	t2,236
    80001fd8:	00641fa3          	sh	t1,31(s0)
    80001fdc:	01f44e03          	lbu	t3,31(s0)
    80001fe0:	49c39ce3          	bne	t2,t3,80002c78 <fail>
    80001fe4:	06d00193          	li	gp,109
    80001fe8:	0000f337          	lui	t1,0xf
    80001fec:	fee3031b          	addiw	t1,t1,-18 # efee <tohost-0x7fff1012>
    80001ff0:	0ef00393          	li	t2,239
    80001ff4:	00641fa3          	sh	t1,31(s0)
    80001ff8:	02044e03          	lbu	t3,32(s0)
    80001ffc:	47c39ee3          	bne	t2,t3,80002c78 <fail>
    80002000:	06e00193          	li	gp,110
    80002004:	000f4337          	lui	t1,0xf4
    80002008:	f2f3031b          	addiw	t1,t1,-209 # f3f2f <tohost-0x7ff0c0d1>
    8000200c:	00c31313          	slli	t1,t1,0xc
    80002010:	1f030313          	addi	t1,t1,496
    80002014:	ff000393          	li	t2,-16
    80002018:	00642ea3          	sw	t1,29(s0)
    8000201c:	01d40e03          	lb	t3,29(s0)
    80002020:	45c39ce3          	bne	t2,t3,80002c78 <fail>
    80002024:	06f00193          	li	gp,111
    80002028:	000f8337          	lui	t1,0xf8
    8000202c:	f6f3031b          	addiw	t1,t1,-145 # f7f6f <tohost-0x7ff08091>
    80002030:	00c31313          	slli	t1,t1,0xc
    80002034:	5f430313          	addi	t1,t1,1524
    80002038:	0f600393          	li	t2,246
    8000203c:	00642f23          	sw	t1,30(s0)
    80002040:	02044e03          	lbu	t3,32(s0)
    80002044:	43c39ae3          	bne	t2,t3,80002c78 <fail>
    80002048:	07000193          	li	gp,112
    8000204c:	00010337          	lui	t1,0x10
    80002050:	bfb3031b          	addiw	t1,t1,-1029 # fbfb <tohost-0x7fff0405>
    80002054:	01031313          	slli	t1,t1,0x10
    80002058:	9f830313          	addi	t1,t1,-1544
    8000205c:	bfa00393          	li	t2,-1030
    80002060:	00642ea3          	sw	t1,29(s0)
    80002064:	01f41e03          	lh	t3,31(s0)
    80002068:	41c398e3          	bne	t2,t3,80002c78 <fail>
    8000206c:	07100193          	li	gp,113
    80002070:	00010337          	lui	t1,0x10
    80002074:	fff3031b          	addiw	t1,t1,-1 # ffff <tohost-0x7fff0001>
    80002078:	01031313          	slli	t1,t1,0x10
    8000207c:	dfc30313          	addi	t1,t1,-516
    80002080:	000103b7          	lui	t2,0x10
    80002084:	dfc3839b          	addiw	t2,t2,-516 # fdfc <tohost-0x7fff0204>
    80002088:	00642fa3          	sw	t1,31(s0)
    8000208c:	01f45e03          	lhu	t3,31(s0)
    80002090:	3fc394e3          	bne	t2,t3,80002c78 <fail>
    80002094:	07200193          	li	gp,114
    80002098:	01c18337          	lui	t1,0x1c18
    8000209c:	1413031b          	addiw	t1,t1,321 # 1c18141 <tohost-0x7e3e7ebf>
    800020a0:	01131313          	slli	t1,t1,0x11
    800020a4:	18130313          	addi	t1,t1,385
    800020a8:	01131313          	slli	t1,t1,0x11
    800020ac:	10030313          	addi	t1,t1,256
    800020b0:	00700393          	li	t2,7
    800020b4:	00643ca3          	sd	t1,25(s0)
    800020b8:	02040e03          	lb	t3,32(s0)
    800020bc:	3bc39ee3          	bne	t2,t3,80002c78 <fail>
    800020c0:	07300193          	li	gp,115
    800020c4:	00f0e337          	lui	t1,0xf0e
    800020c8:	0d13031b          	addiw	t1,t1,209 # f0e0d1 <tohost-0x7f0f1f2f>
    800020cc:	00c31313          	slli	t1,t1,0xc
    800020d0:	c0b30313          	addi	t1,t1,-1013
    800020d4:	00c31313          	slli	t1,t1,0xc
    800020d8:	0a130313          	addi	t1,t1,161
    800020dc:	00c31313          	slli	t1,t1,0xc
    800020e0:	90830313          	addi	t1,t1,-1784
    800020e4:	00f00393          	li	t2,15
    800020e8:	00643d23          	sd	t1,26(s0)
    800020ec:	02144e03          	lbu	t3,33(s0)
    800020f0:	39c394e3          	bne	t2,t3,80002c78 <fail>
    800020f4:	07400193          	li	gp,116
    800020f8:	01716337          	lui	t1,0x1716
    800020fc:	1513031b          	addiw	t1,t1,337 # 1716151 <tohost-0x7e8e9eaf>
    80002100:	00c31313          	slli	t1,t1,0xc
    80002104:	41330313          	addi	t1,t1,1043
    80002108:	00c31313          	slli	t1,t1,0xc
    8000210c:	12130313          	addi	t1,t1,289
    80002110:	00c31313          	slli	t1,t1,0xc
    80002114:	11030313          	addi	t1,t1,272
    80002118:	000013b7          	lui	t2,0x1
    8000211c:	5143839b          	addiw	t2,t2,1300 # 1514 <tohost-0x7fffeaec>
    80002120:	00643da3          	sd	t1,27(s0)
    80002124:	01f41e03          	lh	t3,31(s0)
    80002128:	35c398e3          	bne	t2,t3,80002c78 <fail>
    8000212c:	07500193          	li	gp,117
    80002130:	001f2337          	lui	t1,0x1f2
    80002134:	e1d3031b          	addiw	t1,t1,-483 # 1f1e1d <tohost-0x7fe0e1e3>
    80002138:	00e31313          	slli	t1,t1,0xe
    8000213c:	70730313          	addi	t1,t1,1799
    80002140:	00d31313          	slli	t1,t1,0xd
    80002144:	8d130313          	addi	t1,t1,-1839
    80002148:	00d31313          	slli	t1,t1,0xd
    8000214c:	91830313          	addi	t1,t1,-1768
    80002150:	000023b7          	lui	t2,0x2
    80002154:	c1b3839b          	addiw	t2,t2,-997 # 1c1b <tohost-0x7fffe3e5>
    80002158:	00643e23          	sd	t1,28(s0)
    8000215c:	01f45e03          	lhu	t3,31(s0)
    80002160:	31c39ce3          	bne	t2,t3,80002c78 <fail>
    80002164:	07600193          	li	gp,118
    80002168:	009ca337          	lui	t1,0x9ca
    8000216c:	8953031b          	addiw	t1,t1,-1899 # 9c9895 <tohost-0x7f63676b>
    80002170:	00c31313          	slli	t1,t1,0xc
    80002174:	90930313          	addi	t1,t1,-1783
    80002178:	00d31313          	slli	t1,t1,0xd
    8000217c:	91130313          	addi	t1,t1,-1775
    80002180:	00d31313          	slli	t1,t1,0xd
    80002184:	12030313          	addi	t1,t1,288
    80002188:	232223b7          	lui	t2,0x23222
    8000218c:	1203839b          	addiw	t2,t2,288 # 23222120 <tohost-0x5cdddee0>
    80002190:	00643ea3          	sd	t1,29(s0)
    80002194:	01d42e03          	lw	t3,29(s0)
    80002198:	2fc390e3          	bne	t2,t3,80002c78 <fail>
    8000219c:	07700193          	li	gp,119
    800021a0:	02f2e337          	lui	t1,0x2f2e
    800021a4:	2d33031b          	addiw	t1,t1,723 # 2f2e2d3 <tohost-0x7d0d1d2d>
    800021a8:	00c31313          	slli	t1,t1,0xc
    800021ac:	c2b30313          	addi	t1,t1,-981
    800021b0:	00c31313          	slli	t1,t1,0xc
    800021b4:	2a330313          	addi	t1,t1,675
    800021b8:	00c31313          	slli	t1,t1,0xc
    800021bc:	92830313          	addi	t1,t1,-1752
    800021c0:	2b2a33b7          	lui	t2,0x2b2a3
    800021c4:	9283839b          	addiw	t2,t2,-1752 # 2b2a2928 <tohost-0x54d5d6d8>
    800021c8:	00643f23          	sd	t1,30(s0)
    800021cc:	01e42e03          	lw	t3,30(s0)
    800021d0:	2bc394e3          	bne	t2,t3,80002c78 <fail>
    800021d4:	07800193          	li	gp,120
    800021d8:	03736337          	lui	t1,0x3736
    800021dc:	3533031b          	addiw	t1,t1,851 # 3736353 <tohost-0x7c8c9cad>
    800021e0:	00c31313          	slli	t1,t1,0xc
    800021e4:	43330313          	addi	t1,t1,1075
    800021e8:	00c31313          	slli	t1,t1,0xc
    800021ec:	32330313          	addi	t1,t1,803
    800021f0:	00c31313          	slli	t1,t1,0xc
    800021f4:	13030313          	addi	t1,t1,304
    800021f8:	333233b7          	lui	t2,0x33323
    800021fc:	1303839b          	addiw	t2,t2,304 # 33323130 <tohost-0x4ccdced0>
    80002200:	00643fa3          	sd	t1,31(s0)
    80002204:	01f46e03          	lwu	t3,31(s0)
    80002208:	27c398e3          	bne	t2,t3,80002c78 <fail>
    8000220c:	07900193          	li	gp,121
    80002210:	00005337          	lui	t1,0x5
    80002214:	9483031b          	addiw	t1,t1,-1720 # 4948 <tohost-0x7fffb6b8>
    80002218:	04800393          	li	t2,72
    8000221c:	02641fa3          	sh	t1,63(s0)
    80002220:	03f40e03          	lb	t3,63(s0)
    80002224:	25c39ae3          	bne	t2,t3,80002c78 <fail>
    80002228:	07a00193          	li	gp,122
    8000222c:	00005337          	lui	t1,0x5
    80002230:	b4a3031b          	addiw	t1,t1,-1206 # 4b4a <tohost-0x7fffb4b6>
    80002234:	04b00393          	li	t2,75
    80002238:	02641fa3          	sh	t1,63(s0)
    8000223c:	04040e03          	lb	t3,64(s0)
    80002240:	23c39ce3          	bne	t2,t3,80002c78 <fail>
    80002244:	07b00193          	li	gp,123
    80002248:	00005337          	lui	t1,0x5
    8000224c:	d4c3031b          	addiw	t1,t1,-692 # 4d4c <tohost-0x7fffb2b4>
    80002250:	04c00393          	li	t2,76
    80002254:	02641fa3          	sh	t1,63(s0)
    80002258:	03f44e03          	lbu	t3,63(s0)
    8000225c:	21c39ee3          	bne	t2,t3,80002c78 <fail>
    80002260:	07c00193          	li	gp,124
    80002264:	00005337          	lui	t1,0x5
    80002268:	f4e3031b          	addiw	t1,t1,-178 # 4f4e <tohost-0x7fffb0b2>
    8000226c:	04f00393          	li	t2,79
    80002270:	02641fa3          	sh	t1,63(s0)
    80002274:	04044e03          	lbu	t3,64(s0)
    80002278:	21c390e3          	bne	t2,t3,80002c78 <fail>
    8000227c:	07d00193          	li	gp,125
    80002280:	53525337          	lui	t1,0x53525
    80002284:	1503031b          	addiw	t1,t1,336 # 53525150 <tohost-0x2cadaeb0>
    80002288:	05000393          	li	t2,80
    8000228c:	02642ea3          	sw	t1,61(s0)
    80002290:	03d40e03          	lb	t3,61(s0)
    80002294:	1fc392e3          	bne	t2,t3,80002c78 <fail>
    80002298:	07e00193          	li	gp,126
    8000229c:	57565337          	lui	t1,0x57565
    800022a0:	5543031b          	addiw	t1,t1,1364 # 57565554 <tohost-0x28a9aaac>
    800022a4:	05600393          	li	t2,86
    800022a8:	02642f23          	sw	t1,62(s0)
    800022ac:	04044e03          	lbu	t3,64(s0)
    800022b0:	1dc394e3          	bne	t2,t3,80002c78 <fail>
    800022b4:	07f00193          	li	gp,127
    800022b8:	5b5a6337          	lui	t1,0x5b5a6
    800022bc:	9583031b          	addiw	t1,t1,-1704 # 5b5a5958 <tohost-0x24a5a6a8>
    800022c0:	000063b7          	lui	t2,0x6
    800022c4:	b5a3839b          	addiw	t2,t2,-1190 # 5b5a <tohost-0x7fffa4a6>
    800022c8:	02642ea3          	sw	t1,61(s0)
    800022cc:	03f41e03          	lh	t3,63(s0)
    800022d0:	1bc394e3          	bne	t2,t3,80002c78 <fail>
    800022d4:	08000193          	li	gp,128
    800022d8:	5f5e6337          	lui	t1,0x5f5e6
    800022dc:	d5c3031b          	addiw	t1,t1,-676 # 5f5e5d5c <tohost-0x20a1a2a4>
    800022e0:	000063b7          	lui	t2,0x6
    800022e4:	d5c3839b          	addiw	t2,t2,-676 # 5d5c <tohost-0x7fffa2a4>
    800022e8:	02642fa3          	sw	t1,63(s0)
    800022ec:	03f45e03          	lhu	t3,63(s0)
    800022f0:	19c394e3          	bne	t2,t3,80002c78 <fail>
    800022f4:	08100193          	li	gp,129
    800022f8:	00ced337          	lui	t1,0xced
    800022fc:	ccb3031b          	addiw	t1,t1,-821 # cecccb <tohost-0x7f313335>
    80002300:	00d31313          	slli	t1,t1,0xd
    80002304:	91930313          	addi	t1,t1,-1767
    80002308:	00d31313          	slli	t1,t1,0xd
    8000230c:	b1330313          	addi	t1,t1,-1261
    80002310:	00d31313          	slli	t1,t1,0xd
    80002314:	16030313          	addi	t1,t1,352
    80002318:	06700393          	li	t2,103
    8000231c:	02643ca3          	sd	t1,57(s0)
    80002320:	04040e03          	lb	t3,64(s0)
    80002324:	15c39ae3          	bne	t2,t3,80002c78 <fail>
    80002328:	08200193          	li	gp,130
    8000232c:	06f6e337          	lui	t1,0x6f6e
    80002330:	6d73031b          	addiw	t1,t1,1751 # 6f6e6d7 <tohost-0x79091929>
    80002334:	00c31313          	slli	t1,t1,0xc
    80002338:	c6b30313          	addi	t1,t1,-917
    8000233c:	00c31313          	slli	t1,t1,0xc
    80002340:	6a730313          	addi	t1,t1,1703
    80002344:	00c31313          	slli	t1,t1,0xc
    80002348:	96830313          	addi	t1,t1,-1688
    8000234c:	06f00393          	li	t2,111
    80002350:	02643d23          	sd	t1,58(s0)
    80002354:	04144e03          	lbu	t3,65(s0)
    80002358:	13c390e3          	bne	t2,t3,80002c78 <fail>
    8000235c:	08300193          	li	gp,131
    80002360:	07776337          	lui	t1,0x7776
    80002364:	7573031b          	addiw	t1,t1,1879 # 7776757 <tohost-0x788898a9>
    80002368:	00c31313          	slli	t1,t1,0xc
    8000236c:	47330313          	addi	t1,t1,1139
    80002370:	00c31313          	slli	t1,t1,0xc
    80002374:	72730313          	addi	t1,t1,1831
    80002378:	00c31313          	slli	t1,t1,0xc
    8000237c:	17030313          	addi	t1,t1,368
    80002380:	000073b7          	lui	t2,0x7
    80002384:	5743839b          	addiw	t2,t2,1396 # 7574 <tohost-0x7fff8a8c>
    80002388:	02643da3          	sd	t1,59(s0)
    8000238c:	03f41e03          	lh	t3,63(s0)
    80002390:	0fc394e3          	bne	t2,t3,80002c78 <fail>
    80002394:	08400193          	li	gp,132
    80002398:	00ff0337          	lui	t1,0xff0
    8000239c:	cfb3031b          	addiw	t1,t1,-773 # fefcfb <tohost-0x7f010305>
    800023a0:	00c31313          	slli	t1,t1,0xc
    800023a4:	f8f30313          	addi	t1,t1,-113
    800023a8:	00c31313          	slli	t1,t1,0xc
    800023ac:	6f530313          	addi	t1,t1,1781
    800023b0:	00f31313          	slli	t1,t1,0xf
    800023b4:	97830313          	addi	t1,t1,-1672
    800023b8:	000083b7          	lui	t2,0x8
    800023bc:	c7b3839b          	addiw	t2,t2,-901 # 7c7b <tohost-0x7fff8385>
    800023c0:	02643e23          	sd	t1,60(s0)
    800023c4:	03f45e03          	lhu	t3,63(s0)
    800023c8:	0bc398e3          	bne	t2,t3,80002c78 <fail>
    800023cc:	08500193          	li	gp,133
    800023d0:	fff0f337          	lui	t1,0xfff0f
    800023d4:	0d13031b          	addiw	t1,t1,209 # fffffffffff0f0d1 <_end+0xffffffff7ff0bf31>
    800023d8:	00c31313          	slli	t1,t1,0xc
    800023dc:	b0930313          	addi	t1,t1,-1271
    800023e0:	01031313          	slli	t1,t1,0x10
    800023e4:	70530313          	addi	t1,t1,1797
    800023e8:	00f31313          	slli	t1,t1,0xf
    800023ec:	18030313          	addi	t1,t1,384
    800023f0:	838283b7          	lui	t2,0x83828
    800023f4:	1803839b          	addiw	t2,t2,384 # ffffffff83828180 <_end+0xffffffff03824fe0>
    800023f8:	02643ea3          	sd	t1,61(s0)
    800023fc:	03d42e03          	lw	t3,61(s0)
    80002400:	07c39ce3          	bne	t2,t3,80002c78 <fail>
    80002404:	08600193          	li	gp,134
    80002408:	ff1f2337          	lui	t1,0xff1f2
    8000240c:	d1b3031b          	addiw	t1,t1,-741 # ffffffffff1f1d1b <_end+0xffffffff7f1eeb7b>
    80002410:	00d31313          	slli	t1,t1,0xd
    80002414:	32330313          	addi	t1,t1,803
    80002418:	00e31313          	slli	t1,t1,0xe
    8000241c:	8a930313          	addi	t1,t1,-1879
    80002420:	00c31313          	slli	t1,t1,0xc
    80002424:	98830313          	addi	t1,t1,-1656
    80002428:	8b8a93b7          	lui	t2,0x8b8a9
    8000242c:	9883839b          	addiw	t2,t2,-1656 # ffffffff8b8a8988 <_end+0xffffffff0b8a57e8>
    80002430:	02643f23          	sd	t1,62(s0)
    80002434:	03e42e03          	lw	t3,62(s0)
    80002438:	05c390e3          	bne	t2,t3,80002c78 <fail>
    8000243c:	08700193          	li	gp,135
    80002440:	ff2f3337          	lui	t1,0xff2f3
    80002444:	d2b3031b          	addiw	t1,t1,-725 # ffffffffff2f2d2b <_end+0xffffffff7f2efb8b>
    80002448:	00d31313          	slli	t1,t1,0xd
    8000244c:	52530313          	addi	t1,t1,1317
    80002450:	00e31313          	slli	t1,t1,0xe
    80002454:	92930313          	addi	t1,t1,-1751
    80002458:	00c31313          	slli	t1,t1,0xc
    8000245c:	19030313          	addi	t1,t1,400
    80002460:	000943b7          	lui	t2,0x94
    80002464:	9293839b          	addiw	t2,t2,-1751 # 93929 <tohost-0x7ff6c6d7>
    80002468:	00c39393          	slli	t2,t2,0xc
    8000246c:	19038393          	addi	t2,t2,400
    80002470:	02643fa3          	sd	t1,63(s0)
    80002474:	03f46e03          	lwu	t3,63(s0)
    80002478:	01c390e3          	bne	t2,t3,80002c78 <fail>
    8000247c:	08800193          	li	gp,136
    80002480:	09800313          	li	t1,152
    80002484:	ffffc3b7          	lui	t2,0xffffc
    80002488:	8983839b          	addiw	t2,t2,-1896 # ffffffffffffb898 <_end+0xffffffff7fff86f8>
    8000248c:	006400a3          	sb	t1,1(s0)
    80002490:	00141e03          	lh	t3,1(s0)
    80002494:	7fc39263          	bne	t2,t3,80002c78 <fail>
    80002498:	08900193          	li	gp,137
    8000249c:	09900313          	li	t1,153
    800024a0:	0000a3b7          	lui	t2,0xa
    800024a4:	9983839b          	addiw	t2,t2,-1640 # 9998 <tohost-0x7fff6668>
    800024a8:	00640123          	sb	t1,2(s0)
    800024ac:	00145e03          	lhu	t3,1(s0)
    800024b0:	7dc39463          	bne	t2,t3,80002c78 <fail>
    800024b4:	08a00193          	li	gp,138
    800024b8:	0000a337          	lui	t1,0xa
    800024bc:	b9a3031b          	addiw	t1,t1,-1126 # 9b9a <tohost-0x7fff6466>
    800024c0:	c8c0a3b7          	lui	t2,0xc8c0a
    800024c4:	b9a3839b          	addiw	t2,t2,-1126 # ffffffffc8c09b9a <_end+0xffffffff48c069fa>
    800024c8:	006410a3          	sh	t1,1(s0)
    800024cc:	00142e03          	lw	t3,1(s0)
    800024d0:	7bc39463          	bne	t2,t3,80002c78 <fail>
    800024d4:	08b00193          	li	gp,139
    800024d8:	0000a337          	lui	t1,0xa
    800024dc:	d9c3031b          	addiw	t1,t1,-612 # 9d9c <tohost-0x7fff6264>
    800024e0:	d09da3b7          	lui	t2,0xd09da
    800024e4:	c9b3839b          	addiw	t2,t2,-869 # ffffffffd09d9c9b <_end+0xffffffff509d6afb>
    800024e8:	006411a3          	sh	t1,3(s0)
    800024ec:	00242e03          	lw	t3,2(s0)
    800024f0:	79c39463          	bne	t2,t3,80002c78 <fail>
    800024f4:	08c00193          	li	gp,140
    800024f8:	0000a337          	lui	t1,0xa
    800024fc:	f9e3031b          	addiw	t1,t1,-98 # 9f9e <tohost-0x7fff6062>
    80002500:	9f9ea3b7          	lui	t2,0x9f9ea
    80002504:	d9c3839b          	addiw	t2,t2,-612 # ffffffff9f9e9d9c <_end+0xffffffff1f9e6bfc>
    80002508:	006412a3          	sh	t1,5(s0)
    8000250c:	00342e03          	lw	t3,3(s0)
    80002510:	77c39463          	bne	t2,t3,80002c78 <fail>
    80002514:	08d00193          	li	gp,141
    80002518:	0a000313          	li	t1,160
    8000251c:	0004f3b7          	lui	t2,0x4f
    80002520:	ce53839b          	addiw	t2,t2,-795 # 4ece5 <tohost-0x7ffb131b>
    80002524:	00d39393          	slli	t2,t2,0xd
    80002528:	09a38393          	addi	t2,t2,154
    8000252c:	00640123          	sb	t1,2(s0)
    80002530:	00146e03          	lwu	t3,1(s0)
    80002534:	75c39263          	bne	t2,t3,80002c78 <fail>
    80002538:	08e00193          	li	gp,142
    8000253c:	0000a337          	lui	t1,0xa
    80002540:	2a13031b          	addiw	t1,t1,673 # a2a1 <tohost-0x7fff5d5f>
    80002544:	0004f3b7          	lui	t2,0x4f
    80002548:	5153839b          	addiw	t2,t2,1301 # 4f515 <tohost-0x7ffb0aeb>
    8000254c:	00d39393          	slli	t2,t2,0xd
    80002550:	1a038393          	addi	t2,t2,416
    80002554:	006411a3          	sh	t1,3(s0)
    80002558:	00246e03          	lwu	t3,2(s0)
    8000255c:	71c39e63          	bne	t2,t3,80002c78 <fail>
    80002560:	08f00193          	li	gp,143
    80002564:	0000a337          	lui	t1,0xa
    80002568:	4a33031b          	addiw	t1,t1,1187 # a4a3 <tohost-0x7fff5b5d>
    8000256c:	000523b7          	lui	t2,0x52
    80002570:	51d3839b          	addiw	t2,t2,1309 # 5251d <tohost-0x7ffadae3>
    80002574:	00d39393          	slli	t2,t2,0xd
    80002578:	2a138393          	addi	t2,t2,673
    8000257c:	006412a3          	sh	t1,5(s0)
    80002580:	00346e03          	lwu	t3,3(s0)
    80002584:	6fc39a63          	bne	t2,t3,80002c78 <fail>
    80002588:	09000193          	li	gp,144
    8000258c:	0a500313          	li	t1,165
    80002590:	ff0f03b7          	lui	t2,0xff0f0
    80002594:	5253839b          	addiw	t2,t2,1317 # ffffffffff0f0525 <_end+0xffffffff7f0ed385>
    80002598:	00c39393          	slli	t2,t2,0xc
    8000259c:	1d138393          	addi	t2,t2,465
    800025a0:	00c39393          	slli	t2,t2,0xc
    800025a4:	50d38393          	addi	t2,t2,1293
    800025a8:	00d39393          	slli	t2,t2,0xd
    800025ac:	59a38393          	addi	t2,t2,1434
    800025b0:	00640123          	sb	t1,2(s0)
    800025b4:	00143e03          	ld	t3,1(s0)
    800025b8:	6dc39063          	bne	t2,t3,80002c78 <fail>
    800025bc:	09100193          	li	gp,145
    800025c0:	0000a337          	lui	t1,0xa
    800025c4:	7a63031b          	addiw	t1,t1,1958 # a7a6 <tohost-0x7fff585a>
    800025c8:	ff8aa3b7          	lui	t2,0xff8aa
    800025cc:	e9b3839b          	addiw	t2,t2,-357 # ffffffffff8a9e9b <_end+0xffffffff7f8a6cfb>
    800025d0:	00c39393          	slli	t2,t2,0xc
    800025d4:	92938393          	addi	t2,t2,-1751
    800025d8:	00d39393          	slli	t2,t2,0xd
    800025dc:	d1538393          	addi	t2,t2,-747
    800025e0:	00d39393          	slli	t2,t2,0xd
    800025e4:	1a538393          	addi	t2,t2,421
    800025e8:	006413a3          	sh	t1,7(s0)
    800025ec:	00243e03          	ld	t3,2(s0)
    800025f0:	69c39463          	bne	t2,t3,80002c78 <fail>
    800025f4:	09200193          	li	gp,146
    800025f8:	0000b337          	lui	t1,0xb
    800025fc:	9a83031b          	addiw	t1,t1,-1624 # a9a8 <tohost-0x7fff5658>
    80002600:	fea6a3b7          	lui	t2,0xfea6a
    80002604:	29f3839b          	addiw	t2,t2,671 # fffffffffea6a29f <_end+0xffffffff7ea670ff>
    80002608:	00c39393          	slli	t2,t2,0xc
    8000260c:	9a938393          	addi	t2,t2,-1623
    80002610:	00d39393          	slli	t2,t2,0xd
    80002614:	51d38393          	addi	t2,t2,1309
    80002618:	00d39393          	slli	t2,t2,0xd
    8000261c:	2a138393          	addi	t2,t2,673
    80002620:	006414a3          	sh	t1,9(s0)
    80002624:	00343e03          	ld	t3,3(s0)
    80002628:	65c39863          	bne	t2,t3,80002c78 <fail>
    8000262c:	09300193          	li	gp,147
    80002630:	000ae337          	lui	t1,0xae
    80002634:	acb3031b          	addiw	t1,t1,-1333 # adacb <tohost-0x7ff52535>
    80002638:	00c31313          	slli	t1,t1,0xc
    8000263c:	baa30313          	addi	t1,t1,-1110
    80002640:	fe4aa3b7          	lui	t2,0xfe4aa
    80002644:	a8b3839b          	addiw	t2,t2,-1397 # fffffffffe4a9a8b <_end+0xffffffff7e4a68eb>
    80002648:	00c39393          	slli	t2,t2,0xc
    8000264c:	dad38393          	addi	t2,t2,-595
    80002650:	00c39393          	slli	t2,t2,0xc
    80002654:	abb38393          	addi	t2,t2,-1349
    80002658:	00c39393          	slli	t2,t2,0xc
    8000265c:	aa238393          	addi	t2,t2,-1374
    80002660:	006422a3          	sw	t1,5(s0)
    80002664:	00443e03          	ld	t3,4(s0)
    80002668:	61c39863          	bne	t2,t3,80002c78 <fail>
    8000266c:	09400193          	li	gp,148
    80002670:	000b2337          	lui	t1,0xb2
    80002674:	b0b3031b          	addiw	t1,t1,-1269 # b1b0b <tohost-0x7ff4e4f5>
    80002678:	00c31313          	slli	t1,t1,0xc
    8000267c:	fae30313          	addi	t1,t1,-82
    80002680:	fff2f3b7          	lui	t2,0xfff2f
    80002684:	2593839b          	addiw	t2,t2,601 # fffffffffff2f259 <_end+0xffffffff7ff2c0b9>
    80002688:	00d39393          	slli	t2,t2,0xd
    8000268c:	b0b38393          	addi	t2,t2,-1269
    80002690:	01039393          	slli	t2,t2,0x10
    80002694:	aeb38393          	addi	t2,t2,-1301
    80002698:	00c39393          	slli	t2,t2,0xc
    8000269c:	baa38393          	addi	t2,t2,-1110
    800026a0:	006423a3          	sw	t1,7(s0)
    800026a4:	00543e03          	ld	t3,5(s0)
    800026a8:	5dc39863          	bne	t2,t3,80002c78 <fail>
    800026ac:	09500193          	li	gp,149
    800026b0:	000b6337          	lui	t1,0xb6
    800026b4:	b4b3031b          	addiw	t1,t1,-1205 # b5b4b <tohost-0x7ff4a4b5>
    800026b8:	00c31313          	slli	t1,t1,0xc
    800026bc:	3b230313          	addi	t1,t1,946
    800026c0:	fe6b63b7          	lui	t2,0xfe6b6
    800026c4:	b4b3839b          	addiw	t2,t2,-1205 # fffffffffe6b5b4b <_end+0xffffffff7e6b29ab>
    800026c8:	00c39393          	slli	t2,t2,0xc
    800026cc:	3b338393          	addi	t2,t2,947
    800026d0:	00c39393          	slli	t2,t2,0xc
    800026d4:	afb38393          	addi	t2,t2,-1285
    800026d8:	00c39393          	slli	t2,t2,0xc
    800026dc:	eab38393          	addi	t2,t2,-341
    800026e0:	006424a3          	sw	t1,9(s0)
    800026e4:	00643e03          	ld	t3,6(s0)
    800026e8:	59c39863          	bne	t2,t3,80002c78 <fail>
    800026ec:	09600193          	li	gp,150
    800026f0:	000ba337          	lui	t1,0xba
    800026f4:	b8b3031b          	addiw	t1,t1,-1141 # b9b8b <tohost-0x7ff46475>
    800026f8:	00c31313          	slli	t1,t1,0xc
    800026fc:	7b630313          	addi	t1,t1,1974
    80002700:	fee6e3b7          	lui	t2,0xfee6e
    80002704:	2df3839b          	addiw	t2,t2,735 # fffffffffee6e2df <_end+0xffffffff7ee6b13f>
    80002708:	00c39393          	slli	t2,t2,0xc
    8000270c:	dad38393          	addi	t2,t2,-595
    80002710:	00e39393          	slli	t2,t2,0xe
    80002714:	b2b38393          	addi	t2,t2,-1237
    80002718:	00c39393          	slli	t2,t2,0xc
    8000271c:	fae38393          	addi	t2,t2,-82
    80002720:	006425a3          	sw	t1,11(s0)
    80002724:	00743e03          	ld	t3,7(s0)
    80002728:	55c39863          	bne	t2,t3,80002c78 <fail>
    8000272c:	09700193          	li	gp,151
    80002730:	0ba00313          	li	t1,186
    80002734:	000033b7          	lui	t2,0x3
    80002738:	1ba3839b          	addiw	t2,t2,442 # 31ba <tohost-0x7fffce46>
    8000273c:	00640fa3          	sb	t1,31(s0)
    80002740:	01f41e03          	lh	t3,31(s0)
    80002744:	53c39a63          	bne	t2,t3,80002c78 <fail>
    80002748:	09800193          	li	gp,152
    8000274c:	0bb00313          	li	t1,187
    80002750:	0000c3b7          	lui	t2,0xc
    80002754:	bba3839b          	addiw	t2,t2,-1094 # bbba <tohost-0x7fff4446>
    80002758:	02640023          	sb	t1,32(s0)
    8000275c:	01f45e03          	lhu	t3,31(s0)
    80002760:	51c39c63          	bne	t2,t3,80002c78 <fail>
    80002764:	09900193          	li	gp,153
    80002768:	0000c337          	lui	t1,0xc
    8000276c:	dbc3031b          	addiw	t1,t1,-580 # bdbc <tohost-0x7fff4244>
    80002770:	32bbc3b7          	lui	t2,0x32bbc
    80002774:	dbc3839b          	addiw	t2,t2,-580 # 32bbbdbc <tohost-0x4d444244>
    80002778:	00641f23          	sh	t1,30(s0)
    8000277c:	01e42e03          	lw	t3,30(s0)
    80002780:	4fc39c63          	bne	t2,t3,80002c78 <fail>
    80002784:	09a00193          	li	gp,154
    80002788:	0000c337          	lui	t1,0xc
    8000278c:	fbe3031b          	addiw	t1,t1,-66 # bfbe <tohost-0x7fff4042>
    80002790:	32bfc3b7          	lui	t2,0x32bfc
    80002794:	ebc3839b          	addiw	t2,t2,-324 # 32bfbebc <tohost-0x4d404144>
    80002798:	00641fa3          	sh	t1,31(s0)
    8000279c:	01e42e03          	lw	t3,30(s0)
    800027a0:	4dc39c63          	bne	t2,t3,80002c78 <fail>
    800027a4:	09b00193          	li	gp,155
    800027a8:	0000c337          	lui	t1,0xc
    800027ac:	1c03031b          	addiw	t1,t1,448 # c1c0 <tohost-0x7fff3e40>
    800027b0:	c1c0c3b7          	lui	t2,0xc1c0c
    800027b4:	ebc3839b          	addiw	t2,t2,-324 # ffffffffc1c0bebc <_end+0xffffffff41c08d1c>
    800027b8:	02641023          	sh	t1,32(s0)
    800027bc:	01e42e03          	lw	t3,30(s0)
    800027c0:	4bc39c63          	bne	t2,t3,80002c78 <fail>
    800027c4:	09c00193          	li	gp,156
    800027c8:	0c200313          	li	t1,194
    800027cc:	33c1c3b7          	lui	t2,0x33c1c
    800027d0:	2be3839b          	addiw	t2,t2,702 # 33c1c2be <tohost-0x4c3e3d42>
    800027d4:	02640023          	sb	t1,32(s0)
    800027d8:	01f46e03          	lwu	t3,31(s0)
    800027dc:	49c39e63          	bne	t2,t3,80002c78 <fail>
    800027e0:	09d00193          	li	gp,157
    800027e4:	0000c337          	lui	t1,0xc
    800027e8:	4c33031b          	addiw	t1,t1,1219 # c4c3 <tohost-0x7fff3b3d>
    800027ec:	000313b7          	lui	t2,0x31
    800027f0:	30f3839b          	addiw	t2,t2,783 # 3130f <tohost-0x7ffcecf1>
    800027f4:	00e39393          	slli	t2,t2,0xe
    800027f8:	c2038393          	addi	t2,t2,-992
    800027fc:	00641fa3          	sh	t1,31(s0)
    80002800:	01d46e03          	lwu	t3,29(s0)
    80002804:	47c39a63          	bne	t2,t3,80002c78 <fail>
    80002808:	09e00193          	li	gp,158
    8000280c:	0000c337          	lui	t1,0xc
    80002810:	6c53031b          	addiw	t1,t1,1733 # c6c5 <tohost-0x7fff393b>
    80002814:	000323b7          	lui	t2,0x32
    80002818:	b173839b          	addiw	t2,t2,-1257 # 31b17 <tohost-0x7ffce4e9>
    8000281c:	00e39393          	slli	t2,t2,0xe
    80002820:	3bc38393          	addi	t2,t2,956
    80002824:	02641023          	sh	t1,32(s0)
    80002828:	01e46e03          	lwu	t3,30(s0)
    8000282c:	45c39663          	bne	t2,t3,80002c78 <fail>
    80002830:	09f00193          	li	gp,159
    80002834:	0c700313          	li	t1,199
    80002838:	fff1f3b7          	lui	t2,0xfff1f
    8000283c:	0ef3839b          	addiw	t2,t2,239 # fffffffffff1f0ef <_end+0xffffffff7ff1bf4f>
    80002840:	00f39393          	slli	t2,t2,0xf
    80002844:	40338393          	addi	t2,t2,1027
    80002848:	00f39393          	slli	t2,t2,0xf
    8000284c:	10138393          	addi	t2,t2,257
    80002850:	00c39393          	slli	t2,t2,0xc
    80002854:	80038393          	addi	t2,t2,-2048
    80002858:	02640023          	sb	t1,32(s0)
    8000285c:	01943e03          	ld	t3,25(s0)
    80002860:	41c39c63          	bne	t2,t3,80002c78 <fail>
    80002864:	0a000193          	li	gp,160
    80002868:	0000d337          	lui	t1,0xd
    8000286c:	9c83031b          	addiw	t1,t1,-1592 # c9c8 <tohost-0x7fff3638>
    80002870:	fff8e3b7          	lui	t2,0xfff8e
    80002874:	9393839b          	addiw	t2,t2,-1735 # fffffffffff8d939 <_end+0xffffffff7ff8a799>
    80002878:	00e39393          	slli	t2,t2,0xe
    8000287c:	5e138393          	addi	t2,t2,1505
    80002880:	01139393          	slli	t2,t2,0x11
    80002884:	18138393          	addi	t2,t2,385
    80002888:	00c39393          	slli	t2,t2,0xc
    8000288c:	00838393          	addi	t2,t2,8
    80002890:	00641fa3          	sh	t1,31(s0)
    80002894:	01a43e03          	ld	t3,26(s0)
    80002898:	3fc39063          	bne	t2,t3,80002c78 <fail>
    8000289c:	0a100193          	li	gp,161
    800028a0:	0000d337          	lui	t1,0xd
    800028a4:	bca3031b          	addiw	t1,t1,-1078 # cbca <tohost-0x7fff3436>
    800028a8:	00cf23b7          	lui	t2,0xcf2
    800028ac:	b2f3839b          	addiw	t2,t2,-1233 # cf1b2f <tohost-0x7f30e4d1>
    800028b0:	00c39393          	slli	t2,t2,0xc
    800028b4:	2af38393          	addi	t2,t2,687
    800028b8:	00d39393          	slli	t2,t2,0xd
    800028bc:	10138393          	addi	t2,t2,257
    800028c0:	00d39393          	slli	t2,t2,0xd
    800028c4:	81038393          	addi	t2,t2,-2032
    800028c8:	00641fa3          	sh	t1,31(s0)
    800028cc:	01b43e03          	ld	t3,27(s0)
    800028d0:	3bc39463          	bne	t2,t3,80002c78 <fail>
    800028d4:	0a200193          	li	gp,162
    800028d8:	000d0337          	lui	t1,0xd0
    800028dc:	ced3031b          	addiw	t1,t1,-787 # cfced <tohost-0x7ff30313>
    800028e0:	00c31313          	slli	t1,t1,0xc
    800028e4:	dcc30313          	addi	t1,t1,-564
    800028e8:	ff3f43b7          	lui	t2,0xff3f4
    800028ec:	b373839b          	addiw	t2,t2,-1225 # ffffffffff3f3b37 <_end+0xffffffff7f3f0997>
    800028f0:	00d39393          	slli	t2,t2,0xd
    800028f4:	66538393          	addi	t2,t2,1637
    800028f8:	00c39393          	slli	t2,t2,0xc
    800028fc:	5e138393          	addi	t2,t2,1505
    80002900:	00d39393          	slli	t2,t2,0xd
    80002904:	01838393          	addi	t2,t2,24
    80002908:	02642023          	sw	t1,32(s0)
    8000290c:	01c43e03          	ld	t3,28(s0)
    80002910:	37c39463          	bne	t2,t3,80002c78 <fail>
    80002914:	0a300193          	li	gp,163
    80002918:	000d4337          	lui	t1,0xd4
    8000291c:	d2d3031b          	addiw	t1,t1,-723 # d3d2d <tohost-0x7ff2c2d3>
    80002920:	00c31313          	slli	t1,t1,0xc
    80002924:	1d030313          	addi	t1,t1,464
    80002928:	000d73b7          	lui	t2,0xd7
    8000292c:	3f53839b          	addiw	t2,t2,1013 # d73f5 <tohost-0x7ff28c0b>
    80002930:	00e39393          	slli	t2,t2,0xe
    80002934:	d2d38393          	addi	t2,t2,-723
    80002938:	00e39393          	slli	t2,t2,0xe
    8000293c:	74338393          	addi	t2,t2,1859
    80002940:	00e39393          	slli	t2,t2,0xe
    80002944:	c2038393          	addi	t2,t2,-992
    80002948:	00642fa3          	sw	t1,31(s0)
    8000294c:	01d43e03          	ld	t3,29(s0)
    80002950:	33c39463          	bne	t2,t3,80002c78 <fail>
    80002954:	0a400193          	li	gp,164
    80002958:	000d8337          	lui	t1,0xd8
    8000295c:	d6d3031b          	addiw	t1,t1,-659 # d7d6d <tohost-0x7ff28293>
    80002960:	00c31313          	slli	t1,t1,0xc
    80002964:	5d430313          	addi	t1,t1,1492
    80002968:	000363b7          	lui	t2,0x36
    8000296c:	35d3839b          	addiw	t2,t2,861 # 3635d <tohost-0x7ffc9ca3>
    80002970:	01139393          	slli	t2,t2,0x11
    80002974:	a7b38393          	addi	t2,t2,-1413
    80002978:	00f39393          	slli	t2,t2,0xf
    8000297c:	d6d38393          	addi	t2,t2,-659
    80002980:	00c39393          	slli	t2,t2,0xc
    80002984:	5d438393          	addi	t2,t2,1492
    80002988:	00642f23          	sw	t1,30(s0)
    8000298c:	01e43e03          	ld	t3,30(s0)
    80002990:	2fc39463          	bne	t2,t3,80002c78 <fail>
    80002994:	0a500193          	li	gp,165
    80002998:	0006e337          	lui	t1,0x6e
    8000299c:	ed73031b          	addiw	t1,t1,-297 # 6ded7 <tohost-0x7ff92129>
    800029a0:	00d31313          	slli	t1,t1,0xd
    800029a4:	9d830313          	addi	t1,t1,-1576
    800029a8:	00dce3b7          	lui	t2,0xdce
    800029ac:	8d73839b          	addiw	t2,t2,-1833 # dcd8d7 <tohost-0x7f232729>
    800029b0:	00c39393          	slli	t2,t2,0xc
    800029b4:	3f538393          	addi	t2,t2,1013
    800029b8:	00d39393          	slli	t2,t2,0xd
    800029bc:	ebf38393          	addi	t2,t2,-321
    800029c0:	00d39393          	slli	t2,t2,0xd
    800029c4:	bda38393          	addi	t2,t2,-1062
    800029c8:	00642ea3          	sw	t1,29(s0)
    800029cc:	01f43e03          	ld	t3,31(s0)
    800029d0:	2bc39463          	bne	t2,t3,80002c78 <fail>
    800029d4:	0a600193          	li	gp,166
    800029d8:	0dc00313          	li	t1,220
    800029dc:	ffff93b7          	lui	t2,0xffff9
    800029e0:	1dc3839b          	addiw	t2,t2,476 # ffffffffffff91dc <_end+0xffffffff7fff603c>
    800029e4:	02640fa3          	sb	t1,63(s0)
    800029e8:	03f41e03          	lh	t3,63(s0)
    800029ec:	29c39663          	bne	t2,t3,80002c78 <fail>
    800029f0:	0a700193          	li	gp,167
    800029f4:	0dd00313          	li	t1,221
    800029f8:	0000e3b7          	lui	t2,0xe
    800029fc:	ddc3839b          	addiw	t2,t2,-548 # dddc <tohost-0x7fff2224>
    80002a00:	04640023          	sb	t1,64(s0)
    80002a04:	03f45e03          	lhu	t3,63(s0)
    80002a08:	27c39863          	bne	t2,t3,80002c78 <fail>
    80002a0c:	0a800193          	li	gp,168
    80002a10:	0000e337          	lui	t1,0xe
    80002a14:	fde3031b          	addiw	t1,t1,-34 # dfde <tohost-0x7fff2022>
    80002a18:	92dde3b7          	lui	t2,0x92dde
    80002a1c:	fde3839b          	addiw	t2,t2,-34 # ffffffff92dddfde <_end+0xffffffff12ddae3e>
    80002a20:	02641f23          	sh	t1,62(s0)
    80002a24:	03e42e03          	lw	t3,62(s0)
    80002a28:	25c39863          	bne	t2,t3,80002c78 <fail>
    80002a2c:	0a900193          	li	gp,169
    80002a30:	0000e337          	lui	t1,0xe
    80002a34:	1e03031b          	addiw	t1,t1,480 # e1e0 <tohost-0x7fff1e20>
    80002a38:	92e1e3b7          	lui	t2,0x92e1e
    80002a3c:	0de3839b          	addiw	t2,t2,222 # ffffffff92e1e0de <_end+0xffffffff12e1af3e>
    80002a40:	02641fa3          	sh	t1,63(s0)
    80002a44:	03e42e03          	lw	t3,62(s0)
    80002a48:	23c39863          	bne	t2,t3,80002c78 <fail>
    80002a4c:	0aa00193          	li	gp,170
    80002a50:	0000e337          	lui	t1,0xe
    80002a54:	3e23031b          	addiw	t1,t1,994 # e3e2 <tohost-0x7fff1c1e>
    80002a58:	e3e2e3b7          	lui	t2,0xe3e2e
    80002a5c:	0de3839b          	addiw	t2,t2,222 # ffffffffe3e2e0de <_end+0xffffffff63e2af3e>
    80002a60:	04641023          	sh	t1,64(s0)
    80002a64:	03e42e03          	lw	t3,62(s0)
    80002a68:	21c39863          	bne	t2,t3,80002c78 <fail>
    80002a6c:	0ab00193          	li	gp,171
    80002a70:	0e400313          	li	t1,228
    80002a74:	0004a3b7          	lui	t2,0x4a
    80002a78:	f1f3839b          	addiw	t2,t2,-225 # 49f1f <tohost-0x7ffb60e1>
    80002a7c:	00d39393          	slli	t2,t2,0xd
    80002a80:	4e038393          	addi	t2,t2,1248
    80002a84:	04640023          	sb	t1,64(s0)
    80002a88:	03f46e03          	lwu	t3,63(s0)
    80002a8c:	1fc39663          	bne	t2,t3,80002c78 <fail>
    80002a90:	0ac00193          	li	gp,172
    80002a94:	0000e337          	lui	t1,0xe
    80002a98:	6e53031b          	addiw	t1,t1,1765 # e6e5 <tohost-0x7fff191b>
    80002a9c:	000733b7          	lui	t2,0x73
    80002aa0:	72f3839b          	addiw	t2,t2,1839 # 7372f <tohost-0x7ff8c8d1>
    80002aa4:	00d39393          	slli	t2,t2,0xd
    80002aa8:	e8038393          	addi	t2,t2,-384
    80002aac:	02641fa3          	sh	t1,63(s0)
    80002ab0:	03d46e03          	lwu	t3,61(s0)
    80002ab4:	1dc39263          	bne	t2,t3,80002c78 <fail>
    80002ab8:	0ad00193          	li	gp,173
    80002abc:	0000f337          	lui	t1,0xf
    80002ac0:	8e73031b          	addiw	t1,t1,-1817 # e8e7 <tohost-0x7fff1719>
    80002ac4:	000743b7          	lui	t2,0x74
    80002ac8:	73f3839b          	addiw	t2,t2,1855 # 7473f <tohost-0x7ff8b8c1>
    80002acc:	00d39393          	slli	t2,t2,0xd
    80002ad0:	5de38393          	addi	t2,t2,1502
    80002ad4:	04641023          	sh	t1,64(s0)
    80002ad8:	03e46e03          	lwu	t3,62(s0)
    80002adc:	19c39e63          	bne	t2,t3,80002c78 <fail>
    80002ae0:	0ae00193          	li	gp,174
    80002ae4:	0e900313          	li	t1,233
    80002ae8:	ffd3d3b7          	lui	t2,0xffd3d
    80002aec:	bbd3839b          	addiw	t2,t2,-1091 # ffffffffffd3cbbd <_end+0xffffffff7fd39a1d>
    80002af0:	00c39393          	slli	t2,t2,0xc
    80002af4:	00f38393          	addi	t2,t2,15
    80002af8:	00f39393          	slli	t2,t2,0xf
    80002afc:	70738393          	addi	t2,t2,1799
    80002b00:	00c39393          	slli	t2,t2,0xc
    80002b04:	86038393          	addi	t2,t2,-1952
    80002b08:	04640023          	sb	t1,64(s0)
    80002b0c:	03943e03          	ld	t3,57(s0)
    80002b10:	17c39463          	bne	t2,t3,80002c78 <fail>
    80002b14:	0af00193          	li	gp,175
    80002b18:	0000f337          	lui	t1,0xf
    80002b1c:	bea3031b          	addiw	t1,t1,-1046 # ebea <tohost-0x7fff1416>
    80002b20:	d1d7d3b7          	lui	t2,0xd1d7d
    80002b24:	5bd3839b          	addiw	t2,t2,1469 # ffffffffd1d7d5bd <_end+0xffffffff51d7a41d>
    80002b28:	01339393          	slli	t2,t2,0x13
    80002b2c:	78738393          	addi	t2,t2,1927
    80002b30:	00c39393          	slli	t2,t2,0xc
    80002b34:	06838393          	addi	t2,t2,104
    80002b38:	02641fa3          	sh	t1,63(s0)
    80002b3c:	03a43e03          	ld	t3,58(s0)
    80002b40:	13c39c63          	bne	t2,t3,80002c78 <fail>
    80002b44:	0b000193          	li	gp,176
    80002b48:	0000f337          	lui	t1,0xf
    80002b4c:	dec3031b          	addiw	t1,t1,-532 # edec <tohost-0x7fff1214>
    80002b50:	ffc9f3b7          	lui	t2,0xffc9f
    80002b54:	4773839b          	addiw	t2,t2,1143 # ffffffffffc9f477 <_end+0xffffffff7fc9c2d7>
    80002b58:	00c39393          	slli	t2,t2,0xc
    80002b5c:	f6738393          	addi	t2,t2,-153
    80002b60:	00e39393          	slli	t2,t2,0xe
    80002b64:	d0138393          	addi	t2,t2,-767
    80002b68:	00f39393          	slli	t2,t2,0xf
    80002b6c:	87038393          	addi	t2,t2,-1936
    80002b70:	02641fa3          	sh	t1,63(s0)
    80002b74:	03b43e03          	ld	t3,59(s0)
    80002b78:	11c39063          	bne	t2,t3,80002c78 <fail>
    80002b7c:	0b100193          	li	gp,177
    80002b80:	000f2337          	lui	t1,0xf2
    80002b84:	f0f3031b          	addiw	t1,t1,-241 # f1f0f <tohost-0x7ff0e0f1>
    80002b88:	00c31313          	slli	t1,t1,0xc
    80002b8c:	fee30313          	addi	t1,t1,-18
    80002b90:	ffff23b7          	lui	t2,0xffff2
    80002b94:	f0f3839b          	addiw	t2,t2,-241 # ffffffffffff1f0f <_end+0xffffffff7ffeed6f>
    80002b98:	01039393          	slli	t2,t2,0x10
    80002b9c:	eef38393          	addi	t2,t2,-273
    80002ba0:	00d39393          	slli	t2,t2,0xd
    80002ba4:	9bd38393          	addi	t2,t2,-1603
    80002ba8:	00f39393          	slli	t2,t2,0xf
    80002bac:	07838393          	addi	t2,t2,120
    80002bb0:	04642023          	sw	t1,64(s0)
    80002bb4:	03c43e03          	ld	t3,60(s0)
    80002bb8:	0dc39063          	bne	t2,t3,80002c78 <fail>
    80002bbc:	0b200193          	li	gp,178
    80002bc0:	000f6337          	lui	t1,0xf6
    80002bc4:	f4f3031b          	addiw	t1,t1,-177 # f5f4f <tohost-0x7ff0a0b1>
    80002bc8:	00c31313          	slli	t1,t1,0xc
    80002bcc:	3f230313          	addi	t1,t1,1010
    80002bd0:	ffcb03b7          	lui	t2,0xffcb0
    80002bd4:	8fb3839b          	addiw	t2,t2,-1797 # ffffffffffcaf8fb <_end+0xffffffff7fcac75b>
    80002bd8:	00f39393          	slli	t2,t2,0xf
    80002bdc:	d3d38393          	addi	t2,t2,-707
    80002be0:	00d39393          	slli	t2,t2,0xd
    80002be4:	f9738393          	addi	t2,t2,-105
    80002be8:	00d39393          	slli	t2,t2,0xd
    80002bec:	e8038393          	addi	t2,t2,-384
    80002bf0:	02642fa3          	sw	t1,63(s0)
    80002bf4:	03d43e03          	ld	t3,61(s0)
    80002bf8:	09c39063          	bne	t2,t3,80002c78 <fail>
    80002bfc:	0b300193          	li	gp,179
    80002c00:	000fa337          	lui	t1,0xfa
    80002c04:	f8f3031b          	addiw	t1,t1,-113 # f9f8f <tohost-0x7ff06071>
    80002c08:	00c31313          	slli	t1,t1,0xc
    80002c0c:	7f630313          	addi	t1,t1,2038
    80002c10:	ffcb53b7          	lui	t2,0xffcb5
    80002c14:	af93839b          	addiw	t2,t2,-1287 # ffffffffffcb4af9 <_end+0xffffffff7fcb1959>
    80002c18:	01039393          	slli	t2,t2,0x10
    80002c1c:	afd38393          	addi	t2,t2,-1283
    80002c20:	00d39393          	slli	t2,t2,0xd
    80002c24:	f8f38393          	addi	t2,t2,-113
    80002c28:	00c39393          	slli	t2,t2,0xc
    80002c2c:	7f638393          	addi	t2,t2,2038
    80002c30:	02642f23          	sw	t1,62(s0)
    80002c34:	03e43e03          	ld	t3,62(s0)
    80002c38:	05c39063          	bne	t2,t3,80002c78 <fail>
    80002c3c:	0b400193          	li	gp,180
    80002c40:	00010337          	lui	t1,0x10
    80002c44:	dfd3031b          	addiw	t1,t1,-515 # fdfd <tohost-0x7fff0203>
    80002c48:	01031313          	slli	t1,t1,0x10
    80002c4c:	bfa30313          	addi	t1,t1,-1030
    80002c50:	cbcb53b7          	lui	t2,0xcbcb5
    80002c54:	af93839b          	addiw	t2,t2,-1287 # ffffffffcbcb4af9 <_end+0xffffffff4bcb1959>
    80002c58:	01039393          	slli	t2,t2,0x10
    80002c5c:	afd38393          	addi	t2,t2,-1283
    80002c60:	01139393          	slli	t2,t2,0x11
    80002c64:	dfc38393          	addi	t2,t2,-516
    80002c68:	02642ea3          	sw	t1,61(s0)
    80002c6c:	03f43e03          	ld	t3,63(s0)
    80002c70:	01c39463          	bne	t2,t3,80002c78 <fail>
    80002c74:	02301a63          	bne	zero,gp,80002ca8 <pass>

0000000080002c78 <fail>:
    80002c78:	0ff0000f          	fence
    80002c7c:	00000597          	auipc	a1,0x0
    80002c80:	38458593          	addi	a1,a1,900 # 80003000 <hello>
    80002c84:	00f00613          	li	a2,15
    80002c88:	04000893          	li	a7,64
    80002c8c:	00000073          	ecall
    80002c90:	00018063          	beqz	gp,80002c90 <fail+0x18>
    80002c94:	00119193          	slli	gp,gp,0x1
    80002c98:	0011e193          	ori	gp,gp,1
    80002c9c:	05d00893          	li	a7,93
    80002ca0:	00018513          	mv	a0,gp
    80002ca4:	00000073          	ecall

0000000080002ca8 <pass>:
    80002ca8:	0ff0000f          	fence
    80002cac:	00100513          	li	a0,1
    80002cb0:	00000597          	auipc	a1,0x0
    80002cb4:	35058593          	addi	a1,a1,848 # 80003000 <hello>
    80002cb8:	00f00613          	li	a2,15
    80002cbc:	04000893          	li	a7,64
    80002cc0:	00000073          	ecall
    80002cc4:	00100193          	li	gp,1
    80002cc8:	05d00893          	li	a7,93
    80002ccc:	00000513          	li	a0,0
    80002cd0:	00000073          	ecall
    80002cd4:	c0001073          	unimp
