
rv64ui-p-srli:     file format elf64-littleriscv


Disassembly of section .text:

0000000080001000 <test_2>:
    80001000:	00200193          	li	gp,2
    80001004:	800000b7          	lui	ra,0x80000
    80001008:	0000d713          	srli	a4,ra,0x0
    8000100c:	800003b7          	lui	t2,0x80000
    80001010:	2e771663          	bne	a4,t2,800012fc <fail>

0000000080001014 <test_3>:
    80001014:	00300193          	li	gp,3
    80001018:	800000b7          	lui	ra,0x80000
    8000101c:	0010d713          	srli	a4,ra,0x1
    80001020:	0010039b          	addiw	t2,zero,1
    80001024:	02139393          	slli	t2,t2,0x21
    80001028:	fff38393          	addi	t2,t2,-1 # ffffffff7fffffff <_end+0xfffffffeffffdfdf>
    8000102c:	01e39393          	slli	t2,t2,0x1e
    80001030:	2c771663          	bne	a4,t2,800012fc <fail>

0000000080001034 <test_4>:
    80001034:	00400193          	li	gp,4
    80001038:	800000b7          	lui	ra,0x80000
    8000103c:	0070d713          	srli	a4,ra,0x7
    80001040:	0010039b          	addiw	t2,zero,1
    80001044:	02139393          	slli	t2,t2,0x21
    80001048:	fff38393          	addi	t2,t2,-1
    8000104c:	01839393          	slli	t2,t2,0x18
    80001050:	2a771663          	bne	a4,t2,800012fc <fail>

0000000080001054 <test_5>:
    80001054:	00500193          	li	gp,5
    80001058:	800000b7          	lui	ra,0x80000
    8000105c:	00e0d713          	srli	a4,ra,0xe
    80001060:	0010039b          	addiw	t2,zero,1
    80001064:	02139393          	slli	t2,t2,0x21
    80001068:	fff38393          	addi	t2,t2,-1
    8000106c:	01139393          	slli	t2,t2,0x11
    80001070:	28771663          	bne	a4,t2,800012fc <fail>

0000000080001074 <test_6>:
    80001074:	00600193          	li	gp,6
    80001078:	800000b7          	lui	ra,0x80000
    8000107c:	0010809b          	addiw	ra,ra,1 # ffffffff80000001 <_end+0xfffffffeffffdfe1>
    80001080:	01f0d713          	srli	a4,ra,0x1f
    80001084:	0010039b          	addiw	t2,zero,1
    80001088:	02139393          	slli	t2,t2,0x21
    8000108c:	fff38393          	addi	t2,t2,-1
    80001090:	26771663          	bne	a4,t2,800012fc <fail>

0000000080001094 <test_7>:
    80001094:	00700193          	li	gp,7
    80001098:	fff00093          	li	ra,-1
    8000109c:	0000d713          	srli	a4,ra,0x0
    800010a0:	fff00393          	li	t2,-1
    800010a4:	24771c63          	bne	a4,t2,800012fc <fail>

00000000800010a8 <test_8>:
    800010a8:	00800193          	li	gp,8
    800010ac:	fff00093          	li	ra,-1
    800010b0:	0010d713          	srli	a4,ra,0x1
    800010b4:	fff0039b          	addiw	t2,zero,-1
    800010b8:	03f39393          	slli	t2,t2,0x3f
    800010bc:	fff38393          	addi	t2,t2,-1
    800010c0:	22771e63          	bne	a4,t2,800012fc <fail>

00000000800010c4 <test_9>:
    800010c4:	00900193          	li	gp,9
    800010c8:	fff00093          	li	ra,-1
    800010cc:	0070d713          	srli	a4,ra,0x7
    800010d0:	0010039b          	addiw	t2,zero,1
    800010d4:	03939393          	slli	t2,t2,0x39
    800010d8:	fff38393          	addi	t2,t2,-1
    800010dc:	22771063          	bne	a4,t2,800012fc <fail>

00000000800010e0 <test_10>:
    800010e0:	00a00193          	li	gp,10
    800010e4:	fff00093          	li	ra,-1
    800010e8:	00e0d713          	srli	a4,ra,0xe
    800010ec:	0010039b          	addiw	t2,zero,1
    800010f0:	03239393          	slli	t2,t2,0x32
    800010f4:	fff38393          	addi	t2,t2,-1
    800010f8:	20771263          	bne	a4,t2,800012fc <fail>

00000000800010fc <test_11>:
    800010fc:	00b00193          	li	gp,11
    80001100:	fff00093          	li	ra,-1
    80001104:	01f0d713          	srli	a4,ra,0x1f
    80001108:	0010039b          	addiw	t2,zero,1
    8000110c:	02139393          	slli	t2,t2,0x21
    80001110:	fff38393          	addi	t2,t2,-1
    80001114:	1e771463          	bne	a4,t2,800012fc <fail>

0000000080001118 <test_12>:
    80001118:	00c00193          	li	gp,12
    8000111c:	212120b7          	lui	ra,0x21212
    80001120:	1210809b          	addiw	ra,ra,289 # 21212121 <tohost-0x5edededf>
    80001124:	0000d713          	srli	a4,ra,0x0
    80001128:	212123b7          	lui	t2,0x21212
    8000112c:	1213839b          	addiw	t2,t2,289 # 21212121 <tohost-0x5edededf>
    80001130:	1c771663          	bne	a4,t2,800012fc <fail>

0000000080001134 <test_13>:
    80001134:	00d00193          	li	gp,13
    80001138:	212120b7          	lui	ra,0x21212
    8000113c:	1210809b          	addiw	ra,ra,289 # 21212121 <tohost-0x5edededf>
    80001140:	0010d713          	srli	a4,ra,0x1
    80001144:	109093b7          	lui	t2,0x10909
    80001148:	0903839b          	addiw	t2,t2,144 # 10909090 <tohost-0x6f6f6f70>
    8000114c:	1a771863          	bne	a4,t2,800012fc <fail>

0000000080001150 <test_14>:
    80001150:	00e00193          	li	gp,14
    80001154:	212120b7          	lui	ra,0x21212
    80001158:	1210809b          	addiw	ra,ra,289 # 21212121 <tohost-0x5edededf>
    8000115c:	0070d713          	srli	a4,ra,0x7
    80001160:	004243b7          	lui	t2,0x424
    80001164:	2423839b          	addiw	t2,t2,578 # 424242 <tohost-0x7fbdbdbe>
    80001168:	18771a63          	bne	a4,t2,800012fc <fail>

000000008000116c <test_15>:
    8000116c:	00f00193          	li	gp,15
    80001170:	212120b7          	lui	ra,0x21212
    80001174:	1210809b          	addiw	ra,ra,289 # 21212121 <tohost-0x5edededf>
    80001178:	00e0d713          	srli	a4,ra,0xe
    8000117c:	000083b7          	lui	t2,0x8
    80001180:	4843839b          	addiw	t2,t2,1156 # 8484 <tohost-0x7fff7b7c>
    80001184:	16771c63          	bne	a4,t2,800012fc <fail>

0000000080001188 <test_16>:
    80001188:	01000193          	li	gp,16
    8000118c:	212120b7          	lui	ra,0x21212
    80001190:	1210809b          	addiw	ra,ra,289 # 21212121 <tohost-0x5edededf>
    80001194:	01f0d713          	srli	a4,ra,0x1f
    80001198:	00000393          	li	t2,0
    8000119c:	16771063          	bne	a4,t2,800012fc <fail>

00000000800011a0 <test_17>:
    800011a0:	01100193          	li	gp,17
    800011a4:	0010009b          	addiw	ra,zero,1
    800011a8:	01f09093          	slli	ra,ra,0x1f
    800011ac:	0070d093          	srli	ra,ra,0x7
    800011b0:	010003b7          	lui	t2,0x1000
    800011b4:	14709463          	bne	ra,t2,800012fc <fail>

00000000800011b8 <test_18>:
    800011b8:	01200193          	li	gp,18
    800011bc:	00000213          	li	tp,0
    800011c0:	0010009b          	addiw	ra,zero,1
    800011c4:	01f09093          	slli	ra,ra,0x1f
    800011c8:	0070d713          	srli	a4,ra,0x7
    800011cc:	00070313          	mv	t1,a4
    800011d0:	00120213          	addi	tp,tp,1 # 1 <tohost-0x7fffffff>
    800011d4:	00200293          	li	t0,2
    800011d8:	fe5214e3          	bne	tp,t0,800011c0 <test_18+0x8>
    800011dc:	010003b7          	lui	t2,0x1000
    800011e0:	10731e63          	bne	t1,t2,800012fc <fail>

00000000800011e4 <test_19>:
    800011e4:	01300193          	li	gp,19
    800011e8:	00000213          	li	tp,0
    800011ec:	0010009b          	addiw	ra,zero,1
    800011f0:	01f09093          	slli	ra,ra,0x1f
    800011f4:	00e0d713          	srli	a4,ra,0xe
    800011f8:	00000013          	nop
    800011fc:	00070313          	mv	t1,a4
    80001200:	00120213          	addi	tp,tp,1 # 1 <tohost-0x7fffffff>
    80001204:	00200293          	li	t0,2
    80001208:	fe5212e3          	bne	tp,t0,800011ec <test_19+0x8>
    8000120c:	000203b7          	lui	t2,0x20
    80001210:	0e731663          	bne	t1,t2,800012fc <fail>

0000000080001214 <test_20>:
    80001214:	01400193          	li	gp,20
    80001218:	00000213          	li	tp,0
    8000121c:	0010009b          	addiw	ra,zero,1
    80001220:	01f09093          	slli	ra,ra,0x1f
    80001224:	00108093          	addi	ra,ra,1
    80001228:	01f0d713          	srli	a4,ra,0x1f
    8000122c:	00000013          	nop
    80001230:	00000013          	nop
    80001234:	00070313          	mv	t1,a4
    80001238:	00120213          	addi	tp,tp,1 # 1 <tohost-0x7fffffff>
    8000123c:	00200293          	li	t0,2
    80001240:	fc521ee3          	bne	tp,t0,8000121c <test_20+0x8>
    80001244:	00100393          	li	t2,1
    80001248:	0a731a63          	bne	t1,t2,800012fc <fail>

000000008000124c <test_21>:
    8000124c:	01500193          	li	gp,21
    80001250:	00000213          	li	tp,0
    80001254:	0010009b          	addiw	ra,zero,1
    80001258:	01f09093          	slli	ra,ra,0x1f
    8000125c:	0070d713          	srli	a4,ra,0x7
    80001260:	00120213          	addi	tp,tp,1 # 1 <tohost-0x7fffffff>
    80001264:	00200293          	li	t0,2
    80001268:	fe5216e3          	bne	tp,t0,80001254 <test_21+0x8>
    8000126c:	010003b7          	lui	t2,0x1000
    80001270:	08771663          	bne	a4,t2,800012fc <fail>

0000000080001274 <test_22>:
    80001274:	01600193          	li	gp,22
    80001278:	00000213          	li	tp,0
    8000127c:	0010009b          	addiw	ra,zero,1
    80001280:	01f09093          	slli	ra,ra,0x1f
    80001284:	00000013          	nop
    80001288:	00e0d713          	srli	a4,ra,0xe
    8000128c:	00120213          	addi	tp,tp,1 # 1 <tohost-0x7fffffff>
    80001290:	00200293          	li	t0,2
    80001294:	fe5214e3          	bne	tp,t0,8000127c <test_22+0x8>
    80001298:	000203b7          	lui	t2,0x20
    8000129c:	06771063          	bne	a4,t2,800012fc <fail>

00000000800012a0 <test_23>:
    800012a0:	01700193          	li	gp,23
    800012a4:	00000213          	li	tp,0
    800012a8:	0010009b          	addiw	ra,zero,1
    800012ac:	01f09093          	slli	ra,ra,0x1f
    800012b0:	00108093          	addi	ra,ra,1
    800012b4:	00000013          	nop
    800012b8:	00000013          	nop
    800012bc:	01f0d713          	srli	a4,ra,0x1f
    800012c0:	00120213          	addi	tp,tp,1 # 1 <tohost-0x7fffffff>
    800012c4:	00200293          	li	t0,2
    800012c8:	fe5210e3          	bne	tp,t0,800012a8 <test_23+0x8>
    800012cc:	00100393          	li	t2,1
    800012d0:	02771663          	bne	a4,t2,800012fc <fail>

00000000800012d4 <test_24>:
    800012d4:	01800193          	li	gp,24
    800012d8:	00405093          	srli	ra,zero,0x4
    800012dc:	00000393          	li	t2,0
    800012e0:	00709e63          	bne	ra,t2,800012fc <fail>

00000000800012e4 <test_25>:
    800012e4:	01900193          	li	gp,25
    800012e8:	02100093          	li	ra,33
    800012ec:	00a0d013          	srli	zero,ra,0xa
    800012f0:	00000393          	li	t2,0
    800012f4:	00701463          	bne	zero,t2,800012fc <fail>
    800012f8:	02301a63          	bne	zero,gp,8000132c <pass>

00000000800012fc <fail>:
    800012fc:	0ff0000f          	fence
    80001300:	00001597          	auipc	a1,0x1
    80001304:	d0058593          	addi	a1,a1,-768 # 80002000 <hello>
    80001308:	00f00613          	li	a2,15
    8000130c:	04000893          	li	a7,64
    80001310:	00000073          	ecall
    80001314:	00018063          	beqz	gp,80001314 <fail+0x18>
    80001318:	00119193          	slli	gp,gp,0x1
    8000131c:	0011e193          	ori	gp,gp,1
    80001320:	05d00893          	li	a7,93
    80001324:	00018513          	mv	a0,gp
    80001328:	00000073          	ecall

000000008000132c <pass>:
    8000132c:	0ff0000f          	fence
    80001330:	00100513          	li	a0,1
    80001334:	00001597          	auipc	a1,0x1
    80001338:	ccc58593          	addi	a1,a1,-820 # 80002000 <hello>
    8000133c:	00f00613          	li	a2,15
    80001340:	04000893          	li	a7,64
    80001344:	00000073          	ecall
    80001348:	00100193          	li	gp,1
    8000134c:	05d00893          	li	a7,93
    80001350:	00000513          	li	a0,0
    80001354:	00000073          	ecall
    80001358:	c0001073          	unimp
