
rv64ui-p-blt:     file format elf64-littleriscv


Disassembly of section .text:

0000000080001000 <test_2>:
    80001000:	00200193          	li	gp,2
    80001004:	00000093          	li	ra,0
    80001008:	00100113          	li	sp,1
    8000100c:	0020c663          	blt	ra,sp,80001018 <test_2+0x18>
    80001010:	2a301863          	bne	zero,gp,800012c0 <fail>
    80001014:	00301663          	bne	zero,gp,80001020 <test_3>
    80001018:	fe20cee3          	blt	ra,sp,80001014 <test_2+0x14>
    8000101c:	2a301263          	bne	zero,gp,800012c0 <fail>

0000000080001020 <test_3>:
    80001020:	00300193          	li	gp,3
    80001024:	fff00093          	li	ra,-1
    80001028:	00100113          	li	sp,1
    8000102c:	0020c663          	blt	ra,sp,80001038 <test_3+0x18>
    80001030:	28301863          	bne	zero,gp,800012c0 <fail>
    80001034:	00301663          	bne	zero,gp,80001040 <test_4>
    80001038:	fe20cee3          	blt	ra,sp,80001034 <test_3+0x14>
    8000103c:	28301263          	bne	zero,gp,800012c0 <fail>

0000000080001040 <test_4>:
    80001040:	00400193          	li	gp,4
    80001044:	ffe00093          	li	ra,-2
    80001048:	fff00113          	li	sp,-1
    8000104c:	0020c663          	blt	ra,sp,80001058 <test_4+0x18>
    80001050:	26301863          	bne	zero,gp,800012c0 <fail>
    80001054:	00301663          	bne	zero,gp,80001060 <test_5>
    80001058:	fe20cee3          	blt	ra,sp,80001054 <test_4+0x14>
    8000105c:	26301263          	bne	zero,gp,800012c0 <fail>

0000000080001060 <test_5>:
    80001060:	00500193          	li	gp,5
    80001064:	00100093          	li	ra,1
    80001068:	00000113          	li	sp,0
    8000106c:	0020c463          	blt	ra,sp,80001074 <test_5+0x14>
    80001070:	00301463          	bne	zero,gp,80001078 <test_5+0x18>
    80001074:	24301663          	bne	zero,gp,800012c0 <fail>
    80001078:	fe20cee3          	blt	ra,sp,80001074 <test_5+0x14>

000000008000107c <test_6>:
    8000107c:	00600193          	li	gp,6
    80001080:	00100093          	li	ra,1
    80001084:	fff00113          	li	sp,-1
    80001088:	0020c463          	blt	ra,sp,80001090 <test_6+0x14>
    8000108c:	00301463          	bne	zero,gp,80001094 <test_6+0x18>
    80001090:	22301863          	bne	zero,gp,800012c0 <fail>
    80001094:	fe20cee3          	blt	ra,sp,80001090 <test_6+0x14>

0000000080001098 <test_7>:
    80001098:	00700193          	li	gp,7
    8000109c:	fff00093          	li	ra,-1
    800010a0:	ffe00113          	li	sp,-2
    800010a4:	0020c463          	blt	ra,sp,800010ac <test_7+0x14>
    800010a8:	00301463          	bne	zero,gp,800010b0 <test_7+0x18>
    800010ac:	20301a63          	bne	zero,gp,800012c0 <fail>
    800010b0:	fe20cee3          	blt	ra,sp,800010ac <test_7+0x14>

00000000800010b4 <test_8>:
    800010b4:	00800193          	li	gp,8
    800010b8:	00100093          	li	ra,1
    800010bc:	ffe00113          	li	sp,-2
    800010c0:	0020c463          	blt	ra,sp,800010c8 <test_8+0x14>
    800010c4:	00301463          	bne	zero,gp,800010cc <test_8+0x18>
    800010c8:	1e301c63          	bne	zero,gp,800012c0 <fail>
    800010cc:	fe20cee3          	blt	ra,sp,800010c8 <test_8+0x14>

00000000800010d0 <test_9>:
    800010d0:	00900193          	li	gp,9
    800010d4:	00000213          	li	tp,0
    800010d8:	00000093          	li	ra,0
    800010dc:	fff00113          	li	sp,-1
    800010e0:	1e20c063          	blt	ra,sp,800012c0 <fail>
    800010e4:	00120213          	addi	tp,tp,1 # 1 <tohost-0x7fffffff>
    800010e8:	00200293          	li	t0,2
    800010ec:	fe5216e3          	bne	tp,t0,800010d8 <test_9+0x8>

00000000800010f0 <test_10>:
    800010f0:	00a00193          	li	gp,10
    800010f4:	00000213          	li	tp,0
    800010f8:	00000093          	li	ra,0
    800010fc:	fff00113          	li	sp,-1
    80001100:	00000013          	nop
    80001104:	1a20ce63          	blt	ra,sp,800012c0 <fail>
    80001108:	00120213          	addi	tp,tp,1 # 1 <tohost-0x7fffffff>
    8000110c:	00200293          	li	t0,2
    80001110:	fe5214e3          	bne	tp,t0,800010f8 <test_10+0x8>

0000000080001114 <test_11>:
    80001114:	00b00193          	li	gp,11
    80001118:	00000213          	li	tp,0
    8000111c:	00000093          	li	ra,0
    80001120:	fff00113          	li	sp,-1
    80001124:	00000013          	nop
    80001128:	00000013          	nop
    8000112c:	1820ca63          	blt	ra,sp,800012c0 <fail>
    80001130:	00120213          	addi	tp,tp,1 # 1 <tohost-0x7fffffff>
    80001134:	00200293          	li	t0,2
    80001138:	fe5212e3          	bne	tp,t0,8000111c <test_11+0x8>

000000008000113c <test_12>:
    8000113c:	00c00193          	li	gp,12
    80001140:	00000213          	li	tp,0
    80001144:	00000093          	li	ra,0
    80001148:	00000013          	nop
    8000114c:	fff00113          	li	sp,-1
    80001150:	1620c863          	blt	ra,sp,800012c0 <fail>
    80001154:	00120213          	addi	tp,tp,1 # 1 <tohost-0x7fffffff>
    80001158:	00200293          	li	t0,2
    8000115c:	fe5214e3          	bne	tp,t0,80001144 <test_12+0x8>

0000000080001160 <test_13>:
    80001160:	00d00193          	li	gp,13
    80001164:	00000213          	li	tp,0
    80001168:	00000093          	li	ra,0
    8000116c:	00000013          	nop
    80001170:	fff00113          	li	sp,-1
    80001174:	00000013          	nop
    80001178:	1420c463          	blt	ra,sp,800012c0 <fail>
    8000117c:	00120213          	addi	tp,tp,1 # 1 <tohost-0x7fffffff>
    80001180:	00200293          	li	t0,2
    80001184:	fe5212e3          	bne	tp,t0,80001168 <test_13+0x8>

0000000080001188 <test_14>:
    80001188:	00e00193          	li	gp,14
    8000118c:	00000213          	li	tp,0
    80001190:	00000093          	li	ra,0
    80001194:	00000013          	nop
    80001198:	00000013          	nop
    8000119c:	fff00113          	li	sp,-1
    800011a0:	1220c063          	blt	ra,sp,800012c0 <fail>
    800011a4:	00120213          	addi	tp,tp,1 # 1 <tohost-0x7fffffff>
    800011a8:	00200293          	li	t0,2
    800011ac:	fe5212e3          	bne	tp,t0,80001190 <test_14+0x8>

00000000800011b0 <test_15>:
    800011b0:	00f00193          	li	gp,15
    800011b4:	00000213          	li	tp,0
    800011b8:	00000093          	li	ra,0
    800011bc:	fff00113          	li	sp,-1
    800011c0:	1020c063          	blt	ra,sp,800012c0 <fail>
    800011c4:	00120213          	addi	tp,tp,1 # 1 <tohost-0x7fffffff>
    800011c8:	00200293          	li	t0,2
    800011cc:	fe5216e3          	bne	tp,t0,800011b8 <test_15+0x8>

00000000800011d0 <test_16>:
    800011d0:	01000193          	li	gp,16
    800011d4:	00000213          	li	tp,0
    800011d8:	00000093          	li	ra,0
    800011dc:	fff00113          	li	sp,-1
    800011e0:	00000013          	nop
    800011e4:	0c20ce63          	blt	ra,sp,800012c0 <fail>
    800011e8:	00120213          	addi	tp,tp,1 # 1 <tohost-0x7fffffff>
    800011ec:	00200293          	li	t0,2
    800011f0:	fe5214e3          	bne	tp,t0,800011d8 <test_16+0x8>

00000000800011f4 <test_17>:
    800011f4:	01100193          	li	gp,17
    800011f8:	00000213          	li	tp,0
    800011fc:	00000093          	li	ra,0
    80001200:	fff00113          	li	sp,-1
    80001204:	00000013          	nop
    80001208:	00000013          	nop
    8000120c:	0a20ca63          	blt	ra,sp,800012c0 <fail>
    80001210:	00120213          	addi	tp,tp,1 # 1 <tohost-0x7fffffff>
    80001214:	00200293          	li	t0,2
    80001218:	fe5212e3          	bne	tp,t0,800011fc <test_17+0x8>

000000008000121c <test_18>:
    8000121c:	01200193          	li	gp,18
    80001220:	00000213          	li	tp,0
    80001224:	00000093          	li	ra,0
    80001228:	00000013          	nop
    8000122c:	fff00113          	li	sp,-1
    80001230:	0820c863          	blt	ra,sp,800012c0 <fail>
    80001234:	00120213          	addi	tp,tp,1 # 1 <tohost-0x7fffffff>
    80001238:	00200293          	li	t0,2
    8000123c:	fe5214e3          	bne	tp,t0,80001224 <test_18+0x8>

0000000080001240 <test_19>:
    80001240:	01300193          	li	gp,19
    80001244:	00000213          	li	tp,0
    80001248:	00000093          	li	ra,0
    8000124c:	00000013          	nop
    80001250:	fff00113          	li	sp,-1
    80001254:	00000013          	nop
    80001258:	0620c463          	blt	ra,sp,800012c0 <fail>
    8000125c:	00120213          	addi	tp,tp,1 # 1 <tohost-0x7fffffff>
    80001260:	00200293          	li	t0,2
    80001264:	fe5212e3          	bne	tp,t0,80001248 <test_19+0x8>

0000000080001268 <test_20>:
    80001268:	01400193          	li	gp,20
    8000126c:	00000213          	li	tp,0
    80001270:	00000093          	li	ra,0
    80001274:	00000013          	nop
    80001278:	00000013          	nop
    8000127c:	fff00113          	li	sp,-1
    80001280:	0420c063          	blt	ra,sp,800012c0 <fail>
    80001284:	00120213          	addi	tp,tp,1 # 1 <tohost-0x7fffffff>
    80001288:	00200293          	li	t0,2
    8000128c:	fe5212e3          	bne	tp,t0,80001270 <test_20+0x8>

0000000080001290 <test_21>:
    80001290:	01500193          	li	gp,21
    80001294:	00100093          	li	ra,1
    80001298:	00104a63          	bgtz	ra,800012ac <test_21+0x1c>
    8000129c:	00108093          	addi	ra,ra,1
    800012a0:	00108093          	addi	ra,ra,1
    800012a4:	00108093          	addi	ra,ra,1
    800012a8:	00108093          	addi	ra,ra,1
    800012ac:	00108093          	addi	ra,ra,1
    800012b0:	00108093          	addi	ra,ra,1
    800012b4:	00300393          	li	t2,3
    800012b8:	00709463          	bne	ra,t2,800012c0 <fail>
    800012bc:	02301a63          	bne	zero,gp,800012f0 <pass>

00000000800012c0 <fail>:
    800012c0:	0ff0000f          	fence
    800012c4:	00001597          	auipc	a1,0x1
    800012c8:	d3c58593          	addi	a1,a1,-708 # 80002000 <hello>
    800012cc:	00f00613          	li	a2,15
    800012d0:	04000893          	li	a7,64
    800012d4:	00000073          	ecall
    800012d8:	00018063          	beqz	gp,800012d8 <fail+0x18>
    800012dc:	00119193          	slli	gp,gp,0x1
    800012e0:	0011e193          	ori	gp,gp,1
    800012e4:	05d00893          	li	a7,93
    800012e8:	00018513          	mv	a0,gp
    800012ec:	00000073          	ecall

00000000800012f0 <pass>:
    800012f0:	0ff0000f          	fence
    800012f4:	00100513          	li	a0,1
    800012f8:	00001597          	auipc	a1,0x1
    800012fc:	d0858593          	addi	a1,a1,-760 # 80002000 <hello>
    80001300:	00f00613          	li	a2,15
    80001304:	04000893          	li	a7,64
    80001308:	00000073          	ecall
    8000130c:	00100193          	li	gp,1
    80001310:	05d00893          	li	a7,93
    80001314:	00000513          	li	a0,0
    80001318:	00000073          	ecall
    8000131c:	c0001073          	unimp
