
rv64mi-p-breakpoint:     file format elf64-littleriscv


Disassembly of section .text:

0000000080001000 <fail-0xfc>:
    80001000:	00200193          	li	gp,2
    80001004:	7a001073          	csrw	tselect,zero
    80001008:	7a0025f3          	csrr	a1,tselect
    8000100c:	12b01063          	bne	zero,a1,8000112c <pass>
    80001010:	00000617          	auipc	a2,0x0
    80001014:	02460613          	addi	a2,a2,36 # 80001034 <fromhost+0xff4>
    80001018:	7a261073          	csrw	tdata2,a2
    8000101c:	0010051b          	addiw	a0,zero,1
    80001020:	03d51513          	slli	a0,a0,0x3d
    80001024:	04450513          	addi	a0,a0,68
    80001028:	7a151073          	csrw	tdata1,a0
    8000102c:	7a1025f3          	csrr	a1,tdata1
    80001030:	00b51863          	bne	a0,a1,80001040 <fromhost+0x1000>
    80001034:	0c000463          	beqz	zero,800010fc <fail>
    80001038:	00300193          	li	gp,3
    8000103c:	00062503          	lw	a0,0(a2)
    80001040:	00400193          	li	gp,4
    80001044:	0010051b          	addiw	a0,zero,1
    80001048:	03d51513          	slli	a0,a0,0x3d
    8000104c:	04150513          	addi	a0,a0,65
    80001050:	7a151073          	csrw	tdata1,a0
    80001054:	7a1025f3          	csrr	a1,tdata1
    80001058:	02b51063          	bne	a0,a1,80001078 <fromhost+0x1038>
    8000105c:	00001617          	auipc	a2,0x1
    80001060:	fc460613          	addi	a2,a2,-60 # 80002020 <begin_signature>
    80001064:	7a261073          	csrw	tdata2,a2
    80001068:	00062603          	lw	a2,0(a2)
    8000106c:	08060863          	beqz	a2,800010fc <fail>
    80001070:	00500193          	li	gp,5
    80001074:	00062023          	sw	zero,0(a2)
    80001078:	00600193          	li	gp,6
    8000107c:	0010051b          	addiw	a0,zero,1
    80001080:	03d51513          	slli	a0,a0,0x3d
    80001084:	04250513          	addi	a0,a0,66
    80001088:	7a151073          	csrw	tdata1,a0
    8000108c:	7a1025f3          	csrr	a1,tdata1
    80001090:	06b51463          	bne	a0,a1,800010f8 <fromhost+0x10b8>
    80001094:	00c62023          	sw	a2,0(a2)
    80001098:	00700193          	li	gp,7
    8000109c:	00062603          	lw	a2,0(a2)
    800010a0:	04061e63          	bnez	a2,800010fc <fail>
    800010a4:	00100513          	li	a0,1
    800010a8:	7a051073          	csrw	tselect,a0
    800010ac:	7a0025f3          	csrr	a1,tselect
    800010b0:	06b51e63          	bne	a0,a1,8000112c <pass>
    800010b4:	0010051b          	addiw	a0,zero,1
    800010b8:	03d51513          	slli	a0,a0,0x3d
    800010bc:	04150513          	addi	a0,a0,65
    800010c0:	7a151073          	csrw	tdata1,a0
    800010c4:	00001697          	auipc	a3,0x1
    800010c8:	f6068693          	addi	a3,a3,-160 # 80002024 <data2>
    800010cc:	7a269073          	csrw	tdata2,a3
    800010d0:	00800193          	li	gp,8
    800010d4:	0006a683          	lw	a3,0(a3)
    800010d8:	02068263          	beqz	a3,800010fc <fail>
    800010dc:	00a00193          	li	gp,10
    800010e0:	00001617          	auipc	a2,0x1
    800010e4:	f4060613          	addi	a2,a2,-192 # 80002020 <begin_signature>
    800010e8:	00c62023          	sw	a2,0(a2)
    800010ec:	00b00193          	li	gp,11
    800010f0:	00062603          	lw	a2,0(a2)
    800010f4:	00061463          	bnez	a2,800010fc <fail>
    800010f8:	02301a63          	bne	zero,gp,8000112c <pass>

00000000800010fc <fail>:
    800010fc:	0ff0000f          	fence
    80001100:	00001597          	auipc	a1,0x1
    80001104:	f0058593          	addi	a1,a1,-256 # 80002000 <hello>
    80001108:	00f00613          	li	a2,15
    8000110c:	04000893          	li	a7,64
    80001110:	00000073          	ecall
    80001114:	00018063          	beqz	gp,80001114 <fail+0x18>
    80001118:	00119193          	slli	gp,gp,0x1
    8000111c:	0011e193          	ori	gp,gp,1
    80001120:	05d00893          	li	a7,93
    80001124:	00018513          	mv	a0,gp
    80001128:	00000073          	ecall

000000008000112c <pass>:
    8000112c:	0ff0000f          	fence
    80001130:	00100513          	li	a0,1
    80001134:	00001597          	auipc	a1,0x1
    80001138:	ecc58593          	addi	a1,a1,-308 # 80002000 <hello>
    8000113c:	00f00613          	li	a2,15
    80001140:	04000893          	li	a7,64
    80001144:	00000073          	ecall
    80001148:	00100193          	li	gp,1
    8000114c:	05d00893          	li	a7,93
    80001150:	00000513          	li	a0,0
    80001154:	00000073          	ecall

0000000080001158 <mtvec_handler>:
    80001158:	0011f293          	andi	t0,gp,1
    8000115c:	fa0290e3          	bnez	t0,800010fc <fail>
    80001160:	00300293          	li	t0,3
    80001164:	34202373          	csrr	t1,mcause
    80001168:	f8629ae3          	bne	t0,t1,800010fc <fail>
    8000116c:	341022f3          	csrr	t0,mepc
    80001170:	00428293          	addi	t0,t0,4
    80001174:	34129073          	csrw	mepc,t0
    80001178:	30200073          	mret
    8000117c:	c0001073          	unimp
