
rv64ui-p-sltu:     file format elf64-littleriscv


Disassembly of section .text:

0000000080001000 <test_2>:
    80001000:	00200193          	li	gp,2
    80001004:	00000093          	li	ra,0
    80001008:	00000113          	li	sp,0
    8000100c:	0020b733          	sltu	a4,ra,sp
    80001010:	00000393          	li	t2,0
    80001014:	4e771c63          	bne	a4,t2,8000150c <fail>

0000000080001018 <test_3>:
    80001018:	00300193          	li	gp,3
    8000101c:	00100093          	li	ra,1
    80001020:	00100113          	li	sp,1
    80001024:	0020b733          	sltu	a4,ra,sp
    80001028:	00000393          	li	t2,0
    8000102c:	4e771063          	bne	a4,t2,8000150c <fail>

0000000080001030 <test_4>:
    80001030:	00400193          	li	gp,4
    80001034:	00300093          	li	ra,3
    80001038:	00700113          	li	sp,7
    8000103c:	0020b733          	sltu	a4,ra,sp
    80001040:	00100393          	li	t2,1
    80001044:	4c771463          	bne	a4,t2,8000150c <fail>

0000000080001048 <test_5>:
    80001048:	00500193          	li	gp,5
    8000104c:	00700093          	li	ra,7
    80001050:	00300113          	li	sp,3
    80001054:	0020b733          	sltu	a4,ra,sp
    80001058:	00000393          	li	t2,0
    8000105c:	4a771863          	bne	a4,t2,8000150c <fail>

0000000080001060 <test_6>:
    80001060:	00600193          	li	gp,6
    80001064:	00000093          	li	ra,0
    80001068:	00020137          	lui	sp,0x20
    8000106c:	fff1011b          	addiw	sp,sp,-1 # 1ffff <tohost-0x7ffe0001>
    80001070:	00f11113          	slli	sp,sp,0xf
    80001074:	0020b733          	sltu	a4,ra,sp
    80001078:	00100393          	li	t2,1
    8000107c:	48771863          	bne	a4,t2,8000150c <fail>

0000000080001080 <test_7>:
    80001080:	00700193          	li	gp,7
    80001084:	0010009b          	addiw	ra,zero,1
    80001088:	01f09093          	slli	ra,ra,0x1f
    8000108c:	00000113          	li	sp,0
    80001090:	0020b733          	sltu	a4,ra,sp
    80001094:	00000393          	li	t2,0
    80001098:	46771a63          	bne	a4,t2,8000150c <fail>

000000008000109c <test_8>:
    8000109c:	00800193          	li	gp,8
    800010a0:	0010009b          	addiw	ra,zero,1
    800010a4:	01f09093          	slli	ra,ra,0x1f
    800010a8:	00020137          	lui	sp,0x20
    800010ac:	fff1011b          	addiw	sp,sp,-1 # 1ffff <tohost-0x7ffe0001>
    800010b0:	00f11113          	slli	sp,sp,0xf
    800010b4:	0020b733          	sltu	a4,ra,sp
    800010b8:	00100393          	li	t2,1
    800010bc:	44771863          	bne	a4,t2,8000150c <fail>

00000000800010c0 <test_9>:
    800010c0:	00900193          	li	gp,9
    800010c4:	00000093          	li	ra,0
    800010c8:	00008137          	lui	sp,0x8
    800010cc:	fff1011b          	addiw	sp,sp,-1 # 7fff <tohost-0x7fff8001>
    800010d0:	0020b733          	sltu	a4,ra,sp
    800010d4:	00100393          	li	t2,1
    800010d8:	42771a63          	bne	a4,t2,8000150c <fail>

00000000800010dc <test_10>:
    800010dc:	00a00193          	li	gp,10
    800010e0:	800000b7          	lui	ra,0x80000
    800010e4:	fff0809b          	addiw	ra,ra,-1 # 7fffffff <tohost-0x1>
    800010e8:	00000113          	li	sp,0
    800010ec:	0020b733          	sltu	a4,ra,sp
    800010f0:	00000393          	li	t2,0
    800010f4:	40771c63          	bne	a4,t2,8000150c <fail>

00000000800010f8 <test_11>:
    800010f8:	00b00193          	li	gp,11
    800010fc:	800000b7          	lui	ra,0x80000
    80001100:	fff0809b          	addiw	ra,ra,-1 # 7fffffff <tohost-0x1>
    80001104:	00008137          	lui	sp,0x8
    80001108:	fff1011b          	addiw	sp,sp,-1 # 7fff <tohost-0x7fff8001>
    8000110c:	0020b733          	sltu	a4,ra,sp
    80001110:	00000393          	li	t2,0
    80001114:	3e771c63          	bne	a4,t2,8000150c <fail>

0000000080001118 <test_12>:
    80001118:	00c00193          	li	gp,12
    8000111c:	0010009b          	addiw	ra,zero,1
    80001120:	01f09093          	slli	ra,ra,0x1f
    80001124:	00008137          	lui	sp,0x8
    80001128:	fff1011b          	addiw	sp,sp,-1 # 7fff <tohost-0x7fff8001>
    8000112c:	0020b733          	sltu	a4,ra,sp
    80001130:	00000393          	li	t2,0
    80001134:	3c771c63          	bne	a4,t2,8000150c <fail>

0000000080001138 <test_13>:
    80001138:	00d00193          	li	gp,13
    8000113c:	800000b7          	lui	ra,0x80000
    80001140:	fff0809b          	addiw	ra,ra,-1 # 7fffffff <tohost-0x1>
    80001144:	00020137          	lui	sp,0x20
    80001148:	fff1011b          	addiw	sp,sp,-1 # 1ffff <tohost-0x7ffe0001>
    8000114c:	00f11113          	slli	sp,sp,0xf
    80001150:	0020b733          	sltu	a4,ra,sp
    80001154:	00100393          	li	t2,1
    80001158:	3a771a63          	bne	a4,t2,8000150c <fail>

000000008000115c <test_14>:
    8000115c:	00e00193          	li	gp,14
    80001160:	00000093          	li	ra,0
    80001164:	0010011b          	addiw	sp,zero,1
    80001168:	02011113          	slli	sp,sp,0x20
    8000116c:	fff10113          	addi	sp,sp,-1
    80001170:	0020b733          	sltu	a4,ra,sp
    80001174:	00100393          	li	t2,1
    80001178:	38771a63          	bne	a4,t2,8000150c <fail>

000000008000117c <test_15>:
    8000117c:	00f00193          	li	gp,15
    80001180:	0010009b          	addiw	ra,zero,1
    80001184:	02009093          	slli	ra,ra,0x20
    80001188:	fff08093          	addi	ra,ra,-1
    8000118c:	00100113          	li	sp,1
    80001190:	0020b733          	sltu	a4,ra,sp
    80001194:	00000393          	li	t2,0
    80001198:	36771a63          	bne	a4,t2,8000150c <fail>

000000008000119c <test_16>:
    8000119c:	01000193          	li	gp,16
    800011a0:	0010009b          	addiw	ra,zero,1
    800011a4:	02009093          	slli	ra,ra,0x20
    800011a8:	fff08093          	addi	ra,ra,-1
    800011ac:	0010011b          	addiw	sp,zero,1
    800011b0:	02011113          	slli	sp,sp,0x20
    800011b4:	fff10113          	addi	sp,sp,-1
    800011b8:	0020b733          	sltu	a4,ra,sp
    800011bc:	00000393          	li	t2,0
    800011c0:	34771663          	bne	a4,t2,8000150c <fail>

00000000800011c4 <test_17>:
    800011c4:	01100193          	li	gp,17
    800011c8:	00e00093          	li	ra,14
    800011cc:	00d00113          	li	sp,13
    800011d0:	0020b0b3          	sltu	ra,ra,sp
    800011d4:	00000393          	li	t2,0
    800011d8:	32709a63          	bne	ra,t2,8000150c <fail>

00000000800011dc <test_18>:
    800011dc:	01200193          	li	gp,18
    800011e0:	00b00093          	li	ra,11
    800011e4:	00d00113          	li	sp,13
    800011e8:	0020b133          	sltu	sp,ra,sp
    800011ec:	00100393          	li	t2,1
    800011f0:	30711e63          	bne	sp,t2,8000150c <fail>

00000000800011f4 <test_19>:
    800011f4:	01300193          	li	gp,19
    800011f8:	00d00093          	li	ra,13
    800011fc:	0010b0b3          	sltu	ra,ra,ra
    80001200:	00000393          	li	t2,0
    80001204:	30709463          	bne	ra,t2,8000150c <fail>

0000000080001208 <test_20>:
    80001208:	01400193          	li	gp,20
    8000120c:	00000213          	li	tp,0
    80001210:	00b00093          	li	ra,11
    80001214:	00d00113          	li	sp,13
    80001218:	0020b733          	sltu	a4,ra,sp
    8000121c:	00070313          	mv	t1,a4
    80001220:	00120213          	addi	tp,tp,1 # 1 <tohost-0x7fffffff>
    80001224:	00200293          	li	t0,2
    80001228:	fe5214e3          	bne	tp,t0,80001210 <test_20+0x8>
    8000122c:	00100393          	li	t2,1
    80001230:	2c731e63          	bne	t1,t2,8000150c <fail>

0000000080001234 <test_21>:
    80001234:	01500193          	li	gp,21
    80001238:	00000213          	li	tp,0
    8000123c:	00e00093          	li	ra,14
    80001240:	00d00113          	li	sp,13
    80001244:	0020b733          	sltu	a4,ra,sp
    80001248:	00000013          	nop
    8000124c:	00070313          	mv	t1,a4
    80001250:	00120213          	addi	tp,tp,1 # 1 <tohost-0x7fffffff>
    80001254:	00200293          	li	t0,2
    80001258:	fe5212e3          	bne	tp,t0,8000123c <test_21+0x8>
    8000125c:	00000393          	li	t2,0
    80001260:	2a731663          	bne	t1,t2,8000150c <fail>

0000000080001264 <test_22>:
    80001264:	01600193          	li	gp,22
    80001268:	00000213          	li	tp,0
    8000126c:	00c00093          	li	ra,12
    80001270:	00d00113          	li	sp,13
    80001274:	0020b733          	sltu	a4,ra,sp
    80001278:	00000013          	nop
    8000127c:	00000013          	nop
    80001280:	00070313          	mv	t1,a4
    80001284:	00120213          	addi	tp,tp,1 # 1 <tohost-0x7fffffff>
    80001288:	00200293          	li	t0,2
    8000128c:	fe5210e3          	bne	tp,t0,8000126c <test_22+0x8>
    80001290:	00100393          	li	t2,1
    80001294:	26731c63          	bne	t1,t2,8000150c <fail>

0000000080001298 <test_23>:
    80001298:	01700193          	li	gp,23
    8000129c:	00000213          	li	tp,0
    800012a0:	00e00093          	li	ra,14
    800012a4:	00d00113          	li	sp,13
    800012a8:	0020b733          	sltu	a4,ra,sp
    800012ac:	00120213          	addi	tp,tp,1 # 1 <tohost-0x7fffffff>
    800012b0:	00200293          	li	t0,2
    800012b4:	fe5216e3          	bne	tp,t0,800012a0 <test_23+0x8>
    800012b8:	00000393          	li	t2,0
    800012bc:	24771863          	bne	a4,t2,8000150c <fail>

00000000800012c0 <test_24>:
    800012c0:	01800193          	li	gp,24
    800012c4:	00000213          	li	tp,0
    800012c8:	00b00093          	li	ra,11
    800012cc:	00d00113          	li	sp,13
    800012d0:	00000013          	nop
    800012d4:	0020b733          	sltu	a4,ra,sp
    800012d8:	00120213          	addi	tp,tp,1 # 1 <tohost-0x7fffffff>
    800012dc:	00200293          	li	t0,2
    800012e0:	fe5214e3          	bne	tp,t0,800012c8 <test_24+0x8>
    800012e4:	00100393          	li	t2,1
    800012e8:	22771263          	bne	a4,t2,8000150c <fail>

00000000800012ec <test_25>:
    800012ec:	01900193          	li	gp,25
    800012f0:	00000213          	li	tp,0
    800012f4:	00f00093          	li	ra,15
    800012f8:	00d00113          	li	sp,13
    800012fc:	00000013          	nop
    80001300:	00000013          	nop
    80001304:	0020b733          	sltu	a4,ra,sp
    80001308:	00120213          	addi	tp,tp,1 # 1 <tohost-0x7fffffff>
    8000130c:	00200293          	li	t0,2
    80001310:	fe5212e3          	bne	tp,t0,800012f4 <test_25+0x8>
    80001314:	00000393          	li	t2,0
    80001318:	1e771a63          	bne	a4,t2,8000150c <fail>

000000008000131c <test_26>:
    8000131c:	01a00193          	li	gp,26
    80001320:	00000213          	li	tp,0
    80001324:	00a00093          	li	ra,10
    80001328:	00000013          	nop
    8000132c:	00d00113          	li	sp,13
    80001330:	0020b733          	sltu	a4,ra,sp
    80001334:	00120213          	addi	tp,tp,1 # 1 <tohost-0x7fffffff>
    80001338:	00200293          	li	t0,2
    8000133c:	fe5214e3          	bne	tp,t0,80001324 <test_26+0x8>
    80001340:	00100393          	li	t2,1
    80001344:	1c771463          	bne	a4,t2,8000150c <fail>

0000000080001348 <test_27>:
    80001348:	01b00193          	li	gp,27
    8000134c:	00000213          	li	tp,0
    80001350:	01000093          	li	ra,16
    80001354:	00000013          	nop
    80001358:	00d00113          	li	sp,13
    8000135c:	00000013          	nop
    80001360:	0020b733          	sltu	a4,ra,sp
    80001364:	00120213          	addi	tp,tp,1 # 1 <tohost-0x7fffffff>
    80001368:	00200293          	li	t0,2
    8000136c:	fe5212e3          	bne	tp,t0,80001350 <test_27+0x8>
    80001370:	00000393          	li	t2,0
    80001374:	18771c63          	bne	a4,t2,8000150c <fail>

0000000080001378 <test_28>:
    80001378:	01c00193          	li	gp,28
    8000137c:	00000213          	li	tp,0
    80001380:	00900093          	li	ra,9
    80001384:	00000013          	nop
    80001388:	00000013          	nop
    8000138c:	00d00113          	li	sp,13
    80001390:	0020b733          	sltu	a4,ra,sp
    80001394:	00120213          	addi	tp,tp,1 # 1 <tohost-0x7fffffff>
    80001398:	00200293          	li	t0,2
    8000139c:	fe5212e3          	bne	tp,t0,80001380 <test_28+0x8>
    800013a0:	00100393          	li	t2,1
    800013a4:	16771463          	bne	a4,t2,8000150c <fail>

00000000800013a8 <test_29>:
    800013a8:	01d00193          	li	gp,29
    800013ac:	00000213          	li	tp,0
    800013b0:	00d00113          	li	sp,13
    800013b4:	01100093          	li	ra,17
    800013b8:	0020b733          	sltu	a4,ra,sp
    800013bc:	00120213          	addi	tp,tp,1 # 1 <tohost-0x7fffffff>
    800013c0:	00200293          	li	t0,2
    800013c4:	fe5216e3          	bne	tp,t0,800013b0 <test_29+0x8>
    800013c8:	00000393          	li	t2,0
    800013cc:	14771063          	bne	a4,t2,8000150c <fail>

00000000800013d0 <test_30>:
    800013d0:	01e00193          	li	gp,30
    800013d4:	00000213          	li	tp,0
    800013d8:	00d00113          	li	sp,13
    800013dc:	00800093          	li	ra,8
    800013e0:	00000013          	nop
    800013e4:	0020b733          	sltu	a4,ra,sp
    800013e8:	00120213          	addi	tp,tp,1 # 1 <tohost-0x7fffffff>
    800013ec:	00200293          	li	t0,2
    800013f0:	fe5214e3          	bne	tp,t0,800013d8 <test_30+0x8>
    800013f4:	00100393          	li	t2,1
    800013f8:	10771a63          	bne	a4,t2,8000150c <fail>

00000000800013fc <test_31>:
    800013fc:	01f00193          	li	gp,31
    80001400:	00000213          	li	tp,0
    80001404:	00d00113          	li	sp,13
    80001408:	01200093          	li	ra,18
    8000140c:	00000013          	nop
    80001410:	00000013          	nop
    80001414:	0020b733          	sltu	a4,ra,sp
    80001418:	00120213          	addi	tp,tp,1 # 1 <tohost-0x7fffffff>
    8000141c:	00200293          	li	t0,2
    80001420:	fe5212e3          	bne	tp,t0,80001404 <test_31+0x8>
    80001424:	00000393          	li	t2,0
    80001428:	0e771263          	bne	a4,t2,8000150c <fail>

000000008000142c <test_32>:
    8000142c:	02000193          	li	gp,32
    80001430:	00000213          	li	tp,0
    80001434:	00d00113          	li	sp,13
    80001438:	00000013          	nop
    8000143c:	00700093          	li	ra,7
    80001440:	0020b733          	sltu	a4,ra,sp
    80001444:	00120213          	addi	tp,tp,1 # 1 <tohost-0x7fffffff>
    80001448:	00200293          	li	t0,2
    8000144c:	fe5214e3          	bne	tp,t0,80001434 <test_32+0x8>
    80001450:	00100393          	li	t2,1
    80001454:	0a771c63          	bne	a4,t2,8000150c <fail>

0000000080001458 <test_33>:
    80001458:	02100193          	li	gp,33
    8000145c:	00000213          	li	tp,0
    80001460:	00d00113          	li	sp,13
    80001464:	00000013          	nop
    80001468:	01300093          	li	ra,19
    8000146c:	00000013          	nop
    80001470:	0020b733          	sltu	a4,ra,sp
    80001474:	00120213          	addi	tp,tp,1 # 1 <tohost-0x7fffffff>
    80001478:	00200293          	li	t0,2
    8000147c:	fe5212e3          	bne	tp,t0,80001460 <test_33+0x8>
    80001480:	00000393          	li	t2,0
    80001484:	08771463          	bne	a4,t2,8000150c <fail>

0000000080001488 <test_34>:
    80001488:	02200193          	li	gp,34
    8000148c:	00000213          	li	tp,0
    80001490:	00d00113          	li	sp,13
    80001494:	00000013          	nop
    80001498:	00000013          	nop
    8000149c:	00600093          	li	ra,6
    800014a0:	0020b733          	sltu	a4,ra,sp
    800014a4:	00120213          	addi	tp,tp,1 # 1 <tohost-0x7fffffff>
    800014a8:	00200293          	li	t0,2
    800014ac:	fe5212e3          	bne	tp,t0,80001490 <test_34+0x8>
    800014b0:	00100393          	li	t2,1
    800014b4:	04771c63          	bne	a4,t2,8000150c <fail>

00000000800014b8 <test_35>:
    800014b8:	02300193          	li	gp,35
    800014bc:	fff00093          	li	ra,-1
    800014c0:	00103133          	snez	sp,ra
    800014c4:	00100393          	li	t2,1
    800014c8:	04711263          	bne	sp,t2,8000150c <fail>

00000000800014cc <test_36>:
    800014cc:	02400193          	li	gp,36
    800014d0:	fff00093          	li	ra,-1
    800014d4:	0000b133          	sltu	sp,ra,zero
    800014d8:	00000393          	li	t2,0
    800014dc:	02711863          	bne	sp,t2,8000150c <fail>

00000000800014e0 <test_37>:
    800014e0:	02500193          	li	gp,37
    800014e4:	000030b3          	snez	ra,zero
    800014e8:	00000393          	li	t2,0
    800014ec:	02709063          	bne	ra,t2,8000150c <fail>

00000000800014f0 <test_38>:
    800014f0:	02600193          	li	gp,38
    800014f4:	01000093          	li	ra,16
    800014f8:	01e00113          	li	sp,30
    800014fc:	0020b033          	sltu	zero,ra,sp
    80001500:	00000393          	li	t2,0
    80001504:	00701463          	bne	zero,t2,8000150c <fail>
    80001508:	02301a63          	bne	zero,gp,8000153c <pass>

000000008000150c <fail>:
    8000150c:	0ff0000f          	fence
    80001510:	00001597          	auipc	a1,0x1
    80001514:	af058593          	addi	a1,a1,-1296 # 80002000 <hello>
    80001518:	00f00613          	li	a2,15
    8000151c:	04000893          	li	a7,64
    80001520:	00000073          	ecall
    80001524:	00018063          	beqz	gp,80001524 <fail+0x18>
    80001528:	00119193          	slli	gp,gp,0x1
    8000152c:	0011e193          	ori	gp,gp,1
    80001530:	05d00893          	li	a7,93
    80001534:	00018513          	mv	a0,gp
    80001538:	00000073          	ecall

000000008000153c <pass>:
    8000153c:	0ff0000f          	fence
    80001540:	00100513          	li	a0,1
    80001544:	00001597          	auipc	a1,0x1
    80001548:	abc58593          	addi	a1,a1,-1348 # 80002000 <hello>
    8000154c:	00f00613          	li	a2,15
    80001550:	04000893          	li	a7,64
    80001554:	00000073          	ecall
    80001558:	00100193          	li	gp,1
    8000155c:	05d00893          	li	a7,93
    80001560:	00000513          	li	a0,0
    80001564:	00000073          	ecall
    80001568:	c0001073          	unimp
