
rv64ui-p-addi:     file format elf64-littleriscv


Disassembly of section .text:

0000000080001000 <test_2>:
    80001000:	00200193          	li	gp,2
    80001004:	00000093          	li	ra,0
    80001008:	00008713          	mv	a4,ra
    8000100c:	00000393          	li	t2,0
    80001010:	28771263          	bne	a4,t2,80001294 <fail>

0000000080001014 <test_3>:
    80001014:	00300193          	li	gp,3
    80001018:	00100093          	li	ra,1
    8000101c:	00108713          	addi	a4,ra,1
    80001020:	00200393          	li	t2,2
    80001024:	26771863          	bne	a4,t2,80001294 <fail>

0000000080001028 <test_4>:
    80001028:	00400193          	li	gp,4
    8000102c:	00300093          	li	ra,3
    80001030:	00708713          	addi	a4,ra,7
    80001034:	00a00393          	li	t2,10
    80001038:	24771e63          	bne	a4,t2,80001294 <fail>

000000008000103c <test_5>:
    8000103c:	00500193          	li	gp,5
    80001040:	00000093          	li	ra,0
    80001044:	80008713          	addi	a4,ra,-2048
    80001048:	80000393          	li	t2,-2048
    8000104c:	24771463          	bne	a4,t2,80001294 <fail>

0000000080001050 <test_6>:
    80001050:	00600193          	li	gp,6
    80001054:	800000b7          	lui	ra,0x80000
    80001058:	00008713          	mv	a4,ra
    8000105c:	800003b7          	lui	t2,0x80000
    80001060:	22771a63          	bne	a4,t2,80001294 <fail>

0000000080001064 <test_7>:
    80001064:	00700193          	li	gp,7
    80001068:	800000b7          	lui	ra,0x80000
    8000106c:	80008713          	addi	a4,ra,-2048 # ffffffff7ffff800 <_end+0xfffffffeffffd7e0>
    80001070:	fff0039b          	addiw	t2,zero,-1
    80001074:	01f39393          	slli	t2,t2,0x1f
    80001078:	80038393          	addi	t2,t2,-2048 # ffffffff7ffff800 <_end+0xfffffffeffffd7e0>
    8000107c:	20771c63          	bne	a4,t2,80001294 <fail>

0000000080001080 <test_8>:
    80001080:	00800193          	li	gp,8
    80001084:	00000093          	li	ra,0
    80001088:	7ff08713          	addi	a4,ra,2047
    8000108c:	7ff00393          	li	t2,2047
    80001090:	20771263          	bne	a4,t2,80001294 <fail>

0000000080001094 <test_9>:
    80001094:	00900193          	li	gp,9
    80001098:	800000b7          	lui	ra,0x80000
    8000109c:	fff0809b          	addiw	ra,ra,-1 # 7fffffff <tohost-0x1>
    800010a0:	00008713          	mv	a4,ra
    800010a4:	800003b7          	lui	t2,0x80000
    800010a8:	fff3839b          	addiw	t2,t2,-1 # 7fffffff <tohost-0x1>
    800010ac:	1e771463          	bne	a4,t2,80001294 <fail>

00000000800010b0 <test_10>:
    800010b0:	00a00193          	li	gp,10
    800010b4:	800000b7          	lui	ra,0x80000
    800010b8:	fff0809b          	addiw	ra,ra,-1 # 7fffffff <tohost-0x1>
    800010bc:	7ff08713          	addi	a4,ra,2047
    800010c0:	0010039b          	addiw	t2,zero,1
    800010c4:	01f39393          	slli	t2,t2,0x1f
    800010c8:	7fe38393          	addi	t2,t2,2046
    800010cc:	1c771463          	bne	a4,t2,80001294 <fail>

00000000800010d0 <test_11>:
    800010d0:	00b00193          	li	gp,11
    800010d4:	800000b7          	lui	ra,0x80000
    800010d8:	7ff08713          	addi	a4,ra,2047 # ffffffff800007ff <_end+0xfffffffeffffe7df>
    800010dc:	800003b7          	lui	t2,0x80000
    800010e0:	7ff3839b          	addiw	t2,t2,2047 # ffffffff800007ff <_end+0xfffffffeffffe7df>
    800010e4:	1a771863          	bne	a4,t2,80001294 <fail>

00000000800010e8 <test_12>:
    800010e8:	00c00193          	li	gp,12
    800010ec:	800000b7          	lui	ra,0x80000
    800010f0:	fff0809b          	addiw	ra,ra,-1 # 7fffffff <tohost-0x1>
    800010f4:	80008713          	addi	a4,ra,-2048
    800010f8:	7ffff3b7          	lui	t2,0x7ffff
    800010fc:	7ff3839b          	addiw	t2,t2,2047 # 7ffff7ff <tohost-0x801>
    80001100:	18771a63          	bne	a4,t2,80001294 <fail>

0000000080001104 <test_13>:
    80001104:	00d00193          	li	gp,13
    80001108:	00000093          	li	ra,0
    8000110c:	fff08713          	addi	a4,ra,-1
    80001110:	fff00393          	li	t2,-1
    80001114:	18771063          	bne	a4,t2,80001294 <fail>

0000000080001118 <test_14>:
    80001118:	00e00193          	li	gp,14
    8000111c:	fff00093          	li	ra,-1
    80001120:	00108713          	addi	a4,ra,1
    80001124:	00000393          	li	t2,0
    80001128:	16771663          	bne	a4,t2,80001294 <fail>

000000008000112c <test_15>:
    8000112c:	00f00193          	li	gp,15
    80001130:	fff00093          	li	ra,-1
    80001134:	fff08713          	addi	a4,ra,-1
    80001138:	ffe00393          	li	t2,-2
    8000113c:	14771c63          	bne	a4,t2,80001294 <fail>

0000000080001140 <test_16>:
    80001140:	01000193          	li	gp,16
    80001144:	800000b7          	lui	ra,0x80000
    80001148:	fff0809b          	addiw	ra,ra,-1 # 7fffffff <tohost-0x1>
    8000114c:	00108713          	addi	a4,ra,1
    80001150:	0010039b          	addiw	t2,zero,1
    80001154:	01f39393          	slli	t2,t2,0x1f
    80001158:	12771e63          	bne	a4,t2,80001294 <fail>

000000008000115c <test_17>:
    8000115c:	01100193          	li	gp,17
    80001160:	00d00093          	li	ra,13
    80001164:	00b08093          	addi	ra,ra,11
    80001168:	01800393          	li	t2,24
    8000116c:	12709463          	bne	ra,t2,80001294 <fail>

0000000080001170 <test_18>:
    80001170:	01200193          	li	gp,18
    80001174:	00000213          	li	tp,0
    80001178:	00d00093          	li	ra,13
    8000117c:	00b08713          	addi	a4,ra,11
    80001180:	00070313          	mv	t1,a4
    80001184:	00120213          	addi	tp,tp,1 # 1 <tohost-0x7fffffff>
    80001188:	00200293          	li	t0,2
    8000118c:	fe5216e3          	bne	tp,t0,80001178 <test_18+0x8>
    80001190:	01800393          	li	t2,24
    80001194:	10731063          	bne	t1,t2,80001294 <fail>

0000000080001198 <test_19>:
    80001198:	01300193          	li	gp,19
    8000119c:	00000213          	li	tp,0
    800011a0:	00d00093          	li	ra,13
    800011a4:	00a08713          	addi	a4,ra,10
    800011a8:	00000013          	nop
    800011ac:	00070313          	mv	t1,a4
    800011b0:	00120213          	addi	tp,tp,1 # 1 <tohost-0x7fffffff>
    800011b4:	00200293          	li	t0,2
    800011b8:	fe5214e3          	bne	tp,t0,800011a0 <test_19+0x8>
    800011bc:	01700393          	li	t2,23
    800011c0:	0c731a63          	bne	t1,t2,80001294 <fail>

00000000800011c4 <test_20>:
    800011c4:	01400193          	li	gp,20
    800011c8:	00000213          	li	tp,0
    800011cc:	00d00093          	li	ra,13
    800011d0:	00908713          	addi	a4,ra,9
    800011d4:	00000013          	nop
    800011d8:	00000013          	nop
    800011dc:	00070313          	mv	t1,a4
    800011e0:	00120213          	addi	tp,tp,1 # 1 <tohost-0x7fffffff>
    800011e4:	00200293          	li	t0,2
    800011e8:	fe5212e3          	bne	tp,t0,800011cc <test_20+0x8>
    800011ec:	01600393          	li	t2,22
    800011f0:	0a731263          	bne	t1,t2,80001294 <fail>

00000000800011f4 <test_21>:
    800011f4:	01500193          	li	gp,21
    800011f8:	00000213          	li	tp,0
    800011fc:	00d00093          	li	ra,13
    80001200:	00b08713          	addi	a4,ra,11
    80001204:	00120213          	addi	tp,tp,1 # 1 <tohost-0x7fffffff>
    80001208:	00200293          	li	t0,2
    8000120c:	fe5218e3          	bne	tp,t0,800011fc <test_21+0x8>
    80001210:	01800393          	li	t2,24
    80001214:	08771063          	bne	a4,t2,80001294 <fail>

0000000080001218 <test_22>:
    80001218:	01600193          	li	gp,22
    8000121c:	00000213          	li	tp,0
    80001220:	00d00093          	li	ra,13
    80001224:	00000013          	nop
    80001228:	00a08713          	addi	a4,ra,10
    8000122c:	00120213          	addi	tp,tp,1 # 1 <tohost-0x7fffffff>
    80001230:	00200293          	li	t0,2
    80001234:	fe5216e3          	bne	tp,t0,80001220 <test_22+0x8>
    80001238:	01700393          	li	t2,23
    8000123c:	04771c63          	bne	a4,t2,80001294 <fail>

0000000080001240 <test_23>:
    80001240:	01700193          	li	gp,23
    80001244:	00000213          	li	tp,0
    80001248:	00d00093          	li	ra,13
    8000124c:	00000013          	nop
    80001250:	00000013          	nop
    80001254:	00908713          	addi	a4,ra,9
    80001258:	00120213          	addi	tp,tp,1 # 1 <tohost-0x7fffffff>
    8000125c:	00200293          	li	t0,2
    80001260:	fe5214e3          	bne	tp,t0,80001248 <test_23+0x8>
    80001264:	01600393          	li	t2,22
    80001268:	02771663          	bne	a4,t2,80001294 <fail>

000000008000126c <test_24>:
    8000126c:	01800193          	li	gp,24
    80001270:	02000093          	li	ra,32
    80001274:	02000393          	li	t2,32
    80001278:	00709e63          	bne	ra,t2,80001294 <fail>

000000008000127c <test_25>:
    8000127c:	01900193          	li	gp,25
    80001280:	02100093          	li	ra,33
    80001284:	03208013          	addi	zero,ra,50
    80001288:	00000393          	li	t2,0
    8000128c:	00701463          	bne	zero,t2,80001294 <fail>
    80001290:	02301a63          	bne	zero,gp,800012c4 <pass>

0000000080001294 <fail>:
    80001294:	0ff0000f          	fence
    80001298:	00001597          	auipc	a1,0x1
    8000129c:	d6858593          	addi	a1,a1,-664 # 80002000 <hello>
    800012a0:	00f00613          	li	a2,15
    800012a4:	04000893          	li	a7,64
    800012a8:	00000073          	ecall
    800012ac:	00018063          	beqz	gp,800012ac <fail+0x18>
    800012b0:	00119193          	slli	gp,gp,0x1
    800012b4:	0011e193          	ori	gp,gp,1
    800012b8:	05d00893          	li	a7,93
    800012bc:	00018513          	mv	a0,gp
    800012c0:	00000073          	ecall

00000000800012c4 <pass>:
    800012c4:	0ff0000f          	fence
    800012c8:	00100513          	li	a0,1
    800012cc:	00001597          	auipc	a1,0x1
    800012d0:	d3458593          	addi	a1,a1,-716 # 80002000 <hello>
    800012d4:	00f00613          	li	a2,15
    800012d8:	04000893          	li	a7,64
    800012dc:	00000073          	ecall
    800012e0:	00100193          	li	gp,1
    800012e4:	05d00893          	li	a7,93
    800012e8:	00000513          	li	a0,0
    800012ec:	00000073          	ecall
    800012f0:	c0001073          	unimp
