
rv64ui-p-srliw:     file format elf64-littleriscv


Disassembly of section .text:

0000000080001000 <test_2>:
    80001000:	00200193          	li	gp,2
    80001004:	800000b7          	lui	ra,0x80000
    80001008:	0000d71b          	srliw	a4,ra,0x0
    8000100c:	800003b7          	lui	t2,0x80000
    80001010:	32771063          	bne	a4,t2,80001330 <fail>

0000000080001014 <test_3>:
    80001014:	00300193          	li	gp,3
    80001018:	800000b7          	lui	ra,0x80000
    8000101c:	0010d71b          	srliw	a4,ra,0x1
    80001020:	400003b7          	lui	t2,0x40000
    80001024:	30771663          	bne	a4,t2,80001330 <fail>

0000000080001028 <test_4>:
    80001028:	00400193          	li	gp,4
    8000102c:	800000b7          	lui	ra,0x80000
    80001030:	0070d71b          	srliw	a4,ra,0x7
    80001034:	010003b7          	lui	t2,0x1000
    80001038:	2e771c63          	bne	a4,t2,80001330 <fail>

000000008000103c <test_5>:
    8000103c:	00500193          	li	gp,5
    80001040:	800000b7          	lui	ra,0x80000
    80001044:	00e0d71b          	srliw	a4,ra,0xe
    80001048:	000203b7          	lui	t2,0x20
    8000104c:	2e771263          	bne	a4,t2,80001330 <fail>

0000000080001050 <test_6>:
    80001050:	00600193          	li	gp,6
    80001054:	800000b7          	lui	ra,0x80000
    80001058:	0010809b          	addiw	ra,ra,1 # ffffffff80000001 <_end+0xfffffffeffffdfe1>
    8000105c:	01f0d71b          	srliw	a4,ra,0x1f
    80001060:	00100393          	li	t2,1
    80001064:	2c771663          	bne	a4,t2,80001330 <fail>

0000000080001068 <test_7>:
    80001068:	00700193          	li	gp,7
    8000106c:	fff00093          	li	ra,-1
    80001070:	0000d71b          	srliw	a4,ra,0x0
    80001074:	fff00393          	li	t2,-1
    80001078:	2a771c63          	bne	a4,t2,80001330 <fail>

000000008000107c <test_8>:
    8000107c:	00800193          	li	gp,8
    80001080:	fff00093          	li	ra,-1
    80001084:	0010d71b          	srliw	a4,ra,0x1
    80001088:	800003b7          	lui	t2,0x80000
    8000108c:	fff3839b          	addiw	t2,t2,-1 # 7fffffff <tohost-0x1>
    80001090:	2a771063          	bne	a4,t2,80001330 <fail>

0000000080001094 <test_9>:
    80001094:	00900193          	li	gp,9
    80001098:	fff00093          	li	ra,-1
    8000109c:	0070d71b          	srliw	a4,ra,0x7
    800010a0:	020003b7          	lui	t2,0x2000
    800010a4:	fff3839b          	addiw	t2,t2,-1 # 1ffffff <tohost-0x7e000001>
    800010a8:	28771463          	bne	a4,t2,80001330 <fail>

00000000800010ac <test_10>:
    800010ac:	00a00193          	li	gp,10
    800010b0:	fff00093          	li	ra,-1
    800010b4:	00e0d71b          	srliw	a4,ra,0xe
    800010b8:	000403b7          	lui	t2,0x40
    800010bc:	fff3839b          	addiw	t2,t2,-1 # 3ffff <tohost-0x7ffc0001>
    800010c0:	26771863          	bne	a4,t2,80001330 <fail>

00000000800010c4 <test_11>:
    800010c4:	00b00193          	li	gp,11
    800010c8:	fff00093          	li	ra,-1
    800010cc:	01f0d71b          	srliw	a4,ra,0x1f
    800010d0:	00100393          	li	t2,1
    800010d4:	24771e63          	bne	a4,t2,80001330 <fail>

00000000800010d8 <test_12>:
    800010d8:	00c00193          	li	gp,12
    800010dc:	212120b7          	lui	ra,0x21212
    800010e0:	1210809b          	addiw	ra,ra,289 # 21212121 <tohost-0x5edededf>
    800010e4:	0000d71b          	srliw	a4,ra,0x0
    800010e8:	212123b7          	lui	t2,0x21212
    800010ec:	1213839b          	addiw	t2,t2,289 # 21212121 <tohost-0x5edededf>
    800010f0:	24771063          	bne	a4,t2,80001330 <fail>

00000000800010f4 <test_13>:
    800010f4:	00d00193          	li	gp,13
    800010f8:	212120b7          	lui	ra,0x21212
    800010fc:	1210809b          	addiw	ra,ra,289 # 21212121 <tohost-0x5edededf>
    80001100:	0010d71b          	srliw	a4,ra,0x1
    80001104:	109093b7          	lui	t2,0x10909
    80001108:	0903839b          	addiw	t2,t2,144 # 10909090 <tohost-0x6f6f6f70>
    8000110c:	22771263          	bne	a4,t2,80001330 <fail>

0000000080001110 <test_14>:
    80001110:	00e00193          	li	gp,14
    80001114:	212120b7          	lui	ra,0x21212
    80001118:	1210809b          	addiw	ra,ra,289 # 21212121 <tohost-0x5edededf>
    8000111c:	0070d71b          	srliw	a4,ra,0x7
    80001120:	004243b7          	lui	t2,0x424
    80001124:	2423839b          	addiw	t2,t2,578 # 424242 <tohost-0x7fbdbdbe>
    80001128:	20771463          	bne	a4,t2,80001330 <fail>

000000008000112c <test_15>:
    8000112c:	00f00193          	li	gp,15
    80001130:	212120b7          	lui	ra,0x21212
    80001134:	1210809b          	addiw	ra,ra,289 # 21212121 <tohost-0x5edededf>
    80001138:	00e0d71b          	srliw	a4,ra,0xe
    8000113c:	000083b7          	lui	t2,0x8
    80001140:	4843839b          	addiw	t2,t2,1156 # 8484 <tohost-0x7fff7b7c>
    80001144:	1e771663          	bne	a4,t2,80001330 <fail>

0000000080001148 <test_16>:
    80001148:	01000193          	li	gp,16
    8000114c:	212120b7          	lui	ra,0x21212
    80001150:	1210809b          	addiw	ra,ra,289 # 21212121 <tohost-0x5edededf>
    80001154:	01f0d71b          	srliw	a4,ra,0x1f
    80001158:	00000393          	li	t2,0
    8000115c:	1c771a63          	bne	a4,t2,80001330 <fail>

0000000080001160 <test_44>:
    80001160:	02c00193          	li	gp,44
    80001164:	fff120b7          	lui	ra,0xfff12
    80001168:	3450809b          	addiw	ra,ra,837 # fffffffffff12345 <_end+0xffffffff7ff10325>
    8000116c:	00c09093          	slli	ra,ra,0xc
    80001170:	67808093          	addi	ra,ra,1656
    80001174:	0000d71b          	srliw	a4,ra,0x0
    80001178:	123453b7          	lui	t2,0x12345
    8000117c:	6783839b          	addiw	t2,t2,1656 # 12345678 <tohost-0x6dcba988>
    80001180:	1a771863          	bne	a4,t2,80001330 <fail>

0000000080001184 <test_45>:
    80001184:	02d00193          	li	gp,45
    80001188:	fff120b7          	lui	ra,0xfff12
    8000118c:	3450809b          	addiw	ra,ra,837 # fffffffffff12345 <_end+0xffffffff7ff10325>
    80001190:	00c09093          	slli	ra,ra,0xc
    80001194:	67808093          	addi	ra,ra,1656
    80001198:	0040d71b          	srliw	a4,ra,0x4
    8000119c:	012343b7          	lui	t2,0x1234
    800011a0:	5673839b          	addiw	t2,t2,1383 # 1234567 <tohost-0x7edcba99>
    800011a4:	18771663          	bne	a4,t2,80001330 <fail>

00000000800011a8 <test_46>:
    800011a8:	02e00193          	li	gp,46
    800011ac:	000920b7          	lui	ra,0x92
    800011b0:	3450809b          	addiw	ra,ra,837 # 92345 <tohost-0x7ff6dcbb>
    800011b4:	00c09093          	slli	ra,ra,0xc
    800011b8:	67808093          	addi	ra,ra,1656
    800011bc:	0000d71b          	srliw	a4,ra,0x0
    800011c0:	923453b7          	lui	t2,0x92345
    800011c4:	6783839b          	addiw	t2,t2,1656 # ffffffff92345678 <_end+0xffffffff12343658>
    800011c8:	16771463          	bne	a4,t2,80001330 <fail>

00000000800011cc <test_47>:
    800011cc:	02f00193          	li	gp,47
    800011d0:	000920b7          	lui	ra,0x92
    800011d4:	3450809b          	addiw	ra,ra,837 # 92345 <tohost-0x7ff6dcbb>
    800011d8:	00c09093          	slli	ra,ra,0xc
    800011dc:	67808093          	addi	ra,ra,1656
    800011e0:	0040d71b          	srliw	a4,ra,0x4
    800011e4:	092343b7          	lui	t2,0x9234
    800011e8:	5673839b          	addiw	t2,t2,1383 # 9234567 <tohost-0x76dcba99>
    800011ec:	14771263          	bne	a4,t2,80001330 <fail>

00000000800011f0 <test_17>:
    800011f0:	01100193          	li	gp,17
    800011f4:	800000b7          	lui	ra,0x80000
    800011f8:	0070d09b          	srliw	ra,ra,0x7
    800011fc:	010003b7          	lui	t2,0x1000
    80001200:	12709863          	bne	ra,t2,80001330 <fail>

0000000080001204 <test_18>:
    80001204:	01200193          	li	gp,18
    80001208:	00000213          	li	tp,0
    8000120c:	800000b7          	lui	ra,0x80000
    80001210:	0070d71b          	srliw	a4,ra,0x7
    80001214:	00070313          	mv	t1,a4
    80001218:	00120213          	addi	tp,tp,1 # 1 <tohost-0x7fffffff>
    8000121c:	00200293          	li	t0,2
    80001220:	fe5216e3          	bne	tp,t0,8000120c <test_18+0x8>
    80001224:	010003b7          	lui	t2,0x1000
    80001228:	10731463          	bne	t1,t2,80001330 <fail>

000000008000122c <test_19>:
    8000122c:	01300193          	li	gp,19
    80001230:	00000213          	li	tp,0
    80001234:	800000b7          	lui	ra,0x80000
    80001238:	00e0d71b          	srliw	a4,ra,0xe
    8000123c:	00000013          	nop
    80001240:	00070313          	mv	t1,a4
    80001244:	00120213          	addi	tp,tp,1 # 1 <tohost-0x7fffffff>
    80001248:	00200293          	li	t0,2
    8000124c:	fe5214e3          	bne	tp,t0,80001234 <test_19+0x8>
    80001250:	000203b7          	lui	t2,0x20
    80001254:	0c731e63          	bne	t1,t2,80001330 <fail>

0000000080001258 <test_20>:
    80001258:	01400193          	li	gp,20
    8000125c:	00000213          	li	tp,0
    80001260:	800000b7          	lui	ra,0x80000
    80001264:	0010809b          	addiw	ra,ra,1 # ffffffff80000001 <_end+0xfffffffeffffdfe1>
    80001268:	01f0d71b          	srliw	a4,ra,0x1f
    8000126c:	00000013          	nop
    80001270:	00000013          	nop
    80001274:	00070313          	mv	t1,a4
    80001278:	00120213          	addi	tp,tp,1 # 1 <tohost-0x7fffffff>
    8000127c:	00200293          	li	t0,2
    80001280:	fe5210e3          	bne	tp,t0,80001260 <test_20+0x8>
    80001284:	00100393          	li	t2,1
    80001288:	0a731463          	bne	t1,t2,80001330 <fail>

000000008000128c <test_21>:
    8000128c:	01500193          	li	gp,21
    80001290:	00000213          	li	tp,0
    80001294:	800000b7          	lui	ra,0x80000
    80001298:	0070d71b          	srliw	a4,ra,0x7
    8000129c:	00120213          	addi	tp,tp,1 # 1 <tohost-0x7fffffff>
    800012a0:	00200293          	li	t0,2
    800012a4:	fe5218e3          	bne	tp,t0,80001294 <test_21+0x8>
    800012a8:	010003b7          	lui	t2,0x1000
    800012ac:	08771263          	bne	a4,t2,80001330 <fail>

00000000800012b0 <test_22>:
    800012b0:	01600193          	li	gp,22
    800012b4:	00000213          	li	tp,0
    800012b8:	800000b7          	lui	ra,0x80000
    800012bc:	00000013          	nop
    800012c0:	00e0d71b          	srliw	a4,ra,0xe
    800012c4:	00120213          	addi	tp,tp,1 # 1 <tohost-0x7fffffff>
    800012c8:	00200293          	li	t0,2
    800012cc:	fe5216e3          	bne	tp,t0,800012b8 <test_22+0x8>
    800012d0:	000203b7          	lui	t2,0x20
    800012d4:	04771e63          	bne	a4,t2,80001330 <fail>

00000000800012d8 <test_23>:
    800012d8:	01700193          	li	gp,23
    800012dc:	00000213          	li	tp,0
    800012e0:	800000b7          	lui	ra,0x80000
    800012e4:	0010809b          	addiw	ra,ra,1 # ffffffff80000001 <_end+0xfffffffeffffdfe1>
    800012e8:	00000013          	nop
    800012ec:	00000013          	nop
    800012f0:	01f0d71b          	srliw	a4,ra,0x1f
    800012f4:	00120213          	addi	tp,tp,1 # 1 <tohost-0x7fffffff>
    800012f8:	00200293          	li	t0,2
    800012fc:	fe5212e3          	bne	tp,t0,800012e0 <test_23+0x8>
    80001300:	00100393          	li	t2,1
    80001304:	02771663          	bne	a4,t2,80001330 <fail>

0000000080001308 <test_24>:
    80001308:	01800193          	li	gp,24
    8000130c:	01f0509b          	srliw	ra,zero,0x1f
    80001310:	00000393          	li	t2,0
    80001314:	00709e63          	bne	ra,t2,80001330 <fail>

0000000080001318 <test_25>:
    80001318:	01900193          	li	gp,25
    8000131c:	01f00093          	li	ra,31
    80001320:	01c0d01b          	srliw	zero,ra,0x1c
    80001324:	00000393          	li	t2,0
    80001328:	00701463          	bne	zero,t2,80001330 <fail>
    8000132c:	02301a63          	bne	zero,gp,80001360 <pass>

0000000080001330 <fail>:
    80001330:	0ff0000f          	fence
    80001334:	00001597          	auipc	a1,0x1
    80001338:	ccc58593          	addi	a1,a1,-820 # 80002000 <hello>
    8000133c:	00f00613          	li	a2,15
    80001340:	04000893          	li	a7,64
    80001344:	00000073          	ecall
    80001348:	00018063          	beqz	gp,80001348 <fail+0x18>
    8000134c:	00119193          	slli	gp,gp,0x1
    80001350:	0011e193          	ori	gp,gp,1
    80001354:	05d00893          	li	a7,93
    80001358:	00018513          	mv	a0,gp
    8000135c:	00000073          	ecall

0000000080001360 <pass>:
    80001360:	0ff0000f          	fence
    80001364:	00100513          	li	a0,1
    80001368:	00001597          	auipc	a1,0x1
    8000136c:	c9858593          	addi	a1,a1,-872 # 80002000 <hello>
    80001370:	00f00613          	li	a2,15
    80001374:	04000893          	li	a7,64
    80001378:	00000073          	ecall
    8000137c:	00100193          	li	gp,1
    80001380:	05d00893          	li	a7,93
    80001384:	00000513          	li	a0,0
    80001388:	00000073          	ecall
    8000138c:	c0001073          	unimp
