
rv64ui-p-add:     file format elf64-littleriscv


Disassembly of section .text:

0000000080001000 <test_2>:
    80001000:	00200193          	li	gp,2
    80001004:	00000093          	li	ra,0
    80001008:	00000113          	li	sp,0
    8000100c:	00208733          	add	a4,ra,sp
    80001010:	00000393          	li	t2,0
    80001014:	4e771063          	bne	a4,t2,800014f4 <fail>

0000000080001018 <test_3>:
    80001018:	00300193          	li	gp,3
    8000101c:	00100093          	li	ra,1
    80001020:	00100113          	li	sp,1
    80001024:	00208733          	add	a4,ra,sp
    80001028:	00200393          	li	t2,2
    8000102c:	4c771463          	bne	a4,t2,800014f4 <fail>

0000000080001030 <test_4>:
    80001030:	00400193          	li	gp,4
    80001034:	00300093          	li	ra,3
    80001038:	00700113          	li	sp,7
    8000103c:	00208733          	add	a4,ra,sp
    80001040:	00a00393          	li	t2,10
    80001044:	4a771863          	bne	a4,t2,800014f4 <fail>

0000000080001048 <test_5>:
    80001048:	00500193          	li	gp,5
    8000104c:	00000093          	li	ra,0
    80001050:	ffff8137          	lui	sp,0xffff8
    80001054:	00208733          	add	a4,ra,sp
    80001058:	ffff83b7          	lui	t2,0xffff8
    8000105c:	48771c63          	bne	a4,t2,800014f4 <fail>

0000000080001060 <test_6>:
    80001060:	00600193          	li	gp,6
    80001064:	800000b7          	lui	ra,0x80000
    80001068:	00000113          	li	sp,0
    8000106c:	00208733          	add	a4,ra,sp
    80001070:	800003b7          	lui	t2,0x80000
    80001074:	48771063          	bne	a4,t2,800014f4 <fail>

0000000080001078 <test_7>:
    80001078:	00700193          	li	gp,7
    8000107c:	800000b7          	lui	ra,0x80000
    80001080:	ffff8137          	lui	sp,0xffff8
    80001084:	00208733          	add	a4,ra,sp
    80001088:	ffff03b7          	lui	t2,0xffff0
    8000108c:	fff3839b          	addiw	t2,t2,-1 # fffffffffffeffff <_end+0xffffffff7ffedfdf>
    80001090:	00f39393          	slli	t2,t2,0xf
    80001094:	46771063          	bne	a4,t2,800014f4 <fail>

0000000080001098 <test_8>:
    80001098:	00800193          	li	gp,8
    8000109c:	00000093          	li	ra,0
    800010a0:	00008137          	lui	sp,0x8
    800010a4:	fff1011b          	addiw	sp,sp,-1 # 7fff <tohost-0x7fff8001>
    800010a8:	00208733          	add	a4,ra,sp
    800010ac:	000083b7          	lui	t2,0x8
    800010b0:	fff3839b          	addiw	t2,t2,-1 # 7fff <tohost-0x7fff8001>
    800010b4:	44771063          	bne	a4,t2,800014f4 <fail>

00000000800010b8 <test_9>:
    800010b8:	00900193          	li	gp,9
    800010bc:	800000b7          	lui	ra,0x80000
    800010c0:	fff0809b          	addiw	ra,ra,-1 # 7fffffff <tohost-0x1>
    800010c4:	00000113          	li	sp,0
    800010c8:	00208733          	add	a4,ra,sp
    800010cc:	800003b7          	lui	t2,0x80000
    800010d0:	fff3839b          	addiw	t2,t2,-1 # 7fffffff <tohost-0x1>
    800010d4:	42771063          	bne	a4,t2,800014f4 <fail>

00000000800010d8 <test_10>:
    800010d8:	00a00193          	li	gp,10
    800010dc:	800000b7          	lui	ra,0x80000
    800010e0:	fff0809b          	addiw	ra,ra,-1 # 7fffffff <tohost-0x1>
    800010e4:	00008137          	lui	sp,0x8
    800010e8:	fff1011b          	addiw	sp,sp,-1 # 7fff <tohost-0x7fff8001>
    800010ec:	00208733          	add	a4,ra,sp
    800010f0:	000103b7          	lui	t2,0x10
    800010f4:	0013839b          	addiw	t2,t2,1 # 10001 <tohost-0x7ffeffff>
    800010f8:	00f39393          	slli	t2,t2,0xf
    800010fc:	ffe38393          	addi	t2,t2,-2
    80001100:	3e771a63          	bne	a4,t2,800014f4 <fail>

0000000080001104 <test_11>:
    80001104:	00b00193          	li	gp,11
    80001108:	800000b7          	lui	ra,0x80000
    8000110c:	00008137          	lui	sp,0x8
    80001110:	fff1011b          	addiw	sp,sp,-1 # 7fff <tohost-0x7fff8001>
    80001114:	00208733          	add	a4,ra,sp
    80001118:	800083b7          	lui	t2,0x80008
    8000111c:	fff3839b          	addiw	t2,t2,-1 # ffffffff80007fff <_end+0xffffffff00005fdf>
    80001120:	3c771a63          	bne	a4,t2,800014f4 <fail>

0000000080001124 <test_12>:
    80001124:	00c00193          	li	gp,12
    80001128:	800000b7          	lui	ra,0x80000
    8000112c:	fff0809b          	addiw	ra,ra,-1 # 7fffffff <tohost-0x1>
    80001130:	ffff8137          	lui	sp,0xffff8
    80001134:	00208733          	add	a4,ra,sp
    80001138:	7fff83b7          	lui	t2,0x7fff8
    8000113c:	fff3839b          	addiw	t2,t2,-1 # 7fff7fff <tohost-0x8001>
    80001140:	3a771a63          	bne	a4,t2,800014f4 <fail>

0000000080001144 <test_13>:
    80001144:	00d00193          	li	gp,13
    80001148:	00000093          	li	ra,0
    8000114c:	fff00113          	li	sp,-1
    80001150:	00208733          	add	a4,ra,sp
    80001154:	fff00393          	li	t2,-1
    80001158:	38771e63          	bne	a4,t2,800014f4 <fail>

000000008000115c <test_14>:
    8000115c:	00e00193          	li	gp,14
    80001160:	fff00093          	li	ra,-1
    80001164:	00100113          	li	sp,1
    80001168:	00208733          	add	a4,ra,sp
    8000116c:	00000393          	li	t2,0
    80001170:	38771263          	bne	a4,t2,800014f4 <fail>

0000000080001174 <test_15>:
    80001174:	00f00193          	li	gp,15
    80001178:	fff00093          	li	ra,-1
    8000117c:	fff00113          	li	sp,-1
    80001180:	00208733          	add	a4,ra,sp
    80001184:	ffe00393          	li	t2,-2
    80001188:	36771663          	bne	a4,t2,800014f4 <fail>

000000008000118c <test_16>:
    8000118c:	01000193          	li	gp,16
    80001190:	00100093          	li	ra,1
    80001194:	80000137          	lui	sp,0x80000
    80001198:	fff1011b          	addiw	sp,sp,-1 # 7fffffff <tohost-0x1>
    8000119c:	00208733          	add	a4,ra,sp
    800011a0:	0010039b          	addiw	t2,zero,1
    800011a4:	01f39393          	slli	t2,t2,0x1f
    800011a8:	34771663          	bne	a4,t2,800014f4 <fail>

00000000800011ac <test_17>:
    800011ac:	01100193          	li	gp,17
    800011b0:	00d00093          	li	ra,13
    800011b4:	00b00113          	li	sp,11
    800011b8:	002080b3          	add	ra,ra,sp
    800011bc:	01800393          	li	t2,24
    800011c0:	32709a63          	bne	ra,t2,800014f4 <fail>

00000000800011c4 <test_18>:
    800011c4:	01200193          	li	gp,18
    800011c8:	00e00093          	li	ra,14
    800011cc:	00b00113          	li	sp,11
    800011d0:	00208133          	add	sp,ra,sp
    800011d4:	01900393          	li	t2,25
    800011d8:	30711e63          	bne	sp,t2,800014f4 <fail>

00000000800011dc <test_19>:
    800011dc:	01300193          	li	gp,19
    800011e0:	00d00093          	li	ra,13
    800011e4:	001080b3          	add	ra,ra,ra
    800011e8:	01a00393          	li	t2,26
    800011ec:	30709463          	bne	ra,t2,800014f4 <fail>

00000000800011f0 <test_20>:
    800011f0:	01400193          	li	gp,20
    800011f4:	00000213          	li	tp,0
    800011f8:	00d00093          	li	ra,13
    800011fc:	00b00113          	li	sp,11
    80001200:	00208733          	add	a4,ra,sp
    80001204:	00070313          	mv	t1,a4
    80001208:	00120213          	addi	tp,tp,1 # 1 <tohost-0x7fffffff>
    8000120c:	00200293          	li	t0,2
    80001210:	fe5214e3          	bne	tp,t0,800011f8 <test_20+0x8>
    80001214:	01800393          	li	t2,24
    80001218:	2c731e63          	bne	t1,t2,800014f4 <fail>

000000008000121c <test_21>:
    8000121c:	01500193          	li	gp,21
    80001220:	00000213          	li	tp,0
    80001224:	00e00093          	li	ra,14
    80001228:	00b00113          	li	sp,11
    8000122c:	00208733          	add	a4,ra,sp
    80001230:	00000013          	nop
    80001234:	00070313          	mv	t1,a4
    80001238:	00120213          	addi	tp,tp,1 # 1 <tohost-0x7fffffff>
    8000123c:	00200293          	li	t0,2
    80001240:	fe5212e3          	bne	tp,t0,80001224 <test_21+0x8>
    80001244:	01900393          	li	t2,25
    80001248:	2a731663          	bne	t1,t2,800014f4 <fail>

000000008000124c <test_22>:
    8000124c:	01600193          	li	gp,22
    80001250:	00000213          	li	tp,0
    80001254:	00f00093          	li	ra,15
    80001258:	00b00113          	li	sp,11
    8000125c:	00208733          	add	a4,ra,sp
    80001260:	00000013          	nop
    80001264:	00000013          	nop
    80001268:	00070313          	mv	t1,a4
    8000126c:	00120213          	addi	tp,tp,1 # 1 <tohost-0x7fffffff>
    80001270:	00200293          	li	t0,2
    80001274:	fe5210e3          	bne	tp,t0,80001254 <test_22+0x8>
    80001278:	01a00393          	li	t2,26
    8000127c:	26731c63          	bne	t1,t2,800014f4 <fail>

0000000080001280 <test_23>:
    80001280:	01700193          	li	gp,23
    80001284:	00000213          	li	tp,0
    80001288:	00d00093          	li	ra,13
    8000128c:	00b00113          	li	sp,11
    80001290:	00208733          	add	a4,ra,sp
    80001294:	00120213          	addi	tp,tp,1 # 1 <tohost-0x7fffffff>
    80001298:	00200293          	li	t0,2
    8000129c:	fe5216e3          	bne	tp,t0,80001288 <test_23+0x8>
    800012a0:	01800393          	li	t2,24
    800012a4:	24771863          	bne	a4,t2,800014f4 <fail>

00000000800012a8 <test_24>:
    800012a8:	01800193          	li	gp,24
    800012ac:	00000213          	li	tp,0
    800012b0:	00e00093          	li	ra,14
    800012b4:	00b00113          	li	sp,11
    800012b8:	00000013          	nop
    800012bc:	00208733          	add	a4,ra,sp
    800012c0:	00120213          	addi	tp,tp,1 # 1 <tohost-0x7fffffff>
    800012c4:	00200293          	li	t0,2
    800012c8:	fe5214e3          	bne	tp,t0,800012b0 <test_24+0x8>
    800012cc:	01900393          	li	t2,25
    800012d0:	22771263          	bne	a4,t2,800014f4 <fail>

00000000800012d4 <test_25>:
    800012d4:	01900193          	li	gp,25
    800012d8:	00000213          	li	tp,0
    800012dc:	00f00093          	li	ra,15
    800012e0:	00b00113          	li	sp,11
    800012e4:	00000013          	nop
    800012e8:	00000013          	nop
    800012ec:	00208733          	add	a4,ra,sp
    800012f0:	00120213          	addi	tp,tp,1 # 1 <tohost-0x7fffffff>
    800012f4:	00200293          	li	t0,2
    800012f8:	fe5212e3          	bne	tp,t0,800012dc <test_25+0x8>
    800012fc:	01a00393          	li	t2,26
    80001300:	1e771a63          	bne	a4,t2,800014f4 <fail>

0000000080001304 <test_26>:
    80001304:	01a00193          	li	gp,26
    80001308:	00000213          	li	tp,0
    8000130c:	00d00093          	li	ra,13
    80001310:	00000013          	nop
    80001314:	00b00113          	li	sp,11
    80001318:	00208733          	add	a4,ra,sp
    8000131c:	00120213          	addi	tp,tp,1 # 1 <tohost-0x7fffffff>
    80001320:	00200293          	li	t0,2
    80001324:	fe5214e3          	bne	tp,t0,8000130c <test_26+0x8>
    80001328:	01800393          	li	t2,24
    8000132c:	1c771463          	bne	a4,t2,800014f4 <fail>

0000000080001330 <test_27>:
    80001330:	01b00193          	li	gp,27
    80001334:	00000213          	li	tp,0
    80001338:	00e00093          	li	ra,14
    8000133c:	00000013          	nop
    80001340:	00b00113          	li	sp,11
    80001344:	00000013          	nop
    80001348:	00208733          	add	a4,ra,sp
    8000134c:	00120213          	addi	tp,tp,1 # 1 <tohost-0x7fffffff>
    80001350:	00200293          	li	t0,2
    80001354:	fe5212e3          	bne	tp,t0,80001338 <test_27+0x8>
    80001358:	01900393          	li	t2,25
    8000135c:	18771c63          	bne	a4,t2,800014f4 <fail>

0000000080001360 <test_28>:
    80001360:	01c00193          	li	gp,28
    80001364:	00000213          	li	tp,0
    80001368:	00f00093          	li	ra,15
    8000136c:	00000013          	nop
    80001370:	00000013          	nop
    80001374:	00b00113          	li	sp,11
    80001378:	00208733          	add	a4,ra,sp
    8000137c:	00120213          	addi	tp,tp,1 # 1 <tohost-0x7fffffff>
    80001380:	00200293          	li	t0,2
    80001384:	fe5212e3          	bne	tp,t0,80001368 <test_28+0x8>
    80001388:	01a00393          	li	t2,26
    8000138c:	16771463          	bne	a4,t2,800014f4 <fail>

0000000080001390 <test_29>:
    80001390:	01d00193          	li	gp,29
    80001394:	00000213          	li	tp,0
    80001398:	00b00113          	li	sp,11
    8000139c:	00d00093          	li	ra,13
    800013a0:	00208733          	add	a4,ra,sp
    800013a4:	00120213          	addi	tp,tp,1 # 1 <tohost-0x7fffffff>
    800013a8:	00200293          	li	t0,2
    800013ac:	fe5216e3          	bne	tp,t0,80001398 <test_29+0x8>
    800013b0:	01800393          	li	t2,24
    800013b4:	14771063          	bne	a4,t2,800014f4 <fail>

00000000800013b8 <test_30>:
    800013b8:	01e00193          	li	gp,30
    800013bc:	00000213          	li	tp,0
    800013c0:	00b00113          	li	sp,11
    800013c4:	00e00093          	li	ra,14
    800013c8:	00000013          	nop
    800013cc:	00208733          	add	a4,ra,sp
    800013d0:	00120213          	addi	tp,tp,1 # 1 <tohost-0x7fffffff>
    800013d4:	00200293          	li	t0,2
    800013d8:	fe5214e3          	bne	tp,t0,800013c0 <test_30+0x8>
    800013dc:	01900393          	li	t2,25
    800013e0:	10771a63          	bne	a4,t2,800014f4 <fail>

00000000800013e4 <test_31>:
    800013e4:	01f00193          	li	gp,31
    800013e8:	00000213          	li	tp,0
    800013ec:	00b00113          	li	sp,11
    800013f0:	00f00093          	li	ra,15
    800013f4:	00000013          	nop
    800013f8:	00000013          	nop
    800013fc:	00208733          	add	a4,ra,sp
    80001400:	00120213          	addi	tp,tp,1 # 1 <tohost-0x7fffffff>
    80001404:	00200293          	li	t0,2
    80001408:	fe5212e3          	bne	tp,t0,800013ec <test_31+0x8>
    8000140c:	01a00393          	li	t2,26
    80001410:	0e771263          	bne	a4,t2,800014f4 <fail>

0000000080001414 <test_32>:
    80001414:	02000193          	li	gp,32
    80001418:	00000213          	li	tp,0
    8000141c:	00b00113          	li	sp,11
    80001420:	00000013          	nop
    80001424:	00d00093          	li	ra,13
    80001428:	00208733          	add	a4,ra,sp
    8000142c:	00120213          	addi	tp,tp,1 # 1 <tohost-0x7fffffff>
    80001430:	00200293          	li	t0,2
    80001434:	fe5214e3          	bne	tp,t0,8000141c <test_32+0x8>
    80001438:	01800393          	li	t2,24
    8000143c:	0a771c63          	bne	a4,t2,800014f4 <fail>

0000000080001440 <test_33>:
    80001440:	02100193          	li	gp,33
    80001444:	00000213          	li	tp,0
    80001448:	00b00113          	li	sp,11
    8000144c:	00000013          	nop
    80001450:	00e00093          	li	ra,14
    80001454:	00000013          	nop
    80001458:	00208733          	add	a4,ra,sp
    8000145c:	00120213          	addi	tp,tp,1 # 1 <tohost-0x7fffffff>
    80001460:	00200293          	li	t0,2
    80001464:	fe5212e3          	bne	tp,t0,80001448 <test_33+0x8>
    80001468:	01900393          	li	t2,25
    8000146c:	08771463          	bne	a4,t2,800014f4 <fail>

0000000080001470 <test_34>:
    80001470:	02200193          	li	gp,34
    80001474:	00000213          	li	tp,0
    80001478:	00b00113          	li	sp,11
    8000147c:	00000013          	nop
    80001480:	00000013          	nop
    80001484:	00f00093          	li	ra,15
    80001488:	00208733          	add	a4,ra,sp
    8000148c:	00120213          	addi	tp,tp,1 # 1 <tohost-0x7fffffff>
    80001490:	00200293          	li	t0,2
    80001494:	fe5212e3          	bne	tp,t0,80001478 <test_34+0x8>
    80001498:	01a00393          	li	t2,26
    8000149c:	04771c63          	bne	a4,t2,800014f4 <fail>

00000000800014a0 <test_35>:
    800014a0:	02300193          	li	gp,35
    800014a4:	00f00093          	li	ra,15
    800014a8:	00100133          	add	sp,zero,ra
    800014ac:	00f00393          	li	t2,15
    800014b0:	04711263          	bne	sp,t2,800014f4 <fail>

00000000800014b4 <test_36>:
    800014b4:	02400193          	li	gp,36
    800014b8:	02000093          	li	ra,32
    800014bc:	00008133          	add	sp,ra,zero
    800014c0:	02000393          	li	t2,32
    800014c4:	02711863          	bne	sp,t2,800014f4 <fail>

00000000800014c8 <test_37>:
    800014c8:	02500193          	li	gp,37
    800014cc:	000000b3          	add	ra,zero,zero
    800014d0:	00000393          	li	t2,0
    800014d4:	02709063          	bne	ra,t2,800014f4 <fail>

00000000800014d8 <test_38>:
    800014d8:	02600193          	li	gp,38
    800014dc:	01000093          	li	ra,16
    800014e0:	01e00113          	li	sp,30
    800014e4:	00208033          	add	zero,ra,sp
    800014e8:	00000393          	li	t2,0
    800014ec:	00701463          	bne	zero,t2,800014f4 <fail>
    800014f0:	02301a63          	bne	zero,gp,80001524 <pass>

00000000800014f4 <fail>:
    800014f4:	0ff0000f          	fence
    800014f8:	00001597          	auipc	a1,0x1
    800014fc:	b0858593          	addi	a1,a1,-1272 # 80002000 <hello>
    80001500:	00f00613          	li	a2,15
    80001504:	04000893          	li	a7,64
    80001508:	00000073          	ecall
    8000150c:	00018063          	beqz	gp,8000150c <fail+0x18>
    80001510:	00119193          	slli	gp,gp,0x1
    80001514:	0011e193          	ori	gp,gp,1
    80001518:	05d00893          	li	a7,93
    8000151c:	00018513          	mv	a0,gp
    80001520:	00000073          	ecall

0000000080001524 <pass>:
    80001524:	0ff0000f          	fence
    80001528:	00100513          	li	a0,1
    8000152c:	00001597          	auipc	a1,0x1
    80001530:	ad458593          	addi	a1,a1,-1324 # 80002000 <hello>
    80001534:	00f00613          	li	a2,15
    80001538:	04000893          	li	a7,64
    8000153c:	00000073          	ecall
    80001540:	00100193          	li	gp,1
    80001544:	05d00893          	li	a7,93
    80001548:	00000513          	li	a0,0
    8000154c:	00000073          	ecall
    80001550:	c0001073          	unimp
