
rv64um-p-divuw:     file format elf64-littleriscv


Disassembly of section .text:

0000000080001000 <test_2>:
    80001000:	00200193          	li	gp,2
    80001004:	01400093          	li	ra,20
    80001008:	00600113          	li	sp,6
    8000100c:	0220d73b          	divuw	a4,ra,sp
    80001010:	00300393          	li	t2,3
    80001014:	0c771a63          	bne	a4,t2,800010e8 <fail>

0000000080001018 <test_3>:
    80001018:	00300193          	li	gp,3
    8000101c:	0010009b          	addiw	ra,zero,1
    80001020:	02009093          	slli	ra,ra,0x20
    80001024:	fec08093          	addi	ra,ra,-20
    80001028:	00600113          	li	sp,6
    8000102c:	0220d73b          	divuw	a4,ra,sp
    80001030:	2aaab3b7          	lui	t2,0x2aaab
    80001034:	aa73839b          	addiw	t2,t2,-1369 # 2aaaaaa7 <tohost-0x55555559>
    80001038:	0a771863          	bne	a4,t2,800010e8 <fail>

000000008000103c <test_4>:
    8000103c:	00400193          	li	gp,4
    80001040:	01400093          	li	ra,20
    80001044:	ffa00113          	li	sp,-6
    80001048:	0220d73b          	divuw	a4,ra,sp
    8000104c:	00000393          	li	t2,0
    80001050:	08771c63          	bne	a4,t2,800010e8 <fail>

0000000080001054 <test_5>:
    80001054:	00500193          	li	gp,5
    80001058:	fec00093          	li	ra,-20
    8000105c:	ffa00113          	li	sp,-6
    80001060:	0220d73b          	divuw	a4,ra,sp
    80001064:	00000393          	li	t2,0
    80001068:	08771063          	bne	a4,t2,800010e8 <fail>

000000008000106c <test_6>:
    8000106c:	00600193          	li	gp,6
    80001070:	800000b7          	lui	ra,0x80000
    80001074:	00100113          	li	sp,1
    80001078:	0220d73b          	divuw	a4,ra,sp
    8000107c:	800003b7          	lui	t2,0x80000
    80001080:	06771463          	bne	a4,t2,800010e8 <fail>

0000000080001084 <test_7>:
    80001084:	00700193          	li	gp,7
    80001088:	800000b7          	lui	ra,0x80000
    8000108c:	fff00113          	li	sp,-1
    80001090:	0220d73b          	divuw	a4,ra,sp
    80001094:	00000393          	li	t2,0
    80001098:	04771863          	bne	a4,t2,800010e8 <fail>

000000008000109c <test_8>:
    8000109c:	00800193          	li	gp,8
    800010a0:	800000b7          	lui	ra,0x80000
    800010a4:	00000113          	li	sp,0
    800010a8:	0220d73b          	divuw	a4,ra,sp
    800010ac:	fff00393          	li	t2,-1
    800010b0:	02771c63          	bne	a4,t2,800010e8 <fail>

00000000800010b4 <test_9>:
    800010b4:	00900193          	li	gp,9
    800010b8:	00100093          	li	ra,1
    800010bc:	00000113          	li	sp,0
    800010c0:	0220d73b          	divuw	a4,ra,sp
    800010c4:	fff00393          	li	t2,-1
    800010c8:	02771063          	bne	a4,t2,800010e8 <fail>

00000000800010cc <test_10>:
    800010cc:	00a00193          	li	gp,10
    800010d0:	00000093          	li	ra,0
    800010d4:	00000113          	li	sp,0
    800010d8:	0220d73b          	divuw	a4,ra,sp
    800010dc:	fff00393          	li	t2,-1
    800010e0:	00771463          	bne	a4,t2,800010e8 <fail>
    800010e4:	02301a63          	bne	zero,gp,80001118 <pass>

00000000800010e8 <fail>:
    800010e8:	0ff0000f          	fence
    800010ec:	00001597          	auipc	a1,0x1
    800010f0:	f1458593          	addi	a1,a1,-236 # 80002000 <hello>
    800010f4:	00f00613          	li	a2,15
    800010f8:	04000893          	li	a7,64
    800010fc:	00000073          	ecall
    80001100:	00018063          	beqz	gp,80001100 <fail+0x18>
    80001104:	00119193          	slli	gp,gp,0x1
    80001108:	0011e193          	ori	gp,gp,1
    8000110c:	05d00893          	li	a7,93
    80001110:	00018513          	mv	a0,gp
    80001114:	00000073          	ecall

0000000080001118 <pass>:
    80001118:	0ff0000f          	fence
    8000111c:	00100513          	li	a0,1
    80001120:	00001597          	auipc	a1,0x1
    80001124:	ee058593          	addi	a1,a1,-288 # 80002000 <hello>
    80001128:	00f00613          	li	a2,15
    8000112c:	04000893          	li	a7,64
    80001130:	00000073          	ecall
    80001134:	00100193          	li	gp,1
    80001138:	05d00893          	li	a7,93
    8000113c:	00000513          	li	a0,0
    80001140:	00000073          	ecall
    80001144:	c0001073          	unimp
