
rv64uf-p-fcvt:     file format elf64-littleriscv


Disassembly of section .text:

0000000080001000 <test_2>:
    80001000:	00200193          	li	gp,2
    80001004:	00001517          	auipc	a0,0x1
    80001008:	ffc50513          	addi	a0,a0,-4 # 80002000 <test_2_data>
    8000100c:	00052683          	lw	a3,0(a0)
    80001010:	00200513          	li	a0,2
    80001014:	d0057053          	fcvt.s.w	ft0,a0
    80001018:	00101073          	fsflags	zero
    8000101c:	e0000553          	fmv.x.w	a0,ft0
    80001020:	10d51263          	bne	a0,a3,80001124 <fail>

0000000080001024 <test_3>:
    80001024:	00300193          	li	gp,3
    80001028:	00001517          	auipc	a0,0x1
    8000102c:	fdc50513          	addi	a0,a0,-36 # 80002004 <test_3_data>
    80001030:	00052683          	lw	a3,0(a0)
    80001034:	ffe00513          	li	a0,-2
    80001038:	d0057053          	fcvt.s.w	ft0,a0
    8000103c:	00101073          	fsflags	zero
    80001040:	e0000553          	fmv.x.w	a0,ft0
    80001044:	0ed51063          	bne	a0,a3,80001124 <fail>

0000000080001048 <test_4>:
    80001048:	00400193          	li	gp,4
    8000104c:	00001517          	auipc	a0,0x1
    80001050:	fbc50513          	addi	a0,a0,-68 # 80002008 <test_4_data>
    80001054:	00052683          	lw	a3,0(a0)
    80001058:	00200513          	li	a0,2
    8000105c:	d0157053          	fcvt.s.wu	ft0,a0
    80001060:	00101073          	fsflags	zero
    80001064:	e0000553          	fmv.x.w	a0,ft0
    80001068:	0ad51e63          	bne	a0,a3,80001124 <fail>

000000008000106c <test_5>:
    8000106c:	00500193          	li	gp,5
    80001070:	00001517          	auipc	a0,0x1
    80001074:	f9c50513          	addi	a0,a0,-100 # 8000200c <test_5_data>
    80001078:	00052683          	lw	a3,0(a0)
    8000107c:	ffe00513          	li	a0,-2
    80001080:	d0157053          	fcvt.s.wu	ft0,a0
    80001084:	00101073          	fsflags	zero
    80001088:	e0000553          	fmv.x.w	a0,ft0
    8000108c:	08d51c63          	bne	a0,a3,80001124 <fail>

0000000080001090 <test_6>:
    80001090:	00600193          	li	gp,6
    80001094:	00001517          	auipc	a0,0x1
    80001098:	f7c50513          	addi	a0,a0,-132 # 80002010 <test_6_data>
    8000109c:	00052683          	lw	a3,0(a0)
    800010a0:	00200513          	li	a0,2
    800010a4:	d0257053          	fcvt.s.l	ft0,a0
    800010a8:	00101073          	fsflags	zero
    800010ac:	e0000553          	fmv.x.w	a0,ft0
    800010b0:	06d51a63          	bne	a0,a3,80001124 <fail>

00000000800010b4 <test_7>:
    800010b4:	00700193          	li	gp,7
    800010b8:	00001517          	auipc	a0,0x1
    800010bc:	f5c50513          	addi	a0,a0,-164 # 80002014 <test_7_data>
    800010c0:	00052683          	lw	a3,0(a0)
    800010c4:	ffe00513          	li	a0,-2
    800010c8:	d0257053          	fcvt.s.l	ft0,a0
    800010cc:	00101073          	fsflags	zero
    800010d0:	e0000553          	fmv.x.w	a0,ft0
    800010d4:	04d51863          	bne	a0,a3,80001124 <fail>

00000000800010d8 <test_8>:
    800010d8:	00800193          	li	gp,8
    800010dc:	00001517          	auipc	a0,0x1
    800010e0:	f3c50513          	addi	a0,a0,-196 # 80002018 <test_8_data>
    800010e4:	00052683          	lw	a3,0(a0)
    800010e8:	00200513          	li	a0,2
    800010ec:	d0357053          	fcvt.s.lu	ft0,a0
    800010f0:	00101073          	fsflags	zero
    800010f4:	e0000553          	fmv.x.w	a0,ft0
    800010f8:	02d51663          	bne	a0,a3,80001124 <fail>

00000000800010fc <test_9>:
    800010fc:	00900193          	li	gp,9
    80001100:	00001517          	auipc	a0,0x1
    80001104:	f1c50513          	addi	a0,a0,-228 # 8000201c <test_9_data>
    80001108:	00052683          	lw	a3,0(a0)
    8000110c:	ffe00513          	li	a0,-2
    80001110:	d0357053          	fcvt.s.lu	ft0,a0
    80001114:	00101073          	fsflags	zero
    80001118:	e0000553          	fmv.x.w	a0,ft0
    8000111c:	00d51463          	bne	a0,a3,80001124 <fail>
    80001120:	02301a63          	bne	zero,gp,80001154 <pass>

0000000080001124 <fail>:
    80001124:	0ff0000f          	fence
    80001128:	00001597          	auipc	a1,0x1
    8000112c:	ef858593          	addi	a1,a1,-264 # 80002020 <hello>
    80001130:	00f00613          	li	a2,15
    80001134:	04000893          	li	a7,64
    80001138:	00000073          	ecall
    8000113c:	00018063          	beqz	gp,8000113c <fail+0x18>
    80001140:	00119193          	slli	gp,gp,0x1
    80001144:	0011e193          	ori	gp,gp,1
    80001148:	05d00893          	li	a7,93
    8000114c:	00018513          	mv	a0,gp
    80001150:	00000073          	ecall

0000000080001154 <pass>:
    80001154:	0ff0000f          	fence
    80001158:	00100513          	li	a0,1
    8000115c:	00001597          	auipc	a1,0x1
    80001160:	ec458593          	addi	a1,a1,-316 # 80002020 <hello>
    80001164:	00f00613          	li	a2,15
    80001168:	04000893          	li	a7,64
    8000116c:	00000073          	ecall
    80001170:	00100193          	li	gp,1
    80001174:	05d00893          	li	a7,93
    80001178:	00000513          	li	a0,0
    8000117c:	00000073          	ecall
    80001180:	c0001073          	unimp
