
rv64ui-p-sllw:     file format elf64-littleriscv


Disassembly of section .text:

0000000080001000 <test_2>:
    80001000:	00200193          	li	gp,2
    80001004:	00100093          	li	ra,1
    80001008:	00000113          	li	sp,0
    8000100c:	0020973b          	sllw	a4,ra,sp
    80001010:	00100393          	li	t2,1
    80001014:	5e771c63          	bne	a4,t2,8000160c <fail>

0000000080001018 <test_3>:
    80001018:	00300193          	li	gp,3
    8000101c:	00100093          	li	ra,1
    80001020:	00100113          	li	sp,1
    80001024:	0020973b          	sllw	a4,ra,sp
    80001028:	00200393          	li	t2,2
    8000102c:	5e771063          	bne	a4,t2,8000160c <fail>

0000000080001030 <test_4>:
    80001030:	00400193          	li	gp,4
    80001034:	00100093          	li	ra,1
    80001038:	00700113          	li	sp,7
    8000103c:	0020973b          	sllw	a4,ra,sp
    80001040:	08000393          	li	t2,128
    80001044:	5c771463          	bne	a4,t2,8000160c <fail>

0000000080001048 <test_5>:
    80001048:	00500193          	li	gp,5
    8000104c:	00100093          	li	ra,1
    80001050:	00e00113          	li	sp,14
    80001054:	0020973b          	sllw	a4,ra,sp
    80001058:	000043b7          	lui	t2,0x4
    8000105c:	5a771863          	bne	a4,t2,8000160c <fail>

0000000080001060 <test_6>:
    80001060:	00600193          	li	gp,6
    80001064:	00100093          	li	ra,1
    80001068:	01f00113          	li	sp,31
    8000106c:	0020973b          	sllw	a4,ra,sp
    80001070:	800003b7          	lui	t2,0x80000
    80001074:	58771c63          	bne	a4,t2,8000160c <fail>

0000000080001078 <test_7>:
    80001078:	00700193          	li	gp,7
    8000107c:	fff00093          	li	ra,-1
    80001080:	00000113          	li	sp,0
    80001084:	0020973b          	sllw	a4,ra,sp
    80001088:	fff00393          	li	t2,-1
    8000108c:	58771063          	bne	a4,t2,8000160c <fail>

0000000080001090 <test_8>:
    80001090:	00800193          	li	gp,8
    80001094:	fff00093          	li	ra,-1
    80001098:	00100113          	li	sp,1
    8000109c:	0020973b          	sllw	a4,ra,sp
    800010a0:	ffe00393          	li	t2,-2
    800010a4:	56771463          	bne	a4,t2,8000160c <fail>

00000000800010a8 <test_9>:
    800010a8:	00900193          	li	gp,9
    800010ac:	fff00093          	li	ra,-1
    800010b0:	00700113          	li	sp,7
    800010b4:	0020973b          	sllw	a4,ra,sp
    800010b8:	f8000393          	li	t2,-128
    800010bc:	54771863          	bne	a4,t2,8000160c <fail>

00000000800010c0 <test_10>:
    800010c0:	00a00193          	li	gp,10
    800010c4:	fff00093          	li	ra,-1
    800010c8:	00e00113          	li	sp,14
    800010cc:	0020973b          	sllw	a4,ra,sp
    800010d0:	ffffc3b7          	lui	t2,0xffffc
    800010d4:	52771c63          	bne	a4,t2,8000160c <fail>

00000000800010d8 <test_11>:
    800010d8:	00b00193          	li	gp,11
    800010dc:	fff00093          	li	ra,-1
    800010e0:	01f00113          	li	sp,31
    800010e4:	0020973b          	sllw	a4,ra,sp
    800010e8:	800003b7          	lui	t2,0x80000
    800010ec:	52771063          	bne	a4,t2,8000160c <fail>

00000000800010f0 <test_12>:
    800010f0:	00c00193          	li	gp,12
    800010f4:	212120b7          	lui	ra,0x21212
    800010f8:	1210809b          	addiw	ra,ra,289 # 21212121 <tohost-0x5edededf>
    800010fc:	00000113          	li	sp,0
    80001100:	0020973b          	sllw	a4,ra,sp
    80001104:	212123b7          	lui	t2,0x21212
    80001108:	1213839b          	addiw	t2,t2,289 # 21212121 <tohost-0x5edededf>
    8000110c:	50771063          	bne	a4,t2,8000160c <fail>

0000000080001110 <test_13>:
    80001110:	00d00193          	li	gp,13
    80001114:	212120b7          	lui	ra,0x21212
    80001118:	1210809b          	addiw	ra,ra,289 # 21212121 <tohost-0x5edededf>
    8000111c:	00100113          	li	sp,1
    80001120:	0020973b          	sllw	a4,ra,sp
    80001124:	424243b7          	lui	t2,0x42424
    80001128:	2423839b          	addiw	t2,t2,578 # 42424242 <tohost-0x3dbdbdbe>
    8000112c:	4e771063          	bne	a4,t2,8000160c <fail>

0000000080001130 <test_14>:
    80001130:	00e00193          	li	gp,14
    80001134:	212120b7          	lui	ra,0x21212
    80001138:	1210809b          	addiw	ra,ra,289 # 21212121 <tohost-0x5edededf>
    8000113c:	00700113          	li	sp,7
    80001140:	0020973b          	sllw	a4,ra,sp
    80001144:	909093b7          	lui	t2,0x90909
    80001148:	0803839b          	addiw	t2,t2,128 # ffffffff90909080 <_end+0xffffffff10907060>
    8000114c:	4c771063          	bne	a4,t2,8000160c <fail>

0000000080001150 <test_15>:
    80001150:	00f00193          	li	gp,15
    80001154:	212120b7          	lui	ra,0x21212
    80001158:	1210809b          	addiw	ra,ra,289 # 21212121 <tohost-0x5edededf>
    8000115c:	00e00113          	li	sp,14
    80001160:	0020973b          	sllw	a4,ra,sp
    80001164:	484843b7          	lui	t2,0x48484
    80001168:	4a771263          	bne	a4,t2,8000160c <fail>

000000008000116c <test_16>:
    8000116c:	01000193          	li	gp,16
    80001170:	212120b7          	lui	ra,0x21212
    80001174:	1210809b          	addiw	ra,ra,289 # 21212121 <tohost-0x5edededf>
    80001178:	01f00113          	li	sp,31
    8000117c:	0020973b          	sllw	a4,ra,sp
    80001180:	800003b7          	lui	t2,0x80000
    80001184:	48771463          	bne	a4,t2,8000160c <fail>

0000000080001188 <test_17>:
    80001188:	01100193          	li	gp,17
    8000118c:	212120b7          	lui	ra,0x21212
    80001190:	1210809b          	addiw	ra,ra,289 # 21212121 <tohost-0x5edededf>
    80001194:	fe000113          	li	sp,-32
    80001198:	0020973b          	sllw	a4,ra,sp
    8000119c:	212123b7          	lui	t2,0x21212
    800011a0:	1213839b          	addiw	t2,t2,289 # 21212121 <tohost-0x5edededf>
    800011a4:	46771463          	bne	a4,t2,8000160c <fail>

00000000800011a8 <test_18>:
    800011a8:	01200193          	li	gp,18
    800011ac:	212120b7          	lui	ra,0x21212
    800011b0:	1210809b          	addiw	ra,ra,289 # 21212121 <tohost-0x5edededf>
    800011b4:	fe100113          	li	sp,-31
    800011b8:	0020973b          	sllw	a4,ra,sp
    800011bc:	424243b7          	lui	t2,0x42424
    800011c0:	2423839b          	addiw	t2,t2,578 # 42424242 <tohost-0x3dbdbdbe>
    800011c4:	44771463          	bne	a4,t2,8000160c <fail>

00000000800011c8 <test_19>:
    800011c8:	01300193          	li	gp,19
    800011cc:	212120b7          	lui	ra,0x21212
    800011d0:	1210809b          	addiw	ra,ra,289 # 21212121 <tohost-0x5edededf>
    800011d4:	fe700113          	li	sp,-25
    800011d8:	0020973b          	sllw	a4,ra,sp
    800011dc:	909093b7          	lui	t2,0x90909
    800011e0:	0803839b          	addiw	t2,t2,128 # ffffffff90909080 <_end+0xffffffff10907060>
    800011e4:	42771463          	bne	a4,t2,8000160c <fail>

00000000800011e8 <test_20>:
    800011e8:	01400193          	li	gp,20
    800011ec:	212120b7          	lui	ra,0x21212
    800011f0:	1210809b          	addiw	ra,ra,289 # 21212121 <tohost-0x5edededf>
    800011f4:	fee00113          	li	sp,-18
    800011f8:	0020973b          	sllw	a4,ra,sp
    800011fc:	484843b7          	lui	t2,0x48484
    80001200:	40771663          	bne	a4,t2,8000160c <fail>

0000000080001204 <test_21>:
    80001204:	01500193          	li	gp,21
    80001208:	212120b7          	lui	ra,0x21212
    8000120c:	1210809b          	addiw	ra,ra,289 # 21212121 <tohost-0x5edededf>
    80001210:	fff00113          	li	sp,-1
    80001214:	0020973b          	sllw	a4,ra,sp
    80001218:	800003b7          	lui	t2,0x80000
    8000121c:	3e771863          	bne	a4,t2,8000160c <fail>

0000000080001220 <test_44>:
    80001220:	02c00193          	li	gp,44
    80001224:	fff120b7          	lui	ra,0xfff12
    80001228:	3450809b          	addiw	ra,ra,837 # fffffffffff12345 <_end+0xffffffff7ff10325>
    8000122c:	00c09093          	slli	ra,ra,0xc
    80001230:	67808093          	addi	ra,ra,1656
    80001234:	00000113          	li	sp,0
    80001238:	0020973b          	sllw	a4,ra,sp
    8000123c:	123453b7          	lui	t2,0x12345
    80001240:	6783839b          	addiw	t2,t2,1656 # 12345678 <tohost-0x6dcba988>
    80001244:	3c771463          	bne	a4,t2,8000160c <fail>

0000000080001248 <test_45>:
    80001248:	02d00193          	li	gp,45
    8000124c:	fff120b7          	lui	ra,0xfff12
    80001250:	3450809b          	addiw	ra,ra,837 # fffffffffff12345 <_end+0xffffffff7ff10325>
    80001254:	00c09093          	slli	ra,ra,0xc
    80001258:	67808093          	addi	ra,ra,1656
    8000125c:	00400113          	li	sp,4
    80001260:	0020973b          	sllw	a4,ra,sp
    80001264:	234563b7          	lui	t2,0x23456
    80001268:	7803839b          	addiw	t2,t2,1920 # 23456780 <tohost-0x5cba9880>
    8000126c:	3a771063          	bne	a4,t2,8000160c <fail>

0000000080001270 <test_46>:
    80001270:	02e00193          	li	gp,46
    80001274:	000920b7          	lui	ra,0x92
    80001278:	3450809b          	addiw	ra,ra,837 # 92345 <tohost-0x7ff6dcbb>
    8000127c:	00c09093          	slli	ra,ra,0xc
    80001280:	67808093          	addi	ra,ra,1656
    80001284:	00000113          	li	sp,0
    80001288:	0020973b          	sllw	a4,ra,sp
    8000128c:	923453b7          	lui	t2,0x92345
    80001290:	6783839b          	addiw	t2,t2,1656 # ffffffff92345678 <_end+0xffffffff12343658>
    80001294:	36771c63          	bne	a4,t2,8000160c <fail>

0000000080001298 <test_47>:
    80001298:	02f00193          	li	gp,47
    8000129c:	000990b7          	lui	ra,0x99
    800012a0:	3450809b          	addiw	ra,ra,837 # 99345 <tohost-0x7ff66cbb>
    800012a4:	00c09093          	slli	ra,ra,0xc
    800012a8:	67808093          	addi	ra,ra,1656
    800012ac:	00400113          	li	sp,4
    800012b0:	0020973b          	sllw	a4,ra,sp
    800012b4:	934563b7          	lui	t2,0x93456
    800012b8:	7803839b          	addiw	t2,t2,1920 # ffffffff93456780 <_end+0xffffffff13454760>
    800012bc:	34771863          	bne	a4,t2,8000160c <fail>

00000000800012c0 <test_22>:
    800012c0:	01600193          	li	gp,22
    800012c4:	00100093          	li	ra,1
    800012c8:	00700113          	li	sp,7
    800012cc:	002090bb          	sllw	ra,ra,sp
    800012d0:	08000393          	li	t2,128
    800012d4:	32709c63          	bne	ra,t2,8000160c <fail>

00000000800012d8 <test_23>:
    800012d8:	01700193          	li	gp,23
    800012dc:	00100093          	li	ra,1
    800012e0:	00e00113          	li	sp,14
    800012e4:	0020913b          	sllw	sp,ra,sp
    800012e8:	000043b7          	lui	t2,0x4
    800012ec:	32711063          	bne	sp,t2,8000160c <fail>

00000000800012f0 <test_24>:
    800012f0:	01800193          	li	gp,24
    800012f4:	00300093          	li	ra,3
    800012f8:	001090bb          	sllw	ra,ra,ra
    800012fc:	01800393          	li	t2,24
    80001300:	30709663          	bne	ra,t2,8000160c <fail>

0000000080001304 <test_25>:
    80001304:	01900193          	li	gp,25
    80001308:	00000213          	li	tp,0
    8000130c:	00100093          	li	ra,1
    80001310:	00700113          	li	sp,7
    80001314:	0020973b          	sllw	a4,ra,sp
    80001318:	00070313          	mv	t1,a4
    8000131c:	00120213          	addi	tp,tp,1 # 1 <tohost-0x7fffffff>
    80001320:	00200293          	li	t0,2
    80001324:	fe5214e3          	bne	tp,t0,8000130c <test_25+0x8>
    80001328:	08000393          	li	t2,128
    8000132c:	2e731063          	bne	t1,t2,8000160c <fail>

0000000080001330 <test_26>:
    80001330:	01a00193          	li	gp,26
    80001334:	00000213          	li	tp,0
    80001338:	00100093          	li	ra,1
    8000133c:	00e00113          	li	sp,14
    80001340:	0020973b          	sllw	a4,ra,sp
    80001344:	00000013          	nop
    80001348:	00070313          	mv	t1,a4
    8000134c:	00120213          	addi	tp,tp,1 # 1 <tohost-0x7fffffff>
    80001350:	00200293          	li	t0,2
    80001354:	fe5212e3          	bne	tp,t0,80001338 <test_26+0x8>
    80001358:	000043b7          	lui	t2,0x4
    8000135c:	2a731863          	bne	t1,t2,8000160c <fail>

0000000080001360 <test_27>:
    80001360:	01b00193          	li	gp,27
    80001364:	00000213          	li	tp,0
    80001368:	00100093          	li	ra,1
    8000136c:	01f00113          	li	sp,31
    80001370:	0020973b          	sllw	a4,ra,sp
    80001374:	00000013          	nop
    80001378:	00000013          	nop
    8000137c:	00070313          	mv	t1,a4
    80001380:	00120213          	addi	tp,tp,1 # 1 <tohost-0x7fffffff>
    80001384:	00200293          	li	t0,2
    80001388:	fe5210e3          	bne	tp,t0,80001368 <test_27+0x8>
    8000138c:	800003b7          	lui	t2,0x80000
    80001390:	26731e63          	bne	t1,t2,8000160c <fail>

0000000080001394 <test_28>:
    80001394:	01c00193          	li	gp,28
    80001398:	00000213          	li	tp,0
    8000139c:	00100093          	li	ra,1
    800013a0:	00700113          	li	sp,7
    800013a4:	0020973b          	sllw	a4,ra,sp
    800013a8:	00120213          	addi	tp,tp,1 # 1 <tohost-0x7fffffff>
    800013ac:	00200293          	li	t0,2
    800013b0:	fe5216e3          	bne	tp,t0,8000139c <test_28+0x8>
    800013b4:	08000393          	li	t2,128
    800013b8:	24771a63          	bne	a4,t2,8000160c <fail>

00000000800013bc <test_29>:
    800013bc:	01d00193          	li	gp,29
    800013c0:	00000213          	li	tp,0
    800013c4:	00100093          	li	ra,1
    800013c8:	00e00113          	li	sp,14
    800013cc:	00000013          	nop
    800013d0:	0020973b          	sllw	a4,ra,sp
    800013d4:	00120213          	addi	tp,tp,1 # 1 <tohost-0x7fffffff>
    800013d8:	00200293          	li	t0,2
    800013dc:	fe5214e3          	bne	tp,t0,800013c4 <test_29+0x8>
    800013e0:	000043b7          	lui	t2,0x4
    800013e4:	22771463          	bne	a4,t2,8000160c <fail>

00000000800013e8 <test_30>:
    800013e8:	01e00193          	li	gp,30
    800013ec:	00000213          	li	tp,0
    800013f0:	00100093          	li	ra,1
    800013f4:	01f00113          	li	sp,31
    800013f8:	00000013          	nop
    800013fc:	00000013          	nop
    80001400:	0020973b          	sllw	a4,ra,sp
    80001404:	00120213          	addi	tp,tp,1 # 1 <tohost-0x7fffffff>
    80001408:	00200293          	li	t0,2
    8000140c:	fe5212e3          	bne	tp,t0,800013f0 <test_30+0x8>
    80001410:	800003b7          	lui	t2,0x80000
    80001414:	1e771c63          	bne	a4,t2,8000160c <fail>

0000000080001418 <test_31>:
    80001418:	01f00193          	li	gp,31
    8000141c:	00000213          	li	tp,0
    80001420:	00100093          	li	ra,1
    80001424:	00000013          	nop
    80001428:	00700113          	li	sp,7
    8000142c:	0020973b          	sllw	a4,ra,sp
    80001430:	00120213          	addi	tp,tp,1 # 1 <tohost-0x7fffffff>
    80001434:	00200293          	li	t0,2
    80001438:	fe5214e3          	bne	tp,t0,80001420 <test_31+0x8>
    8000143c:	08000393          	li	t2,128
    80001440:	1c771663          	bne	a4,t2,8000160c <fail>

0000000080001444 <test_32>:
    80001444:	02000193          	li	gp,32
    80001448:	00000213          	li	tp,0
    8000144c:	00100093          	li	ra,1
    80001450:	00000013          	nop
    80001454:	00e00113          	li	sp,14
    80001458:	00000013          	nop
    8000145c:	0020973b          	sllw	a4,ra,sp
    80001460:	00120213          	addi	tp,tp,1 # 1 <tohost-0x7fffffff>
    80001464:	00200293          	li	t0,2
    80001468:	fe5212e3          	bne	tp,t0,8000144c <test_32+0x8>
    8000146c:	000043b7          	lui	t2,0x4
    80001470:	18771e63          	bne	a4,t2,8000160c <fail>

0000000080001474 <test_33>:
    80001474:	02100193          	li	gp,33
    80001478:	00000213          	li	tp,0
    8000147c:	00100093          	li	ra,1
    80001480:	00000013          	nop
    80001484:	00000013          	nop
    80001488:	01f00113          	li	sp,31
    8000148c:	0020973b          	sllw	a4,ra,sp
    80001490:	00120213          	addi	tp,tp,1 # 1 <tohost-0x7fffffff>
    80001494:	00200293          	li	t0,2
    80001498:	fe5212e3          	bne	tp,t0,8000147c <test_33+0x8>
    8000149c:	800003b7          	lui	t2,0x80000
    800014a0:	16771663          	bne	a4,t2,8000160c <fail>

00000000800014a4 <test_34>:
    800014a4:	02200193          	li	gp,34
    800014a8:	00000213          	li	tp,0
    800014ac:	00700113          	li	sp,7
    800014b0:	00100093          	li	ra,1
    800014b4:	0020973b          	sllw	a4,ra,sp
    800014b8:	00120213          	addi	tp,tp,1 # 1 <tohost-0x7fffffff>
    800014bc:	00200293          	li	t0,2
    800014c0:	fe5216e3          	bne	tp,t0,800014ac <test_34+0x8>
    800014c4:	08000393          	li	t2,128
    800014c8:	14771263          	bne	a4,t2,8000160c <fail>

00000000800014cc <test_35>:
    800014cc:	02300193          	li	gp,35
    800014d0:	00000213          	li	tp,0
    800014d4:	00e00113          	li	sp,14
    800014d8:	00100093          	li	ra,1
    800014dc:	00000013          	nop
    800014e0:	0020973b          	sllw	a4,ra,sp
    800014e4:	00120213          	addi	tp,tp,1 # 1 <tohost-0x7fffffff>
    800014e8:	00200293          	li	t0,2
    800014ec:	fe5214e3          	bne	tp,t0,800014d4 <test_35+0x8>
    800014f0:	000043b7          	lui	t2,0x4
    800014f4:	10771c63          	bne	a4,t2,8000160c <fail>

00000000800014f8 <test_36>:
    800014f8:	02400193          	li	gp,36
    800014fc:	00000213          	li	tp,0
    80001500:	01f00113          	li	sp,31
    80001504:	00100093          	li	ra,1
    80001508:	00000013          	nop
    8000150c:	00000013          	nop
    80001510:	0020973b          	sllw	a4,ra,sp
    80001514:	00120213          	addi	tp,tp,1 # 1 <tohost-0x7fffffff>
    80001518:	00200293          	li	t0,2
    8000151c:	fe5212e3          	bne	tp,t0,80001500 <test_36+0x8>
    80001520:	800003b7          	lui	t2,0x80000
    80001524:	0e771463          	bne	a4,t2,8000160c <fail>

0000000080001528 <test_37>:
    80001528:	02500193          	li	gp,37
    8000152c:	00000213          	li	tp,0
    80001530:	00700113          	li	sp,7
    80001534:	00000013          	nop
    80001538:	00100093          	li	ra,1
    8000153c:	0020973b          	sllw	a4,ra,sp
    80001540:	00120213          	addi	tp,tp,1 # 1 <tohost-0x7fffffff>
    80001544:	00200293          	li	t0,2
    80001548:	fe5214e3          	bne	tp,t0,80001530 <test_37+0x8>
    8000154c:	08000393          	li	t2,128
    80001550:	0a771e63          	bne	a4,t2,8000160c <fail>

0000000080001554 <test_38>:
    80001554:	02600193          	li	gp,38
    80001558:	00000213          	li	tp,0
    8000155c:	00e00113          	li	sp,14
    80001560:	00000013          	nop
    80001564:	00100093          	li	ra,1
    80001568:	00000013          	nop
    8000156c:	0020973b          	sllw	a4,ra,sp
    80001570:	00120213          	addi	tp,tp,1 # 1 <tohost-0x7fffffff>
    80001574:	00200293          	li	t0,2
    80001578:	fe5212e3          	bne	tp,t0,8000155c <test_38+0x8>
    8000157c:	000043b7          	lui	t2,0x4
    80001580:	08771663          	bne	a4,t2,8000160c <fail>

0000000080001584 <test_39>:
    80001584:	02700193          	li	gp,39
    80001588:	00000213          	li	tp,0
    8000158c:	01f00113          	li	sp,31
    80001590:	00000013          	nop
    80001594:	00000013          	nop
    80001598:	00100093          	li	ra,1
    8000159c:	0020973b          	sllw	a4,ra,sp
    800015a0:	00120213          	addi	tp,tp,1 # 1 <tohost-0x7fffffff>
    800015a4:	00200293          	li	t0,2
    800015a8:	fe5212e3          	bne	tp,t0,8000158c <test_39+0x8>
    800015ac:	800003b7          	lui	t2,0x80000
    800015b0:	04771e63          	bne	a4,t2,8000160c <fail>

00000000800015b4 <test_40>:
    800015b4:	02800193          	li	gp,40
    800015b8:	00f00093          	li	ra,15
    800015bc:	0010113b          	sllw	sp,zero,ra
    800015c0:	00000393          	li	t2,0
    800015c4:	04711463          	bne	sp,t2,8000160c <fail>

00000000800015c8 <test_41>:
    800015c8:	02900193          	li	gp,41
    800015cc:	02000093          	li	ra,32
    800015d0:	0000913b          	sllw	sp,ra,zero
    800015d4:	02000393          	li	t2,32
    800015d8:	02711a63          	bne	sp,t2,8000160c <fail>

00000000800015dc <test_42>:
    800015dc:	02a00193          	li	gp,42
    800015e0:	000010bb          	sllw	ra,zero,zero
    800015e4:	00000393          	li	t2,0
    800015e8:	02709263          	bne	ra,t2,8000160c <fail>

00000000800015ec <test_43>:
    800015ec:	02b00193          	li	gp,43
    800015f0:	40000093          	li	ra,1024
    800015f4:	00001137          	lui	sp,0x1
    800015f8:	8001011b          	addiw	sp,sp,-2048 # 800 <tohost-0x7ffff800>
    800015fc:	0020903b          	sllw	zero,ra,sp
    80001600:	00000393          	li	t2,0
    80001604:	00701463          	bne	zero,t2,8000160c <fail>
    80001608:	02301a63          	bne	zero,gp,8000163c <pass>

000000008000160c <fail>:
    8000160c:	0ff0000f          	fence
    80001610:	00001597          	auipc	a1,0x1
    80001614:	9f058593          	addi	a1,a1,-1552 # 80002000 <hello>
    80001618:	00f00613          	li	a2,15
    8000161c:	04000893          	li	a7,64
    80001620:	00000073          	ecall
    80001624:	00018063          	beqz	gp,80001624 <fail+0x18>
    80001628:	00119193          	slli	gp,gp,0x1
    8000162c:	0011e193          	ori	gp,gp,1
    80001630:	05d00893          	li	a7,93
    80001634:	00018513          	mv	a0,gp
    80001638:	00000073          	ecall

000000008000163c <pass>:
    8000163c:	0ff0000f          	fence
    80001640:	00100513          	li	a0,1
    80001644:	00001597          	auipc	a1,0x1
    80001648:	9bc58593          	addi	a1,a1,-1604 # 80002000 <hello>
    8000164c:	00f00613          	li	a2,15
    80001650:	04000893          	li	a7,64
    80001654:	00000073          	ecall
    80001658:	00100193          	li	gp,1
    8000165c:	05d00893          	li	a7,93
    80001660:	00000513          	li	a0,0
    80001664:	00000073          	ecall
    80001668:	c0001073          	unimp
