
rv64ui-p-lh:     file format elf64-littleriscv


Disassembly of section .text:

0000000080001000 <test_2>:
    80001000:	00200193          	li	gp,2
    80001004:	0ff00793          	li	a5,255
    80001008:	00001097          	auipc	ra,0x1
    8000100c:	01808093          	addi	ra,ra,24 # 80002020 <begin_signature>
    80001010:	00009703          	lh	a4,0(ra)
    80001014:	0ff00393          	li	t2,255
    80001018:	28771263          	bne	a4,t2,8000129c <fail>

000000008000101c <test_3>:
    8000101c:	00300193          	li	gp,3
    80001020:	f0000793          	li	a5,-256
    80001024:	00001097          	auipc	ra,0x1
    80001028:	ffc08093          	addi	ra,ra,-4 # 80002020 <begin_signature>
    8000102c:	00209703          	lh	a4,2(ra)
    80001030:	f0000393          	li	t2,-256
    80001034:	26771463          	bne	a4,t2,8000129c <fail>

0000000080001038 <test_4>:
    80001038:	00400193          	li	gp,4
    8000103c:	000017b7          	lui	a5,0x1
    80001040:	ff07879b          	addiw	a5,a5,-16 # ff0 <tohost-0x7ffff010>
    80001044:	00001097          	auipc	ra,0x1
    80001048:	fdc08093          	addi	ra,ra,-36 # 80002020 <begin_signature>
    8000104c:	00409703          	lh	a4,4(ra)
    80001050:	000013b7          	lui	t2,0x1
    80001054:	ff03839b          	addiw	t2,t2,-16 # ff0 <tohost-0x7ffff010>
    80001058:	24771263          	bne	a4,t2,8000129c <fail>

000000008000105c <test_5>:
    8000105c:	00500193          	li	gp,5
    80001060:	fffff7b7          	lui	a5,0xfffff
    80001064:	00f7879b          	addiw	a5,a5,15 # fffffffffffff00f <_end+0xffffffff7fffcfdf>
    80001068:	00001097          	auipc	ra,0x1
    8000106c:	fb808093          	addi	ra,ra,-72 # 80002020 <begin_signature>
    80001070:	00609703          	lh	a4,6(ra)
    80001074:	fffff3b7          	lui	t2,0xfffff
    80001078:	00f3839b          	addiw	t2,t2,15 # fffffffffffff00f <_end+0xffffffff7fffcfdf>
    8000107c:	22771063          	bne	a4,t2,8000129c <fail>

0000000080001080 <test_6>:
    80001080:	00600193          	li	gp,6
    80001084:	0ff00793          	li	a5,255
    80001088:	00001097          	auipc	ra,0x1
    8000108c:	f9e08093          	addi	ra,ra,-98 # 80002026 <tdat4>
    80001090:	ffa09703          	lh	a4,-6(ra)
    80001094:	0ff00393          	li	t2,255
    80001098:	20771263          	bne	a4,t2,8000129c <fail>

000000008000109c <test_7>:
    8000109c:	00700193          	li	gp,7
    800010a0:	f0000793          	li	a5,-256
    800010a4:	00001097          	auipc	ra,0x1
    800010a8:	f8208093          	addi	ra,ra,-126 # 80002026 <tdat4>
    800010ac:	ffc09703          	lh	a4,-4(ra)
    800010b0:	f0000393          	li	t2,-256
    800010b4:	1e771463          	bne	a4,t2,8000129c <fail>

00000000800010b8 <test_8>:
    800010b8:	00800193          	li	gp,8
    800010bc:	000017b7          	lui	a5,0x1
    800010c0:	ff07879b          	addiw	a5,a5,-16 # ff0 <tohost-0x7ffff010>
    800010c4:	00001097          	auipc	ra,0x1
    800010c8:	f6208093          	addi	ra,ra,-158 # 80002026 <tdat4>
    800010cc:	ffe09703          	lh	a4,-2(ra)
    800010d0:	000013b7          	lui	t2,0x1
    800010d4:	ff03839b          	addiw	t2,t2,-16 # ff0 <tohost-0x7ffff010>
    800010d8:	1c771263          	bne	a4,t2,8000129c <fail>

00000000800010dc <test_9>:
    800010dc:	00900193          	li	gp,9
    800010e0:	fffff7b7          	lui	a5,0xfffff
    800010e4:	00f7879b          	addiw	a5,a5,15 # fffffffffffff00f <_end+0xffffffff7fffcfdf>
    800010e8:	00001097          	auipc	ra,0x1
    800010ec:	f3e08093          	addi	ra,ra,-194 # 80002026 <tdat4>
    800010f0:	00009703          	lh	a4,0(ra)
    800010f4:	fffff3b7          	lui	t2,0xfffff
    800010f8:	00f3839b          	addiw	t2,t2,15 # fffffffffffff00f <_end+0xffffffff7fffcfdf>
    800010fc:	1a771063          	bne	a4,t2,8000129c <fail>

0000000080001100 <test_10>:
    80001100:	00a00193          	li	gp,10
    80001104:	00001097          	auipc	ra,0x1
    80001108:	f1c08093          	addi	ra,ra,-228 # 80002020 <begin_signature>
    8000110c:	fe008093          	addi	ra,ra,-32
    80001110:	02009283          	lh	t0,32(ra)
    80001114:	0ff00393          	li	t2,255
    80001118:	18729263          	bne	t0,t2,8000129c <fail>

000000008000111c <test_11>:
    8000111c:	00b00193          	li	gp,11
    80001120:	00001097          	auipc	ra,0x1
    80001124:	f0008093          	addi	ra,ra,-256 # 80002020 <begin_signature>
    80001128:	ffb08093          	addi	ra,ra,-5
    8000112c:	00709283          	lh	t0,7(ra)
    80001130:	f0000393          	li	t2,-256
    80001134:	16729463          	bne	t0,t2,8000129c <fail>

0000000080001138 <test_12>:
    80001138:	00c00193          	li	gp,12
    8000113c:	00000213          	li	tp,0
    80001140:	00001097          	auipc	ra,0x1
    80001144:	ee208093          	addi	ra,ra,-286 # 80002022 <tdat2>
    80001148:	00209703          	lh	a4,2(ra)
    8000114c:	00070313          	mv	t1,a4
    80001150:	000013b7          	lui	t2,0x1
    80001154:	ff03839b          	addiw	t2,t2,-16 # ff0 <tohost-0x7ffff010>
    80001158:	14731263          	bne	t1,t2,8000129c <fail>
    8000115c:	00120213          	addi	tp,tp,1 # 1 <tohost-0x7fffffff>
    80001160:	00200293          	li	t0,2
    80001164:	fc521ee3          	bne	tp,t0,80001140 <test_12+0x8>

0000000080001168 <test_13>:
    80001168:	00d00193          	li	gp,13
    8000116c:	00000213          	li	tp,0
    80001170:	00001097          	auipc	ra,0x1
    80001174:	eb408093          	addi	ra,ra,-332 # 80002024 <tdat3>
    80001178:	00209703          	lh	a4,2(ra)
    8000117c:	00000013          	nop
    80001180:	00070313          	mv	t1,a4
    80001184:	fffff3b7          	lui	t2,0xfffff
    80001188:	00f3839b          	addiw	t2,t2,15 # fffffffffffff00f <_end+0xffffffff7fffcfdf>
    8000118c:	10731863          	bne	t1,t2,8000129c <fail>
    80001190:	00120213          	addi	tp,tp,1 # 1 <tohost-0x7fffffff>
    80001194:	00200293          	li	t0,2
    80001198:	fc521ce3          	bne	tp,t0,80001170 <test_13+0x8>

000000008000119c <test_14>:
    8000119c:	00e00193          	li	gp,14
    800011a0:	00000213          	li	tp,0
    800011a4:	00001097          	auipc	ra,0x1
    800011a8:	e7c08093          	addi	ra,ra,-388 # 80002020 <begin_signature>
    800011ac:	00209703          	lh	a4,2(ra)
    800011b0:	00000013          	nop
    800011b4:	00000013          	nop
    800011b8:	00070313          	mv	t1,a4
    800011bc:	f0000393          	li	t2,-256
    800011c0:	0c731e63          	bne	t1,t2,8000129c <fail>
    800011c4:	00120213          	addi	tp,tp,1 # 1 <tohost-0x7fffffff>
    800011c8:	00200293          	li	t0,2
    800011cc:	fc521ce3          	bne	tp,t0,800011a4 <test_14+0x8>

00000000800011d0 <test_15>:
    800011d0:	00f00193          	li	gp,15
    800011d4:	00000213          	li	tp,0
    800011d8:	00001097          	auipc	ra,0x1
    800011dc:	e4a08093          	addi	ra,ra,-438 # 80002022 <tdat2>
    800011e0:	00209703          	lh	a4,2(ra)
    800011e4:	000013b7          	lui	t2,0x1
    800011e8:	ff03839b          	addiw	t2,t2,-16 # ff0 <tohost-0x7ffff010>
    800011ec:	0a771863          	bne	a4,t2,8000129c <fail>
    800011f0:	00120213          	addi	tp,tp,1 # 1 <tohost-0x7fffffff>
    800011f4:	00200293          	li	t0,2
    800011f8:	fe5210e3          	bne	tp,t0,800011d8 <test_15+0x8>

00000000800011fc <test_16>:
    800011fc:	01000193          	li	gp,16
    80001200:	00000213          	li	tp,0
    80001204:	00001097          	auipc	ra,0x1
    80001208:	e2008093          	addi	ra,ra,-480 # 80002024 <tdat3>
    8000120c:	00000013          	nop
    80001210:	00209703          	lh	a4,2(ra)
    80001214:	fffff3b7          	lui	t2,0xfffff
    80001218:	00f3839b          	addiw	t2,t2,15 # fffffffffffff00f <_end+0xffffffff7fffcfdf>
    8000121c:	08771063          	bne	a4,t2,8000129c <fail>
    80001220:	00120213          	addi	tp,tp,1 # 1 <tohost-0x7fffffff>
    80001224:	00200293          	li	t0,2
    80001228:	fc521ee3          	bne	tp,t0,80001204 <test_16+0x8>

000000008000122c <test_17>:
    8000122c:	01100193          	li	gp,17
    80001230:	00000213          	li	tp,0
    80001234:	00001097          	auipc	ra,0x1
    80001238:	dec08093          	addi	ra,ra,-532 # 80002020 <begin_signature>
    8000123c:	00000013          	nop
    80001240:	00000013          	nop
    80001244:	00209703          	lh	a4,2(ra)
    80001248:	f0000393          	li	t2,-256
    8000124c:	04771863          	bne	a4,t2,8000129c <fail>
    80001250:	00120213          	addi	tp,tp,1 # 1 <tohost-0x7fffffff>
    80001254:	00200293          	li	t0,2
    80001258:	fc521ee3          	bne	tp,t0,80001234 <test_17+0x8>

000000008000125c <test_18>:
    8000125c:	01200193          	li	gp,18
    80001260:	00001297          	auipc	t0,0x1
    80001264:	dc028293          	addi	t0,t0,-576 # 80002020 <begin_signature>
    80001268:	00029103          	lh	sp,0(t0)
    8000126c:	00200113          	li	sp,2
    80001270:	00200393          	li	t2,2
    80001274:	02711463          	bne	sp,t2,8000129c <fail>

0000000080001278 <test_19>:
    80001278:	01300193          	li	gp,19
    8000127c:	00001297          	auipc	t0,0x1
    80001280:	da428293          	addi	t0,t0,-604 # 80002020 <begin_signature>
    80001284:	00029103          	lh	sp,0(t0)
    80001288:	00000013          	nop
    8000128c:	00200113          	li	sp,2
    80001290:	00200393          	li	t2,2
    80001294:	00711463          	bne	sp,t2,8000129c <fail>
    80001298:	02301a63          	bne	zero,gp,800012cc <pass>

000000008000129c <fail>:
    8000129c:	0ff0000f          	fence
    800012a0:	00001597          	auipc	a1,0x1
    800012a4:	d6058593          	addi	a1,a1,-672 # 80002000 <hello>
    800012a8:	00f00613          	li	a2,15
    800012ac:	04000893          	li	a7,64
    800012b0:	00000073          	ecall
    800012b4:	00018063          	beqz	gp,800012b4 <fail+0x18>
    800012b8:	00119193          	slli	gp,gp,0x1
    800012bc:	0011e193          	ori	gp,gp,1
    800012c0:	05d00893          	li	a7,93
    800012c4:	00018513          	mv	a0,gp
    800012c8:	00000073          	ecall

00000000800012cc <pass>:
    800012cc:	0ff0000f          	fence
    800012d0:	00100513          	li	a0,1
    800012d4:	00001597          	auipc	a1,0x1
    800012d8:	d2c58593          	addi	a1,a1,-724 # 80002000 <hello>
    800012dc:	00f00613          	li	a2,15
    800012e0:	04000893          	li	a7,64
    800012e4:	00000073          	ecall
    800012e8:	00100193          	li	gp,1
    800012ec:	05d00893          	li	a7,93
    800012f0:	00000513          	li	a0,0
    800012f4:	00000073          	ecall
    800012f8:	c0001073          	unimp
