
rv64si-p-csr:     file format elf64-littleriscv


Disassembly of section .text:

0000000080001000 <test_18>:
    80001000:	01200193          	li	gp,18
    80001004:	10002573          	csrr	a0,sstatus
    80001008:	0030059b          	addiw	a1,zero,3
    8000100c:	02059593          	slli	a1,a1,0x20
    80001010:	00b57533          	and	a0,a0,a1
    80001014:	0010039b          	addiw	t2,zero,1
    80001018:	02139393          	slli	t2,t2,0x21
    8000101c:	18751663          	bne	a0,t2,800011a8 <fail>

0000000080001020 <test_20>:
    80001020:	01400193          	li	gp,20
    80001024:	14001073          	csrw	sscratch,zero
    80001028:	14002573          	csrr	a0,sscratch
    8000102c:	00000393          	li	t2,0
    80001030:	16751c63          	bne	a0,t2,800011a8 <fail>

0000000080001034 <test_21>:
    80001034:	01500193          	li	gp,21
    80001038:	14005573          	csrrwi	a0,sscratch,0
    8000103c:	1407d573          	csrrwi	a0,sscratch,15
    80001040:	00000393          	li	t2,0
    80001044:	16751263          	bne	a0,t2,800011a8 <fail>

0000000080001048 <test_22>:
    80001048:	01600193          	li	gp,22
    8000104c:	14086073          	csrsi	sscratch,16
    80001050:	14002573          	csrr	a0,sscratch
    80001054:	01f00393          	li	t2,31
    80001058:	14751863          	bne	a0,t2,800011a8 <fail>
    8000105c:	1401d073          	csrwi	sscratch,3

0000000080001060 <test_2>:
    80001060:	00200193          	li	gp,2
    80001064:	14002573          	csrr	a0,sscratch
    80001068:	00300393          	li	t2,3
    8000106c:	12751e63          	bne	a0,t2,800011a8 <fail>

0000000080001070 <test_3>:
    80001070:	00300193          	li	gp,3
    80001074:	1400f5f3          	csrrci	a1,sscratch,1
    80001078:	00300393          	li	t2,3
    8000107c:	12759663          	bne	a1,t2,800011a8 <fail>

0000000080001080 <test_4>:
    80001080:	00400193          	li	gp,4
    80001084:	14026673          	csrrsi	a2,sscratch,4
    80001088:	00200393          	li	t2,2
    8000108c:	10761e63          	bne	a2,t2,800011a8 <fail>

0000000080001090 <test_5>:
    80001090:	00500193          	li	gp,5
    80001094:	140156f3          	csrrwi	a3,sscratch,2
    80001098:	00600393          	li	t2,6
    8000109c:	10769663          	bne	a3,t2,800011a8 <fail>

00000000800010a0 <test_6>:
    800010a0:	00600193          	li	gp,6
    800010a4:	0bad2537          	lui	a0,0xbad2
    800010a8:	dea5051b          	addiw	a0,a0,-534 # bad1dea <tohost-0x7452e216>
    800010ac:	140515f3          	csrrw	a1,sscratch,a0
    800010b0:	00200393          	li	t2,2
    800010b4:	0e759a63          	bne	a1,t2,800011a8 <fail>

00000000800010b8 <test_7>:
    800010b8:	00700193          	li	gp,7
    800010bc:	00002537          	lui	a0,0x2
    800010c0:	dea5051b          	addiw	a0,a0,-534 # 1dea <tohost-0x7fffe216>
    800010c4:	140535f3          	csrrc	a1,sscratch,a0
    800010c8:	0bad23b7          	lui	t2,0xbad2
    800010cc:	dea3839b          	addiw	t2,t2,-534 # bad1dea <tohost-0x7452e216>
    800010d0:	0c759c63          	bne	a1,t2,800011a8 <fail>

00000000800010d4 <test_8>:
    800010d4:	00800193          	li	gp,8
    800010d8:	0000c537          	lui	a0,0xc
    800010dc:	eef5051b          	addiw	a0,a0,-273 # beef <tohost-0x7fff4111>
    800010e0:	140525f3          	csrrs	a1,sscratch,a0
    800010e4:	0bad03b7          	lui	t2,0xbad0
    800010e8:	0c759063          	bne	a1,t2,800011a8 <fail>

00000000800010ec <test_9>:
    800010ec:	00900193          	li	gp,9
    800010f0:	0bad2537          	lui	a0,0xbad2
    800010f4:	dea5051b          	addiw	a0,a0,-534 # bad1dea <tohost-0x7452e216>
    800010f8:	14051573          	csrrw	a0,sscratch,a0
    800010fc:	0badc3b7          	lui	t2,0xbadc
    80001100:	eef3839b          	addiw	t2,t2,-273 # badbeef <tohost-0x74524111>
    80001104:	0a751263          	bne	a0,t2,800011a8 <fail>

0000000080001108 <test_10>:
    80001108:	00a00193          	li	gp,10
    8000110c:	00002537          	lui	a0,0x2
    80001110:	dea5051b          	addiw	a0,a0,-534 # 1dea <tohost-0x7fffe216>
    80001114:	14053573          	csrrc	a0,sscratch,a0
    80001118:	0bad23b7          	lui	t2,0xbad2
    8000111c:	dea3839b          	addiw	t2,t2,-534 # bad1dea <tohost-0x7452e216>
    80001120:	08751463          	bne	a0,t2,800011a8 <fail>

0000000080001124 <test_11>:
    80001124:	00b00193          	li	gp,11
    80001128:	0000c537          	lui	a0,0xc
    8000112c:	eef5051b          	addiw	a0,a0,-273 # beef <tohost-0x7fff4111>
    80001130:	14052573          	csrrs	a0,sscratch,a0
    80001134:	0bad03b7          	lui	t2,0xbad0
    80001138:	06751863          	bne	a0,t2,800011a8 <fail>

000000008000113c <test_12>:
    8000113c:	00c00193          	li	gp,12
    80001140:	14002573          	csrr	a0,sscratch
    80001144:	0badc3b7          	lui	t2,0xbadc
    80001148:	eef3839b          	addiw	t2,t2,-273 # badbeef <tohost-0x74524111>
    8000114c:	04751e63          	bne	a0,t2,800011a8 <fail>
    80001150:	10000293          	li	t0,256
    80001154:	1002b073          	csrc	sstatus,t0
    80001158:	00000297          	auipc	t0,0x0
    8000115c:	01028293          	addi	t0,t0,16 # 80001168 <test_15>
    80001160:	14129073          	csrw	sepc,t0
    80001164:	10200073          	sret

0000000080001168 <test_15>:
    80001168:	00f00193          	li	gp,15
    8000116c:	00000013          	nop
    80001170:	00000393          	li	t2,0
    80001174:	02701a63          	bne	zero,t2,800011a8 <fail>

0000000080001178 <finish>:
    80001178:	0ff0000f          	fence
    8000117c:	00100513          	li	a0,1
    80001180:	00001597          	auipc	a1,0x1
    80001184:	e8058593          	addi	a1,a1,-384 # 80002000 <hello>
    80001188:	00f00613          	li	a2,15
    8000118c:	04000893          	li	a7,64
    80001190:	00000073          	ecall
    80001194:	00100193          	li	gp,1
    80001198:	05d00893          	li	a7,93
    8000119c:	00000513          	li	a0,0
    800011a0:	00000073          	ecall
    800011a4:	02301a63          	bne	zero,gp,800011d8 <pass>

00000000800011a8 <fail>:
    800011a8:	0ff0000f          	fence
    800011ac:	00001597          	auipc	a1,0x1
    800011b0:	e5458593          	addi	a1,a1,-428 # 80002000 <hello>
    800011b4:	00f00613          	li	a2,15
    800011b8:	04000893          	li	a7,64
    800011bc:	00000073          	ecall
    800011c0:	00018063          	beqz	gp,800011c0 <fail+0x18>
    800011c4:	00119193          	slli	gp,gp,0x1
    800011c8:	0011e193          	ori	gp,gp,1
    800011cc:	05d00893          	li	a7,93
    800011d0:	00018513          	mv	a0,gp
    800011d4:	00000073          	ecall

00000000800011d8 <pass>:
    800011d8:	0ff0000f          	fence
    800011dc:	00100513          	li	a0,1
    800011e0:	00001597          	auipc	a1,0x1
    800011e4:	e2058593          	addi	a1,a1,-480 # 80002000 <hello>
    800011e8:	00f00613          	li	a2,15
    800011ec:	04000893          	li	a7,64
    800011f0:	00000073          	ecall
    800011f4:	00100193          	li	gp,1
    800011f8:	05d00893          	li	a7,93
    800011fc:	00000513          	li	a0,0
    80001200:	00000073          	ecall

0000000080001204 <stvec_handler>:
    80001204:	00d00293          	li	t0,13
    80001208:	0051e663          	bltu	gp,t0,80001214 <stvec_handler+0x10>
    8000120c:	00f00293          	li	t0,15
    80001210:	0232fe63          	bgeu	t0,gp,8000124c <privileged>
    80001214:	142022f3          	csrr	t0,scause
    80001218:	00800313          	li	t1,8
    8000121c:	f86296e3          	bne	t0,t1,800011a8 <fail>
    80001220:	0ff0000f          	fence
    80001224:	00100513          	li	a0,1
    80001228:	00001597          	auipc	a1,0x1
    8000122c:	dd858593          	addi	a1,a1,-552 # 80002000 <hello>
    80001230:	00f00613          	li	a2,15
    80001234:	04000893          	li	a7,64
    80001238:	00000073          	ecall
    8000123c:	00100193          	li	gp,1
    80001240:	05d00893          	li	a7,93
    80001244:	00000513          	li	a0,0
    80001248:	00000073          	ecall

000000008000124c <privileged>:
    8000124c:	142022f3          	csrr	t0,scause
    80001250:	00200313          	li	t1,2
    80001254:	f4629ae3          	bne	t0,t1,800011a8 <fail>
    80001258:	141022f3          	csrr	t0,sepc
    8000125c:	00428293          	addi	t0,t0,4
    80001260:	14129073          	csrw	sepc,t0
    80001264:	10200073          	sret
    80001268:	c0001073          	unimp
