
rv64mi-p-ld-misaligned:     file format elf64-littleriscv


Disassembly of section .text:

0000000080001000 <test_2>:
    80001000:	00200193          	li	gp,2
    80001004:	080707b7          	lui	a5,0x8070
    80001008:	6057879b          	addiw	a5,a5,1541 # 8070605 <tohost-0x77f8f9fb>
    8000100c:	01079793          	slli	a5,a5,0x10
    80001010:	40378793          	addi	a5,a5,1027
    80001014:	01079793          	slli	a5,a5,0x10
    80001018:	20178793          	addi	a5,a5,513
    8000101c:	00001097          	auipc	ra,0x1
    80001020:	00408093          	addi	ra,ra,4 # 80002020 <begin_signature>
    80001024:	0000b703          	ld	a4,0(ra)
    80001028:	080703b7          	lui	t2,0x8070
    8000102c:	6053839b          	addiw	t2,t2,1541 # 8070605 <tohost-0x77f8f9fb>
    80001030:	01039393          	slli	t2,t2,0x10
    80001034:	40338393          	addi	t2,t2,1027
    80001038:	01039393          	slli	t2,t2,0x10
    8000103c:	20138393          	addi	t2,t2,513
    80001040:	20771a63          	bne	a4,t2,80001254 <fail>

0000000080001044 <test_3>:
    80001044:	00300193          	li	gp,3
    80001048:	048407b7          	lui	a5,0x4840
    8000104c:	3837879b          	addiw	a5,a5,899 # 4840383 <tohost-0x7b7bfc7d>
    80001050:	00f79793          	slli	a5,a5,0xf
    80001054:	14178793          	addi	a5,a5,321
    80001058:	01279793          	slli	a5,a5,0x12
    8000105c:	30278793          	addi	a5,a5,770
    80001060:	00001097          	auipc	ra,0x1
    80001064:	fc008093          	addi	ra,ra,-64 # 80002020 <begin_signature>
    80001068:	0010b703          	ld	a4,1(ra)
    8000106c:	048403b7          	lui	t2,0x4840
    80001070:	3833839b          	addiw	t2,t2,899 # 4840383 <tohost-0x7b7bfc7d>
    80001074:	00f39393          	slli	t2,t2,0xf
    80001078:	14138393          	addi	t2,t2,321
    8000107c:	01239393          	slli	t2,t2,0x12
    80001080:	30238393          	addi	t2,t2,770
    80001084:	1c771863          	bne	a4,t2,80001254 <fail>

0000000080001088 <test_4>:
    80001088:	00400193          	li	gp,4
    8000108c:	0a0917b7          	lui	a5,0xa091
    80001090:	8077879b          	addiw	a5,a5,-2041 # a090807 <tohost-0x75f6f7f9>
    80001094:	01079793          	slli	a5,a5,0x10
    80001098:	60578793          	addi	a5,a5,1541
    8000109c:	01079793          	slli	a5,a5,0x10
    800010a0:	40378793          	addi	a5,a5,1027
    800010a4:	00001097          	auipc	ra,0x1
    800010a8:	f7c08093          	addi	ra,ra,-132 # 80002020 <begin_signature>
    800010ac:	0020b703          	ld	a4,2(ra)
    800010b0:	0a0913b7          	lui	t2,0xa091
    800010b4:	8073839b          	addiw	t2,t2,-2041 # a090807 <tohost-0x75f6f7f9>
    800010b8:	01039393          	slli	t2,t2,0x10
    800010bc:	60538393          	addi	t2,t2,1541
    800010c0:	01039393          	slli	t2,t2,0x10
    800010c4:	40338393          	addi	t2,t2,1027
    800010c8:	18771663          	bne	a4,t2,80001254 <fail>

00000000800010cc <test_5>:
    800010cc:	00500193          	li	gp,5
    800010d0:	016147b7          	lui	a5,0x1614
    800010d4:	1217879b          	addiw	a5,a5,289 # 1614121 <tohost-0x7e9ebedf>
    800010d8:	01279793          	slli	a5,a5,0x12
    800010dc:	38378793          	addi	a5,a5,899
    800010e0:	01179793          	slli	a5,a5,0x11
    800010e4:	50478793          	addi	a5,a5,1284
    800010e8:	00001097          	auipc	ra,0x1
    800010ec:	f3808093          	addi	ra,ra,-200 # 80002020 <begin_signature>
    800010f0:	0030b703          	ld	a4,3(ra)
    800010f4:	016143b7          	lui	t2,0x1614
    800010f8:	1213839b          	addiw	t2,t2,289 # 1614121 <tohost-0x7e9ebedf>
    800010fc:	01239393          	slli	t2,t2,0x12
    80001100:	38338393          	addi	t2,t2,899
    80001104:	01139393          	slli	t2,t2,0x11
    80001108:	50438393          	addi	t2,t2,1284
    8000110c:	14771463          	bne	a4,t2,80001254 <fail>

0000000080001110 <test_6>:
    80001110:	00600193          	li	gp,6
    80001114:	000607b7          	lui	a5,0x60
    80001118:	5857879b          	addiw	a5,a5,1413 # 60585 <tohost-0x7ff9fa7b>
    8000111c:	00d79793          	slli	a5,a5,0xd
    80001120:	09178793          	addi	a5,a5,145
    80001124:	00c79793          	slli	a5,a5,0xc
    80001128:	80778793          	addi	a5,a5,-2041
    8000112c:	01079793          	slli	a5,a5,0x10
    80001130:	60578793          	addi	a5,a5,1541
    80001134:	00001097          	auipc	ra,0x1
    80001138:	eec08093          	addi	ra,ra,-276 # 80002020 <begin_signature>
    8000113c:	0040b703          	ld	a4,4(ra)
    80001140:	000603b7          	lui	t2,0x60
    80001144:	5853839b          	addiw	t2,t2,1413 # 60585 <tohost-0x7ff9fa7b>
    80001148:	00d39393          	slli	t2,t2,0xd
    8000114c:	09138393          	addi	t2,t2,145
    80001150:	00c39393          	slli	t2,t2,0xc
    80001154:	80738393          	addi	t2,t2,-2041
    80001158:	01039393          	slli	t2,t2,0x10
    8000115c:	60538393          	addi	t2,t2,1541
    80001160:	0e771a63          	bne	a4,t2,80001254 <fail>

0000000080001164 <test_7>:
    80001164:	00700193          	li	gp,7
    80001168:	068607b7          	lui	a5,0x6860
    8000116c:	5857879b          	addiw	a5,a5,1413 # 6860585 <tohost-0x7979fa7b>
    80001170:	00e79793          	slli	a5,a5,0xe
    80001174:	12178793          	addi	a5,a5,289
    80001178:	01379793          	slli	a5,a5,0x13
    8000117c:	70678793          	addi	a5,a5,1798
    80001180:	00001097          	auipc	ra,0x1
    80001184:	ea008093          	addi	ra,ra,-352 # 80002020 <begin_signature>
    80001188:	0050b703          	ld	a4,5(ra)
    8000118c:	068603b7          	lui	t2,0x6860
    80001190:	5853839b          	addiw	t2,t2,1413 # 6860585 <tohost-0x7979fa7b>
    80001194:	00e39393          	slli	t2,t2,0xe
    80001198:	12138393          	addi	t2,t2,289
    8000119c:	01339393          	slli	t2,t2,0x13
    800011a0:	70638393          	addi	t2,t2,1798
    800011a4:	0a771863          	bne	a4,t2,80001254 <fail>

00000000800011a8 <test_8>:
    800011a8:	00800193          	li	gp,8
    800011ac:	000387b7          	lui	a5,0x38
    800011b0:	3437879b          	addiw	a5,a5,835 # 38343 <tohost-0x7ffc7cbd>
    800011b4:	01179793          	slli	a5,a5,0x11
    800011b8:	58578793          	addi	a5,a5,1413
    800011bc:	00d79793          	slli	a5,a5,0xd
    800011c0:	09178793          	addi	a5,a5,145
    800011c4:	00c79793          	slli	a5,a5,0xc
    800011c8:	80778793          	addi	a5,a5,-2041
    800011cc:	00001097          	auipc	ra,0x1
    800011d0:	e5408093          	addi	ra,ra,-428 # 80002020 <begin_signature>
    800011d4:	0060b703          	ld	a4,6(ra)
    800011d8:	000383b7          	lui	t2,0x38
    800011dc:	3433839b          	addiw	t2,t2,835 # 38343 <tohost-0x7ffc7cbd>
    800011e0:	01139393          	slli	t2,t2,0x11
    800011e4:	58538393          	addi	t2,t2,1413
    800011e8:	00d39393          	slli	t2,t2,0xd
    800011ec:	09138393          	addi	t2,t2,145
    800011f0:	00c39393          	slli	t2,t2,0xc
    800011f4:	80738393          	addi	t2,t2,-2041
    800011f8:	04771e63          	bne	a4,t2,80001254 <fail>

00000000800011fc <test_9>:
    800011fc:	00900193          	li	gp,9
    80001200:	00f0e7b7          	lui	a5,0xf0e
    80001204:	0d17879b          	addiw	a5,a5,209 # f0e0d1 <tohost-0x7f0f1f2f>
    80001208:	00c79793          	slli	a5,a5,0xc
    8000120c:	c0b78793          	addi	a5,a5,-1013
    80001210:	00c79793          	slli	a5,a5,0xc
    80001214:	0a178793          	addi	a5,a5,161
    80001218:	00c79793          	slli	a5,a5,0xc
    8000121c:	90878793          	addi	a5,a5,-1784
    80001220:	00001097          	auipc	ra,0x1
    80001224:	e0008093          	addi	ra,ra,-512 # 80002020 <begin_signature>
    80001228:	0070b703          	ld	a4,7(ra)
    8000122c:	00f0e3b7          	lui	t2,0xf0e
    80001230:	0d13839b          	addiw	t2,t2,209 # f0e0d1 <tohost-0x7f0f1f2f>
    80001234:	00c39393          	slli	t2,t2,0xc
    80001238:	c0b38393          	addi	t2,t2,-1013
    8000123c:	00c39393          	slli	t2,t2,0xc
    80001240:	0a138393          	addi	t2,t2,161
    80001244:	00c39393          	slli	t2,t2,0xc
    80001248:	90838393          	addi	t2,t2,-1784
    8000124c:	00771463          	bne	a4,t2,80001254 <fail>
    80001250:	02301a63          	bne	zero,gp,80001284 <pass>

0000000080001254 <fail>:
    80001254:	0ff0000f          	fence
    80001258:	00001597          	auipc	a1,0x1
    8000125c:	da858593          	addi	a1,a1,-600 # 80002000 <hello>
    80001260:	00f00613          	li	a2,15
    80001264:	04000893          	li	a7,64
    80001268:	00000073          	ecall
    8000126c:	00018063          	beqz	gp,8000126c <fail+0x18>
    80001270:	00119193          	slli	gp,gp,0x1
    80001274:	0011e193          	ori	gp,gp,1
    80001278:	05d00893          	li	a7,93
    8000127c:	00018513          	mv	a0,gp
    80001280:	00000073          	ecall

0000000080001284 <pass>:
    80001284:	0ff0000f          	fence
    80001288:	00100513          	li	a0,1
    8000128c:	00001597          	auipc	a1,0x1
    80001290:	d7458593          	addi	a1,a1,-652 # 80002000 <hello>
    80001294:	00f00613          	li	a2,15
    80001298:	04000893          	li	a7,64
    8000129c:	00000073          	ecall
    800012a0:	00100193          	li	gp,1
    800012a4:	05d00893          	li	a7,93
    800012a8:	00000513          	li	a0,0
    800012ac:	00000073          	ecall

00000000800012b0 <mtvec_handler>:
    800012b0:	00400293          	li	t0,4
    800012b4:	34202373          	csrr	t1,mcause
    800012b8:	f8629ee3          	bne	t0,t1,80001254 <fail>
    800012bc:	00078713          	mv	a4,a5
    800012c0:	341022f3          	csrr	t0,mepc
    800012c4:	00428293          	addi	t0,t0,4
    800012c8:	34129073          	csrw	mepc,t0
    800012cc:	30200073          	mret
    800012d0:	c0001073          	unimp
