
rv64ui-p-fence_i:     file format elf64-littleriscv


Disassembly of section .text:

0000000080001000 <test_2-0x60>:
    80001000:	06f00693          	li	a3,111
    80001004:	00001517          	auipc	a0,0x1
    80001008:	01c51503          	lh	a0,28(a0) # 80002020 <begin_signature>
    8000100c:	00001597          	auipc	a1,0x1
    80001010:	01659583          	lh	a1,22(a1) # 80002022 <begin_signature+0x2>
    80001014:	00000013          	nop
    80001018:	00000013          	nop
    8000101c:	00000013          	nop
    80001020:	00000013          	nop
    80001024:	00000013          	nop
    80001028:	00000013          	nop
    8000102c:	00000013          	nop
    80001030:	00000013          	nop
    80001034:	00000013          	nop
    80001038:	00000013          	nop
    8000103c:	00000013          	nop
    80001040:	00001297          	auipc	t0,0x1
    80001044:	fea29223          	sh	a0,-28(t0) # 80002024 <begin_signature+0x4>
    80001048:	00001297          	auipc	t0,0x1
    8000104c:	fcb29f23          	sh	a1,-34(t0) # 80002026 <begin_signature+0x6>
    80001050:	0000100f          	fence.i
    80001054:	00001797          	auipc	a5,0x1
    80001058:	fd078793          	addi	a5,a5,-48 # 80002024 <begin_signature+0x4>
    8000105c:	00078367          	jalr	t1,a5

0000000080001060 <test_2>:
    80001060:	00200193          	li	gp,2
    80001064:	00000013          	nop
    80001068:	1bc00393          	li	t2,444
    8000106c:	06769a63          	bne	a3,t2,800010e0 <fail>
    80001070:	06400713          	li	a4,100
    80001074:	fff70713          	addi	a4,a4,-1
    80001078:	fe071ee3          	bnez	a4,80001074 <test_2+0x14>
    8000107c:	00001297          	auipc	t0,0x1
    80001080:	faa29823          	sh	a0,-80(t0) # 8000202c <begin_signature+0xc>
    80001084:	00001297          	auipc	t0,0x1
    80001088:	fab29523          	sh	a1,-86(t0) # 8000202e <begin_signature+0xe>
    8000108c:	0000100f          	fence.i
    80001090:	00000013          	nop
    80001094:	00000013          	nop
    80001098:	00000013          	nop
    8000109c:	00000013          	nop
    800010a0:	00000013          	nop
    800010a4:	00000013          	nop
    800010a8:	00000013          	nop
    800010ac:	00000013          	nop
    800010b0:	00000013          	nop
    800010b4:	00000013          	nop
    800010b8:	00000013          	nop
    800010bc:	00000013          	nop
    800010c0:	00001797          	auipc	a5,0x1
    800010c4:	f6c78793          	addi	a5,a5,-148 # 8000202c <begin_signature+0xc>
    800010c8:	00078367          	jalr	t1,a5

00000000800010cc <test_3>:
    800010cc:	00300193          	li	gp,3
    800010d0:	00000013          	nop
    800010d4:	30900393          	li	t2,777
    800010d8:	00769463          	bne	a3,t2,800010e0 <fail>
    800010dc:	02301a63          	bne	zero,gp,80001110 <pass>

00000000800010e0 <fail>:
    800010e0:	0ff0000f          	fence
    800010e4:	00001597          	auipc	a1,0x1
    800010e8:	f1c58593          	addi	a1,a1,-228 # 80002000 <hello>
    800010ec:	00f00613          	li	a2,15
    800010f0:	04000893          	li	a7,64
    800010f4:	00000073          	ecall
    800010f8:	00018063          	beqz	gp,800010f8 <fail+0x18>
    800010fc:	00119193          	slli	gp,gp,0x1
    80001100:	0011e193          	ori	gp,gp,1
    80001104:	05d00893          	li	a7,93
    80001108:	00018513          	mv	a0,gp
    8000110c:	00000073          	ecall

0000000080001110 <pass>:
    80001110:	0ff0000f          	fence
    80001114:	00100513          	li	a0,1
    80001118:	00001597          	auipc	a1,0x1
    8000111c:	ee858593          	addi	a1,a1,-280 # 80002000 <hello>
    80001120:	00f00613          	li	a2,15
    80001124:	04000893          	li	a7,64
    80001128:	00000073          	ecall
    8000112c:	00100193          	li	gp,1
    80001130:	05d00893          	li	a7,93
    80001134:	00000513          	li	a0,0
    80001138:	00000073          	ecall
    8000113c:	c0001073          	unimp
    80001140:	0000                	.2byte	0x0
    80001142:	0000                	.2byte	0x0
    80001144:	0000                	.2byte	0x0
    80001146:	0000                	.2byte	0x0
    80001148:	0000                	.2byte	0x0
    8000114a:	0000                	.2byte	0x0
    8000114c:	0000                	.2byte	0x0
    8000114e:	0000                	.2byte	0x0
    80001150:	0000                	.2byte	0x0
    80001152:	0000                	.2byte	0x0
    80001154:	0000                	.2byte	0x0
    80001156:	0000                	.2byte	0x0
    80001158:	0000                	.2byte	0x0
    8000115a:	0000                	.2byte	0x0
    8000115c:	0000                	.2byte	0x0
    8000115e:	0000                	.2byte	0x0
    80001160:	0000                	.2byte	0x0
    80001162:	0000                	.2byte	0x0
