
rv64ud-p-recoding:     file format elf64-littleriscv


Disassembly of section .text:

0000000080001000 <test_2-0x14>:
    80001000:	00001517          	auipc	a0,0x1
    80001004:	02053007          	fld	ft0,32(a0) # 80002020 <begin_signature>
    80001008:	00001517          	auipc	a0,0x1
    8000100c:	02053087          	fld	ft1,32(a0) # 80002028 <three>
    80001010:	1200f0d3          	fmul.d	ft1,ft1,ft0

0000000080001014 <test_2>:
    80001014:	00200193          	li	gp,2
    80001018:	a2102553          	feq.d	a0,ft0,ft1
    8000101c:	00100393          	li	t2,1
    80001020:	0c751663          	bne	a0,t2,800010ec <fail>

0000000080001024 <test_3>:
    80001024:	00300193          	li	gp,3
    80001028:	a2100553          	fle.d	a0,ft0,ft1
    8000102c:	00100393          	li	t2,1
    80001030:	0a751e63          	bne	a0,t2,800010ec <fail>

0000000080001034 <test_4>:
    80001034:	00400193          	li	gp,4
    80001038:	a2101553          	flt.d	a0,ft0,ft1
    8000103c:	00000393          	li	t2,0
    80001040:	0a751663          	bne	a0,t2,800010ec <fail>
    80001044:	d2000053          	fcvt.d.w	ft0,zero
    80001048:	00100513          	li	a0,1
    8000104c:	d20500d3          	fcvt.d.w	ft1,a0
    80001050:	1200f0d3          	fmul.d	ft1,ft1,ft0

0000000080001054 <test_5>:
    80001054:	00500193          	li	gp,5
    80001058:	a2102553          	feq.d	a0,ft0,ft1
    8000105c:	00100393          	li	t2,1
    80001060:	08751663          	bne	a0,t2,800010ec <fail>

0000000080001064 <test_6>:
    80001064:	00600193          	li	gp,6
    80001068:	a2100553          	fle.d	a0,ft0,ft1
    8000106c:	00100393          	li	t2,1
    80001070:	06751e63          	bne	a0,t2,800010ec <fail>

0000000080001074 <test_7>:
    80001074:	00700193          	li	gp,7
    80001078:	a2101553          	flt.d	a0,ft0,ft1
    8000107c:	00000393          	li	t2,0
    80001080:	06751663          	bne	a0,t2,800010ec <fail>
    80001084:	00001517          	auipc	a0,0x1
    80001088:	fac52007          	flw	ft0,-84(a0) # 80002030 <big>
    8000108c:	00001517          	auipc	a0,0x1
    80001090:	fac53087          	fld	ft1,-84(a0) # 80002038 <tiny>
    80001094:	4010f0d3          	fcvt.s.d	ft1,ft1
    80001098:	10107053          	fmul.s	ft0,ft0,ft1
    8000109c:	e0000553          	fmv.x.w	a0,ft0
    800010a0:	00001597          	auipc	a1,0x1
    800010a4:	f945a583          	lw	a1,-108(a1) # 80002034 <small>

00000000800010a8 <test_10>:
    800010a8:	00a00193          	li	gp,10
    800010ac:	40b50533          	sub	a0,a0,a1
    800010b0:	00000393          	li	t2,0
    800010b4:	02751c63          	bne	a0,t2,800010ec <fail>
    800010b8:	00001517          	auipc	a0,0x1
    800010bc:	f7052007          	flw	ft0,-144(a0) # 80002028 <three>
    800010c0:	000070d3          	fadd.s	ft1,ft0,ft0
    800010c4:	00007053          	fadd.s	ft0,ft0,ft0
    800010c8:	00001517          	auipc	a0,0x1
    800010cc:	f6053827          	fsd	ft0,-144(a0) # 80002038 <tiny>
    800010d0:	00001517          	auipc	a0,0x1
    800010d4:	f6853007          	fld	ft0,-152(a0) # 80002038 <tiny>

00000000800010d8 <test_20>:
    800010d8:	01400193          	li	gp,20
    800010dc:	a0102553          	feq.s	a0,ft0,ft1
    800010e0:	00100393          	li	t2,1
    800010e4:	00751463          	bne	a0,t2,800010ec <fail>
    800010e8:	02301a63          	bne	zero,gp,8000111c <pass>

00000000800010ec <fail>:
    800010ec:	0ff0000f          	fence
    800010f0:	00001597          	auipc	a1,0x1
    800010f4:	f1058593          	addi	a1,a1,-240 # 80002000 <hello>
    800010f8:	00f00613          	li	a2,15
    800010fc:	04000893          	li	a7,64
    80001100:	00000073          	ecall
    80001104:	00018063          	beqz	gp,80001104 <fail+0x18>
    80001108:	00119193          	slli	gp,gp,0x1
    8000110c:	0011e193          	ori	gp,gp,1
    80001110:	05d00893          	li	a7,93
    80001114:	00018513          	mv	a0,gp
    80001118:	00000073          	ecall

000000008000111c <pass>:
    8000111c:	0ff0000f          	fence
    80001120:	00100513          	li	a0,1
    80001124:	00001597          	auipc	a1,0x1
    80001128:	edc58593          	addi	a1,a1,-292 # 80002000 <hello>
    8000112c:	00f00613          	li	a2,15
    80001130:	04000893          	li	a7,64
    80001134:	00000073          	ecall
    80001138:	00100193          	li	gp,1
    8000113c:	05d00893          	li	a7,93
    80001140:	00000513          	li	a0,0
    80001144:	00000073          	ecall
    80001148:	c0001073          	unimp
