
rv64uf-p-fclass:     file format elf64-littleriscv


Disassembly of section .text:

0000000080001000 <test_2>:
    80001000:	00200193          	li	gp,2
    80001004:	1ff0051b          	addiw	a0,zero,511
    80001008:	01751513          	slli	a0,a0,0x17
    8000100c:	f0050553          	fmv.w.x	fa0,a0
    80001010:	e0051553          	fclass.s	a0,fa0
    80001014:	00100393          	li	t2,1
    80001018:	0e751c63          	bne	a0,t2,80001110 <fail>

000000008000101c <test_3>:
    8000101c:	00300193          	li	gp,3
    80001020:	17f0051b          	addiw	a0,zero,383
    80001024:	01751513          	slli	a0,a0,0x17
    80001028:	f0050553          	fmv.w.x	fa0,a0
    8000102c:	e0051553          	fclass.s	a0,fa0
    80001030:	00200393          	li	t2,2
    80001034:	0c751e63          	bne	a0,t2,80001110 <fail>

0000000080001038 <test_4>:
    80001038:	00400193          	li	gp,4
    8000103c:	1010051b          	addiw	a0,zero,257
    80001040:	01751513          	slli	a0,a0,0x17
    80001044:	fff50513          	addi	a0,a0,-1
    80001048:	f0050553          	fmv.w.x	fa0,a0
    8000104c:	e0051553          	fclass.s	a0,fa0
    80001050:	00400393          	li	t2,4
    80001054:	0a751e63          	bne	a0,t2,80001110 <fail>

0000000080001058 <test_5>:
    80001058:	00500193          	li	gp,5
    8000105c:	0010051b          	addiw	a0,zero,1
    80001060:	01f51513          	slli	a0,a0,0x1f
    80001064:	f0050553          	fmv.w.x	fa0,a0
    80001068:	e0051553          	fclass.s	a0,fa0
    8000106c:	00800393          	li	t2,8
    80001070:	0a751063          	bne	a0,t2,80001110 <fail>

0000000080001074 <test_6>:
    80001074:	00600193          	li	gp,6
    80001078:	00000513          	li	a0,0
    8000107c:	f0050553          	fmv.w.x	fa0,a0
    80001080:	e0051553          	fclass.s	a0,fa0
    80001084:	01000393          	li	t2,16
    80001088:	08751463          	bne	a0,t2,80001110 <fail>

000000008000108c <test_7>:
    8000108c:	00700193          	li	gp,7
    80001090:	00800537          	lui	a0,0x800
    80001094:	fff5051b          	addiw	a0,a0,-1 # 7fffff <tohost-0x7f800001>
    80001098:	f0050553          	fmv.w.x	fa0,a0
    8000109c:	e0051553          	fclass.s	a0,fa0
    800010a0:	02000393          	li	t2,32
    800010a4:	06751663          	bne	a0,t2,80001110 <fail>

00000000800010a8 <test_8>:
    800010a8:	00800193          	li	gp,8
    800010ac:	3f800537          	lui	a0,0x3f800
    800010b0:	f0050553          	fmv.w.x	fa0,a0
    800010b4:	e0051553          	fclass.s	a0,fa0
    800010b8:	04000393          	li	t2,64
    800010bc:	04751a63          	bne	a0,t2,80001110 <fail>

00000000800010c0 <test_9>:
    800010c0:	00900193          	li	gp,9
    800010c4:	7f800537          	lui	a0,0x7f800
    800010c8:	f0050553          	fmv.w.x	fa0,a0
    800010cc:	e0051553          	fclass.s	a0,fa0
    800010d0:	08000393          	li	t2,128
    800010d4:	02751e63          	bne	a0,t2,80001110 <fail>

00000000800010d8 <test_10>:
    800010d8:	00a00193          	li	gp,10
    800010dc:	7f800537          	lui	a0,0x7f800
    800010e0:	0015051b          	addiw	a0,a0,1 # 7f800001 <tohost-0x7fffff>
    800010e4:	f0050553          	fmv.w.x	fa0,a0
    800010e8:	e0051553          	fclass.s	a0,fa0
    800010ec:	10000393          	li	t2,256
    800010f0:	02751063          	bne	a0,t2,80001110 <fail>

00000000800010f4 <test_11>:
    800010f4:	00b00193          	li	gp,11
    800010f8:	7fc00537          	lui	a0,0x7fc00
    800010fc:	f0050553          	fmv.w.x	fa0,a0
    80001100:	e0051553          	fclass.s	a0,fa0
    80001104:	20000393          	li	t2,512
    80001108:	00751463          	bne	a0,t2,80001110 <fail>
    8000110c:	02301a63          	bne	zero,gp,80001140 <pass>

0000000080001110 <fail>:
    80001110:	0ff0000f          	fence
    80001114:	00001597          	auipc	a1,0x1
    80001118:	eec58593          	addi	a1,a1,-276 # 80002000 <hello>
    8000111c:	00f00613          	li	a2,15
    80001120:	04000893          	li	a7,64
    80001124:	00000073          	ecall
    80001128:	00018063          	beqz	gp,80001128 <fail+0x18>
    8000112c:	00119193          	slli	gp,gp,0x1
    80001130:	0011e193          	ori	gp,gp,1
    80001134:	05d00893          	li	a7,93
    80001138:	00018513          	mv	a0,gp
    8000113c:	00000073          	ecall

0000000080001140 <pass>:
    80001140:	0ff0000f          	fence
    80001144:	00100513          	li	a0,1
    80001148:	00001597          	auipc	a1,0x1
    8000114c:	eb858593          	addi	a1,a1,-328 # 80002000 <hello>
    80001150:	00f00613          	li	a2,15
    80001154:	04000893          	li	a7,64
    80001158:	00000073          	ecall
    8000115c:	00100193          	li	gp,1
    80001160:	05d00893          	li	a7,93
    80001164:	00000513          	li	a0,0
    80001168:	00000073          	ecall
    8000116c:	c0001073          	unimp
