
rv64ui-p-slt:     file format elf64-littleriscv


Disassembly of section .text:

0000000080001000 <test_2>:
    80001000:	00200193          	li	gp,2
    80001004:	00000093          	li	ra,0
    80001008:	00000113          	li	sp,0
    8000100c:	0020a733          	slt	a4,ra,sp
    80001010:	00000393          	li	t2,0
    80001014:	4a771a63          	bne	a4,t2,800014c8 <fail>

0000000080001018 <test_3>:
    80001018:	00300193          	li	gp,3
    8000101c:	00100093          	li	ra,1
    80001020:	00100113          	li	sp,1
    80001024:	0020a733          	slt	a4,ra,sp
    80001028:	00000393          	li	t2,0
    8000102c:	48771e63          	bne	a4,t2,800014c8 <fail>

0000000080001030 <test_4>:
    80001030:	00400193          	li	gp,4
    80001034:	00300093          	li	ra,3
    80001038:	00700113          	li	sp,7
    8000103c:	0020a733          	slt	a4,ra,sp
    80001040:	00100393          	li	t2,1
    80001044:	48771263          	bne	a4,t2,800014c8 <fail>

0000000080001048 <test_5>:
    80001048:	00500193          	li	gp,5
    8000104c:	00700093          	li	ra,7
    80001050:	00300113          	li	sp,3
    80001054:	0020a733          	slt	a4,ra,sp
    80001058:	00000393          	li	t2,0
    8000105c:	46771663          	bne	a4,t2,800014c8 <fail>

0000000080001060 <test_6>:
    80001060:	00600193          	li	gp,6
    80001064:	00000093          	li	ra,0
    80001068:	ffff8137          	lui	sp,0xffff8
    8000106c:	0020a733          	slt	a4,ra,sp
    80001070:	00000393          	li	t2,0
    80001074:	44771a63          	bne	a4,t2,800014c8 <fail>

0000000080001078 <test_7>:
    80001078:	00700193          	li	gp,7
    8000107c:	800000b7          	lui	ra,0x80000
    80001080:	00000113          	li	sp,0
    80001084:	0020a733          	slt	a4,ra,sp
    80001088:	00100393          	li	t2,1
    8000108c:	42771e63          	bne	a4,t2,800014c8 <fail>

0000000080001090 <test_8>:
    80001090:	00800193          	li	gp,8
    80001094:	800000b7          	lui	ra,0x80000
    80001098:	ffff8137          	lui	sp,0xffff8
    8000109c:	0020a733          	slt	a4,ra,sp
    800010a0:	00100393          	li	t2,1
    800010a4:	42771263          	bne	a4,t2,800014c8 <fail>

00000000800010a8 <test_9>:
    800010a8:	00900193          	li	gp,9
    800010ac:	00000093          	li	ra,0
    800010b0:	00008137          	lui	sp,0x8
    800010b4:	fff1011b          	addiw	sp,sp,-1 # 7fff <tohost-0x7fff8001>
    800010b8:	0020a733          	slt	a4,ra,sp
    800010bc:	00100393          	li	t2,1
    800010c0:	40771463          	bne	a4,t2,800014c8 <fail>

00000000800010c4 <test_10>:
    800010c4:	00a00193          	li	gp,10
    800010c8:	800000b7          	lui	ra,0x80000
    800010cc:	fff0809b          	addiw	ra,ra,-1 # 7fffffff <tohost-0x1>
    800010d0:	00000113          	li	sp,0
    800010d4:	0020a733          	slt	a4,ra,sp
    800010d8:	00000393          	li	t2,0
    800010dc:	3e771663          	bne	a4,t2,800014c8 <fail>

00000000800010e0 <test_11>:
    800010e0:	00b00193          	li	gp,11
    800010e4:	800000b7          	lui	ra,0x80000
    800010e8:	fff0809b          	addiw	ra,ra,-1 # 7fffffff <tohost-0x1>
    800010ec:	00008137          	lui	sp,0x8
    800010f0:	fff1011b          	addiw	sp,sp,-1 # 7fff <tohost-0x7fff8001>
    800010f4:	0020a733          	slt	a4,ra,sp
    800010f8:	00000393          	li	t2,0
    800010fc:	3c771663          	bne	a4,t2,800014c8 <fail>

0000000080001100 <test_12>:
    80001100:	00c00193          	li	gp,12
    80001104:	800000b7          	lui	ra,0x80000
    80001108:	00008137          	lui	sp,0x8
    8000110c:	fff1011b          	addiw	sp,sp,-1 # 7fff <tohost-0x7fff8001>
    80001110:	0020a733          	slt	a4,ra,sp
    80001114:	00100393          	li	t2,1
    80001118:	3a771863          	bne	a4,t2,800014c8 <fail>

000000008000111c <test_13>:
    8000111c:	00d00193          	li	gp,13
    80001120:	800000b7          	lui	ra,0x80000
    80001124:	fff0809b          	addiw	ra,ra,-1 # 7fffffff <tohost-0x1>
    80001128:	ffff8137          	lui	sp,0xffff8
    8000112c:	0020a733          	slt	a4,ra,sp
    80001130:	00000393          	li	t2,0
    80001134:	38771a63          	bne	a4,t2,800014c8 <fail>

0000000080001138 <test_14>:
    80001138:	00e00193          	li	gp,14
    8000113c:	00000093          	li	ra,0
    80001140:	fff00113          	li	sp,-1
    80001144:	0020a733          	slt	a4,ra,sp
    80001148:	00000393          	li	t2,0
    8000114c:	36771e63          	bne	a4,t2,800014c8 <fail>

0000000080001150 <test_15>:
    80001150:	00f00193          	li	gp,15
    80001154:	fff00093          	li	ra,-1
    80001158:	00100113          	li	sp,1
    8000115c:	0020a733          	slt	a4,ra,sp
    80001160:	00100393          	li	t2,1
    80001164:	36771263          	bne	a4,t2,800014c8 <fail>

0000000080001168 <test_16>:
    80001168:	01000193          	li	gp,16
    8000116c:	fff00093          	li	ra,-1
    80001170:	fff00113          	li	sp,-1
    80001174:	0020a733          	slt	a4,ra,sp
    80001178:	00000393          	li	t2,0
    8000117c:	34771663          	bne	a4,t2,800014c8 <fail>

0000000080001180 <test_17>:
    80001180:	01100193          	li	gp,17
    80001184:	00e00093          	li	ra,14
    80001188:	00d00113          	li	sp,13
    8000118c:	0020a0b3          	slt	ra,ra,sp
    80001190:	00000393          	li	t2,0
    80001194:	32709a63          	bne	ra,t2,800014c8 <fail>

0000000080001198 <test_18>:
    80001198:	01200193          	li	gp,18
    8000119c:	00b00093          	li	ra,11
    800011a0:	00d00113          	li	sp,13
    800011a4:	0020a133          	slt	sp,ra,sp
    800011a8:	00100393          	li	t2,1
    800011ac:	30711e63          	bne	sp,t2,800014c8 <fail>

00000000800011b0 <test_19>:
    800011b0:	01300193          	li	gp,19
    800011b4:	00d00093          	li	ra,13
    800011b8:	0010a0b3          	slt	ra,ra,ra
    800011bc:	00000393          	li	t2,0
    800011c0:	30709463          	bne	ra,t2,800014c8 <fail>

00000000800011c4 <test_20>:
    800011c4:	01400193          	li	gp,20
    800011c8:	00000213          	li	tp,0
    800011cc:	00b00093          	li	ra,11
    800011d0:	00d00113          	li	sp,13
    800011d4:	0020a733          	slt	a4,ra,sp
    800011d8:	00070313          	mv	t1,a4
    800011dc:	00120213          	addi	tp,tp,1 # 1 <tohost-0x7fffffff>
    800011e0:	00200293          	li	t0,2
    800011e4:	fe5214e3          	bne	tp,t0,800011cc <test_20+0x8>
    800011e8:	00100393          	li	t2,1
    800011ec:	2c731e63          	bne	t1,t2,800014c8 <fail>

00000000800011f0 <test_21>:
    800011f0:	01500193          	li	gp,21
    800011f4:	00000213          	li	tp,0
    800011f8:	00e00093          	li	ra,14
    800011fc:	00d00113          	li	sp,13
    80001200:	0020a733          	slt	a4,ra,sp
    80001204:	00000013          	nop
    80001208:	00070313          	mv	t1,a4
    8000120c:	00120213          	addi	tp,tp,1 # 1 <tohost-0x7fffffff>
    80001210:	00200293          	li	t0,2
    80001214:	fe5212e3          	bne	tp,t0,800011f8 <test_21+0x8>
    80001218:	00000393          	li	t2,0
    8000121c:	2a731663          	bne	t1,t2,800014c8 <fail>

0000000080001220 <test_22>:
    80001220:	01600193          	li	gp,22
    80001224:	00000213          	li	tp,0
    80001228:	00c00093          	li	ra,12
    8000122c:	00d00113          	li	sp,13
    80001230:	0020a733          	slt	a4,ra,sp
    80001234:	00000013          	nop
    80001238:	00000013          	nop
    8000123c:	00070313          	mv	t1,a4
    80001240:	00120213          	addi	tp,tp,1 # 1 <tohost-0x7fffffff>
    80001244:	00200293          	li	t0,2
    80001248:	fe5210e3          	bne	tp,t0,80001228 <test_22+0x8>
    8000124c:	00100393          	li	t2,1
    80001250:	26731c63          	bne	t1,t2,800014c8 <fail>

0000000080001254 <test_23>:
    80001254:	01700193          	li	gp,23
    80001258:	00000213          	li	tp,0
    8000125c:	00e00093          	li	ra,14
    80001260:	00d00113          	li	sp,13
    80001264:	0020a733          	slt	a4,ra,sp
    80001268:	00120213          	addi	tp,tp,1 # 1 <tohost-0x7fffffff>
    8000126c:	00200293          	li	t0,2
    80001270:	fe5216e3          	bne	tp,t0,8000125c <test_23+0x8>
    80001274:	00000393          	li	t2,0
    80001278:	24771863          	bne	a4,t2,800014c8 <fail>

000000008000127c <test_24>:
    8000127c:	01800193          	li	gp,24
    80001280:	00000213          	li	tp,0
    80001284:	00b00093          	li	ra,11
    80001288:	00d00113          	li	sp,13
    8000128c:	00000013          	nop
    80001290:	0020a733          	slt	a4,ra,sp
    80001294:	00120213          	addi	tp,tp,1 # 1 <tohost-0x7fffffff>
    80001298:	00200293          	li	t0,2
    8000129c:	fe5214e3          	bne	tp,t0,80001284 <test_24+0x8>
    800012a0:	00100393          	li	t2,1
    800012a4:	22771263          	bne	a4,t2,800014c8 <fail>

00000000800012a8 <test_25>:
    800012a8:	01900193          	li	gp,25
    800012ac:	00000213          	li	tp,0
    800012b0:	00f00093          	li	ra,15
    800012b4:	00d00113          	li	sp,13
    800012b8:	00000013          	nop
    800012bc:	00000013          	nop
    800012c0:	0020a733          	slt	a4,ra,sp
    800012c4:	00120213          	addi	tp,tp,1 # 1 <tohost-0x7fffffff>
    800012c8:	00200293          	li	t0,2
    800012cc:	fe5212e3          	bne	tp,t0,800012b0 <test_25+0x8>
    800012d0:	00000393          	li	t2,0
    800012d4:	1e771a63          	bne	a4,t2,800014c8 <fail>

00000000800012d8 <test_26>:
    800012d8:	01a00193          	li	gp,26
    800012dc:	00000213          	li	tp,0
    800012e0:	00a00093          	li	ra,10
    800012e4:	00000013          	nop
    800012e8:	00d00113          	li	sp,13
    800012ec:	0020a733          	slt	a4,ra,sp
    800012f0:	00120213          	addi	tp,tp,1 # 1 <tohost-0x7fffffff>
    800012f4:	00200293          	li	t0,2
    800012f8:	fe5214e3          	bne	tp,t0,800012e0 <test_26+0x8>
    800012fc:	00100393          	li	t2,1
    80001300:	1c771463          	bne	a4,t2,800014c8 <fail>

0000000080001304 <test_27>:
    80001304:	01b00193          	li	gp,27
    80001308:	00000213          	li	tp,0
    8000130c:	01000093          	li	ra,16
    80001310:	00000013          	nop
    80001314:	00d00113          	li	sp,13
    80001318:	00000013          	nop
    8000131c:	0020a733          	slt	a4,ra,sp
    80001320:	00120213          	addi	tp,tp,1 # 1 <tohost-0x7fffffff>
    80001324:	00200293          	li	t0,2
    80001328:	fe5212e3          	bne	tp,t0,8000130c <test_27+0x8>
    8000132c:	00000393          	li	t2,0
    80001330:	18771c63          	bne	a4,t2,800014c8 <fail>

0000000080001334 <test_28>:
    80001334:	01c00193          	li	gp,28
    80001338:	00000213          	li	tp,0
    8000133c:	00900093          	li	ra,9
    80001340:	00000013          	nop
    80001344:	00000013          	nop
    80001348:	00d00113          	li	sp,13
    8000134c:	0020a733          	slt	a4,ra,sp
    80001350:	00120213          	addi	tp,tp,1 # 1 <tohost-0x7fffffff>
    80001354:	00200293          	li	t0,2
    80001358:	fe5212e3          	bne	tp,t0,8000133c <test_28+0x8>
    8000135c:	00100393          	li	t2,1
    80001360:	16771463          	bne	a4,t2,800014c8 <fail>

0000000080001364 <test_29>:
    80001364:	01d00193          	li	gp,29
    80001368:	00000213          	li	tp,0
    8000136c:	00d00113          	li	sp,13
    80001370:	01100093          	li	ra,17
    80001374:	0020a733          	slt	a4,ra,sp
    80001378:	00120213          	addi	tp,tp,1 # 1 <tohost-0x7fffffff>
    8000137c:	00200293          	li	t0,2
    80001380:	fe5216e3          	bne	tp,t0,8000136c <test_29+0x8>
    80001384:	00000393          	li	t2,0
    80001388:	14771063          	bne	a4,t2,800014c8 <fail>

000000008000138c <test_30>:
    8000138c:	01e00193          	li	gp,30
    80001390:	00000213          	li	tp,0
    80001394:	00d00113          	li	sp,13
    80001398:	00800093          	li	ra,8
    8000139c:	00000013          	nop
    800013a0:	0020a733          	slt	a4,ra,sp
    800013a4:	00120213          	addi	tp,tp,1 # 1 <tohost-0x7fffffff>
    800013a8:	00200293          	li	t0,2
    800013ac:	fe5214e3          	bne	tp,t0,80001394 <test_30+0x8>
    800013b0:	00100393          	li	t2,1
    800013b4:	10771a63          	bne	a4,t2,800014c8 <fail>

00000000800013b8 <test_31>:
    800013b8:	01f00193          	li	gp,31
    800013bc:	00000213          	li	tp,0
    800013c0:	00d00113          	li	sp,13
    800013c4:	01200093          	li	ra,18
    800013c8:	00000013          	nop
    800013cc:	00000013          	nop
    800013d0:	0020a733          	slt	a4,ra,sp
    800013d4:	00120213          	addi	tp,tp,1 # 1 <tohost-0x7fffffff>
    800013d8:	00200293          	li	t0,2
    800013dc:	fe5212e3          	bne	tp,t0,800013c0 <test_31+0x8>
    800013e0:	00000393          	li	t2,0
    800013e4:	0e771263          	bne	a4,t2,800014c8 <fail>

00000000800013e8 <test_32>:
    800013e8:	02000193          	li	gp,32
    800013ec:	00000213          	li	tp,0
    800013f0:	00d00113          	li	sp,13
    800013f4:	00000013          	nop
    800013f8:	00700093          	li	ra,7
    800013fc:	0020a733          	slt	a4,ra,sp
    80001400:	00120213          	addi	tp,tp,1 # 1 <tohost-0x7fffffff>
    80001404:	00200293          	li	t0,2
    80001408:	fe5214e3          	bne	tp,t0,800013f0 <test_32+0x8>
    8000140c:	00100393          	li	t2,1
    80001410:	0a771c63          	bne	a4,t2,800014c8 <fail>

0000000080001414 <test_33>:
    80001414:	02100193          	li	gp,33
    80001418:	00000213          	li	tp,0
    8000141c:	00d00113          	li	sp,13
    80001420:	00000013          	nop
    80001424:	01300093          	li	ra,19
    80001428:	00000013          	nop
    8000142c:	0020a733          	slt	a4,ra,sp
    80001430:	00120213          	addi	tp,tp,1 # 1 <tohost-0x7fffffff>
    80001434:	00200293          	li	t0,2
    80001438:	fe5212e3          	bne	tp,t0,8000141c <test_33+0x8>
    8000143c:	00000393          	li	t2,0
    80001440:	08771463          	bne	a4,t2,800014c8 <fail>

0000000080001444 <test_34>:
    80001444:	02200193          	li	gp,34
    80001448:	00000213          	li	tp,0
    8000144c:	00d00113          	li	sp,13
    80001450:	00000013          	nop
    80001454:	00000013          	nop
    80001458:	00600093          	li	ra,6
    8000145c:	0020a733          	slt	a4,ra,sp
    80001460:	00120213          	addi	tp,tp,1 # 1 <tohost-0x7fffffff>
    80001464:	00200293          	li	t0,2
    80001468:	fe5212e3          	bne	tp,t0,8000144c <test_34+0x8>
    8000146c:	00100393          	li	t2,1
    80001470:	04771c63          	bne	a4,t2,800014c8 <fail>

0000000080001474 <test_35>:
    80001474:	02300193          	li	gp,35
    80001478:	fff00093          	li	ra,-1
    8000147c:	00102133          	sgtz	sp,ra
    80001480:	00000393          	li	t2,0
    80001484:	04711263          	bne	sp,t2,800014c8 <fail>

0000000080001488 <test_36>:
    80001488:	02400193          	li	gp,36
    8000148c:	fff00093          	li	ra,-1
    80001490:	0000a133          	sltz	sp,ra
    80001494:	00100393          	li	t2,1
    80001498:	02711863          	bne	sp,t2,800014c8 <fail>

000000008000149c <test_37>:
    8000149c:	02500193          	li	gp,37
    800014a0:	000020b3          	sltz	ra,zero
    800014a4:	00000393          	li	t2,0
    800014a8:	02709063          	bne	ra,t2,800014c8 <fail>

00000000800014ac <test_38>:
    800014ac:	02600193          	li	gp,38
    800014b0:	01000093          	li	ra,16
    800014b4:	01e00113          	li	sp,30
    800014b8:	0020a033          	slt	zero,ra,sp
    800014bc:	00000393          	li	t2,0
    800014c0:	00701463          	bne	zero,t2,800014c8 <fail>
    800014c4:	02301a63          	bne	zero,gp,800014f8 <pass>

00000000800014c8 <fail>:
    800014c8:	0ff0000f          	fence
    800014cc:	00001597          	auipc	a1,0x1
    800014d0:	b3458593          	addi	a1,a1,-1228 # 80002000 <hello>
    800014d4:	00f00613          	li	a2,15
    800014d8:	04000893          	li	a7,64
    800014dc:	00000073          	ecall
    800014e0:	00018063          	beqz	gp,800014e0 <fail+0x18>
    800014e4:	00119193          	slli	gp,gp,0x1
    800014e8:	0011e193          	ori	gp,gp,1
    800014ec:	05d00893          	li	a7,93
    800014f0:	00018513          	mv	a0,gp
    800014f4:	00000073          	ecall

00000000800014f8 <pass>:
    800014f8:	0ff0000f          	fence
    800014fc:	00100513          	li	a0,1
    80001500:	00001597          	auipc	a1,0x1
    80001504:	b0058593          	addi	a1,a1,-1280 # 80002000 <hello>
    80001508:	00f00613          	li	a2,15
    8000150c:	04000893          	li	a7,64
    80001510:	00000073          	ecall
    80001514:	00100193          	li	gp,1
    80001518:	05d00893          	li	a7,93
    8000151c:	00000513          	li	a0,0
    80001520:	00000073          	ecall
    80001524:	c0001073          	unimp
