
rv64ui-p-slli:     file format elf64-littleriscv


Disassembly of section .text:

0000000080001000 <test_2>:
    80001000:	00200193          	li	gp,2
    80001004:	00100093          	li	ra,1
    80001008:	00009713          	slli	a4,ra,0x0
    8000100c:	00100393          	li	t2,1
    80001010:	2e771463          	bne	a4,t2,800012f8 <fail>

0000000080001014 <test_3>:
    80001014:	00300193          	li	gp,3
    80001018:	00100093          	li	ra,1
    8000101c:	00109713          	slli	a4,ra,0x1
    80001020:	00200393          	li	t2,2
    80001024:	2c771a63          	bne	a4,t2,800012f8 <fail>

0000000080001028 <test_4>:
    80001028:	00400193          	li	gp,4
    8000102c:	00100093          	li	ra,1
    80001030:	00709713          	slli	a4,ra,0x7
    80001034:	08000393          	li	t2,128
    80001038:	2c771063          	bne	a4,t2,800012f8 <fail>

000000008000103c <test_5>:
    8000103c:	00500193          	li	gp,5
    80001040:	00100093          	li	ra,1
    80001044:	00e09713          	slli	a4,ra,0xe
    80001048:	000043b7          	lui	t2,0x4
    8000104c:	2a771663          	bne	a4,t2,800012f8 <fail>

0000000080001050 <test_6>:
    80001050:	00600193          	li	gp,6
    80001054:	00100093          	li	ra,1
    80001058:	01f09713          	slli	a4,ra,0x1f
    8000105c:	0010039b          	addiw	t2,zero,1
    80001060:	01f39393          	slli	t2,t2,0x1f
    80001064:	28771a63          	bne	a4,t2,800012f8 <fail>

0000000080001068 <test_7>:
    80001068:	00700193          	li	gp,7
    8000106c:	fff00093          	li	ra,-1
    80001070:	00009713          	slli	a4,ra,0x0
    80001074:	fff00393          	li	t2,-1
    80001078:	28771063          	bne	a4,t2,800012f8 <fail>

000000008000107c <test_8>:
    8000107c:	00800193          	li	gp,8
    80001080:	fff00093          	li	ra,-1
    80001084:	00109713          	slli	a4,ra,0x1
    80001088:	ffe00393          	li	t2,-2
    8000108c:	26771663          	bne	a4,t2,800012f8 <fail>

0000000080001090 <test_9>:
    80001090:	00900193          	li	gp,9
    80001094:	fff00093          	li	ra,-1
    80001098:	00709713          	slli	a4,ra,0x7
    8000109c:	f8000393          	li	t2,-128
    800010a0:	24771c63          	bne	a4,t2,800012f8 <fail>

00000000800010a4 <test_10>:
    800010a4:	00a00193          	li	gp,10
    800010a8:	fff00093          	li	ra,-1
    800010ac:	00e09713          	slli	a4,ra,0xe
    800010b0:	ffffc3b7          	lui	t2,0xffffc
    800010b4:	24771263          	bne	a4,t2,800012f8 <fail>

00000000800010b8 <test_11>:
    800010b8:	00b00193          	li	gp,11
    800010bc:	fff00093          	li	ra,-1
    800010c0:	01f09713          	slli	a4,ra,0x1f
    800010c4:	800003b7          	lui	t2,0x80000
    800010c8:	22771863          	bne	a4,t2,800012f8 <fail>

00000000800010cc <test_12>:
    800010cc:	00c00193          	li	gp,12
    800010d0:	212120b7          	lui	ra,0x21212
    800010d4:	1210809b          	addiw	ra,ra,289 # 21212121 <tohost-0x5edededf>
    800010d8:	00009713          	slli	a4,ra,0x0
    800010dc:	212123b7          	lui	t2,0x21212
    800010e0:	1213839b          	addiw	t2,t2,289 # 21212121 <tohost-0x5edededf>
    800010e4:	20771a63          	bne	a4,t2,800012f8 <fail>

00000000800010e8 <test_13>:
    800010e8:	00d00193          	li	gp,13
    800010ec:	212120b7          	lui	ra,0x21212
    800010f0:	1210809b          	addiw	ra,ra,289 # 21212121 <tohost-0x5edededf>
    800010f4:	00109713          	slli	a4,ra,0x1
    800010f8:	424243b7          	lui	t2,0x42424
    800010fc:	2423839b          	addiw	t2,t2,578 # 42424242 <tohost-0x3dbdbdbe>
    80001100:	1e771c63          	bne	a4,t2,800012f8 <fail>

0000000080001104 <test_14>:
    80001104:	00e00193          	li	gp,14
    80001108:	212120b7          	lui	ra,0x21212
    8000110c:	1210809b          	addiw	ra,ra,289 # 21212121 <tohost-0x5edededf>
    80001110:	00709713          	slli	a4,ra,0x7
    80001114:	010913b7          	lui	t2,0x1091
    80001118:	9093839b          	addiw	t2,t2,-1783 # 1090909 <tohost-0x7ef6f6f7>
    8000111c:	00c39393          	slli	t2,t2,0xc
    80001120:	08038393          	addi	t2,t2,128
    80001124:	1c771a63          	bne	a4,t2,800012f8 <fail>

0000000080001128 <test_15>:
    80001128:	00f00193          	li	gp,15
    8000112c:	212120b7          	lui	ra,0x21212
    80001130:	1210809b          	addiw	ra,ra,289 # 21212121 <tohost-0x5edededf>
    80001134:	00e09713          	slli	a4,ra,0xe
    80001138:	212123b7          	lui	t2,0x21212
    8000113c:	1213839b          	addiw	t2,t2,289 # 21212121 <tohost-0x5edededf>
    80001140:	00e39393          	slli	t2,t2,0xe
    80001144:	1a771a63          	bne	a4,t2,800012f8 <fail>

0000000080001148 <test_16>:
    80001148:	01000193          	li	gp,16
    8000114c:	212120b7          	lui	ra,0x21212
    80001150:	1210809b          	addiw	ra,ra,289 # 21212121 <tohost-0x5edededf>
    80001154:	01f09713          	slli	a4,ra,0x1f
    80001158:	212123b7          	lui	t2,0x21212
    8000115c:	1213839b          	addiw	t2,t2,289 # 21212121 <tohost-0x5edededf>
    80001160:	01f39393          	slli	t2,t2,0x1f
    80001164:	18771a63          	bne	a4,t2,800012f8 <fail>

0000000080001168 <test_50>:
    80001168:	03200193          	li	gp,50
    8000116c:	00100093          	li	ra,1
    80001170:	03f09713          	slli	a4,ra,0x3f
    80001174:	fff0039b          	addiw	t2,zero,-1
    80001178:	03f39393          	slli	t2,t2,0x3f
    8000117c:	16771e63          	bne	a4,t2,800012f8 <fail>

0000000080001180 <test_51>:
    80001180:	03300193          	li	gp,51
    80001184:	fff00093          	li	ra,-1
    80001188:	02709713          	slli	a4,ra,0x27
    8000118c:	fff0039b          	addiw	t2,zero,-1
    80001190:	02739393          	slli	t2,t2,0x27
    80001194:	16771263          	bne	a4,t2,800012f8 <fail>

0000000080001198 <test_52>:
    80001198:	03400193          	li	gp,52
    8000119c:	212120b7          	lui	ra,0x21212
    800011a0:	1210809b          	addiw	ra,ra,289 # 21212121 <tohost-0x5edededf>
    800011a4:	02b09713          	slli	a4,ra,0x2b
    800011a8:	000123b7          	lui	t2,0x12
    800011ac:	1213839b          	addiw	t2,t2,289 # 12121 <tohost-0x7ffededf>
    800011b0:	02b39393          	slli	t2,t2,0x2b
    800011b4:	14771263          	bne	a4,t2,800012f8 <fail>

00000000800011b8 <test_17>:
    800011b8:	01100193          	li	gp,17
    800011bc:	00100093          	li	ra,1
    800011c0:	00709093          	slli	ra,ra,0x7
    800011c4:	08000393          	li	t2,128
    800011c8:	12709863          	bne	ra,t2,800012f8 <fail>

00000000800011cc <test_18>:
    800011cc:	01200193          	li	gp,18
    800011d0:	00000213          	li	tp,0
    800011d4:	00100093          	li	ra,1
    800011d8:	00709713          	slli	a4,ra,0x7
    800011dc:	00070313          	mv	t1,a4
    800011e0:	00120213          	addi	tp,tp,1 # 1 <tohost-0x7fffffff>
    800011e4:	00200293          	li	t0,2
    800011e8:	fe5216e3          	bne	tp,t0,800011d4 <test_18+0x8>
    800011ec:	08000393          	li	t2,128
    800011f0:	10731463          	bne	t1,t2,800012f8 <fail>

00000000800011f4 <test_19>:
    800011f4:	01300193          	li	gp,19
    800011f8:	00000213          	li	tp,0
    800011fc:	00100093          	li	ra,1
    80001200:	00e09713          	slli	a4,ra,0xe
    80001204:	00000013          	nop
    80001208:	00070313          	mv	t1,a4
    8000120c:	00120213          	addi	tp,tp,1 # 1 <tohost-0x7fffffff>
    80001210:	00200293          	li	t0,2
    80001214:	fe5214e3          	bne	tp,t0,800011fc <test_19+0x8>
    80001218:	000043b7          	lui	t2,0x4
    8000121c:	0c731e63          	bne	t1,t2,800012f8 <fail>

0000000080001220 <test_20>:
    80001220:	01400193          	li	gp,20
    80001224:	00000213          	li	tp,0
    80001228:	00100093          	li	ra,1
    8000122c:	01f09713          	slli	a4,ra,0x1f
    80001230:	00000013          	nop
    80001234:	00000013          	nop
    80001238:	00070313          	mv	t1,a4
    8000123c:	00120213          	addi	tp,tp,1 # 1 <tohost-0x7fffffff>
    80001240:	00200293          	li	t0,2
    80001244:	fe5212e3          	bne	tp,t0,80001228 <test_20+0x8>
    80001248:	0010039b          	addiw	t2,zero,1
    8000124c:	01f39393          	slli	t2,t2,0x1f
    80001250:	0a731463          	bne	t1,t2,800012f8 <fail>

0000000080001254 <test_21>:
    80001254:	01500193          	li	gp,21
    80001258:	00000213          	li	tp,0
    8000125c:	00100093          	li	ra,1
    80001260:	00709713          	slli	a4,ra,0x7
    80001264:	00120213          	addi	tp,tp,1 # 1 <tohost-0x7fffffff>
    80001268:	00200293          	li	t0,2
    8000126c:	fe5218e3          	bne	tp,t0,8000125c <test_21+0x8>
    80001270:	08000393          	li	t2,128
    80001274:	08771263          	bne	a4,t2,800012f8 <fail>

0000000080001278 <test_22>:
    80001278:	01600193          	li	gp,22
    8000127c:	00000213          	li	tp,0
    80001280:	00100093          	li	ra,1
    80001284:	00000013          	nop
    80001288:	00e09713          	slli	a4,ra,0xe
    8000128c:	00120213          	addi	tp,tp,1 # 1 <tohost-0x7fffffff>
    80001290:	00200293          	li	t0,2
    80001294:	fe5216e3          	bne	tp,t0,80001280 <test_22+0x8>
    80001298:	000043b7          	lui	t2,0x4
    8000129c:	04771e63          	bne	a4,t2,800012f8 <fail>

00000000800012a0 <test_23>:
    800012a0:	01700193          	li	gp,23
    800012a4:	00000213          	li	tp,0
    800012a8:	00100093          	li	ra,1
    800012ac:	00000013          	nop
    800012b0:	00000013          	nop
    800012b4:	01f09713          	slli	a4,ra,0x1f
    800012b8:	00120213          	addi	tp,tp,1 # 1 <tohost-0x7fffffff>
    800012bc:	00200293          	li	t0,2
    800012c0:	fe5214e3          	bne	tp,t0,800012a8 <test_23+0x8>
    800012c4:	0010039b          	addiw	t2,zero,1
    800012c8:	01f39393          	slli	t2,t2,0x1f
    800012cc:	02771663          	bne	a4,t2,800012f8 <fail>

00000000800012d0 <test_24>:
    800012d0:	01800193          	li	gp,24
    800012d4:	01f01093          	slli	ra,zero,0x1f
    800012d8:	00000393          	li	t2,0
    800012dc:	00709e63          	bne	ra,t2,800012f8 <fail>

00000000800012e0 <test_25>:
    800012e0:	01900193          	li	gp,25
    800012e4:	02100093          	li	ra,33
    800012e8:	01409013          	slli	zero,ra,0x14
    800012ec:	00000393          	li	t2,0
    800012f0:	00701463          	bne	zero,t2,800012f8 <fail>
    800012f4:	02301a63          	bne	zero,gp,80001328 <pass>

00000000800012f8 <fail>:
    800012f8:	0ff0000f          	fence
    800012fc:	00001597          	auipc	a1,0x1
    80001300:	d0458593          	addi	a1,a1,-764 # 80002000 <hello>
    80001304:	00f00613          	li	a2,15
    80001308:	04000893          	li	a7,64
    8000130c:	00000073          	ecall
    80001310:	00018063          	beqz	gp,80001310 <fail+0x18>
    80001314:	00119193          	slli	gp,gp,0x1
    80001318:	0011e193          	ori	gp,gp,1
    8000131c:	05d00893          	li	a7,93
    80001320:	00018513          	mv	a0,gp
    80001324:	00000073          	ecall

0000000080001328 <pass>:
    80001328:	0ff0000f          	fence
    8000132c:	00100513          	li	a0,1
    80001330:	00001597          	auipc	a1,0x1
    80001334:	cd058593          	addi	a1,a1,-816 # 80002000 <hello>
    80001338:	00f00613          	li	a2,15
    8000133c:	04000893          	li	a7,64
    80001340:	00000073          	ecall
    80001344:	00100193          	li	gp,1
    80001348:	05d00893          	li	a7,93
    8000134c:	00000513          	li	a0,0
    80001350:	00000073          	ecall
    80001354:	c0001073          	unimp
